# runtime
convSendRecv
convSendRecv
# io
convSendRet
# rsc.io/unix/v6unix
convSendRecv
000000 170011 setd 000002 000000 000000 000000 000000 000000 177760   NZVC1 0000
# 000000 setd (nextPC=000002)
[pid 1] TRAP
[pid 1] trap 002164 csw() [000034 000000 000000 000000 000000 177736 177736 002164] []
[pid 1] trap DONE 002164 csw() [000000 000000 000000 000000 000000 177736 177736 002164] []
[pid 1] csw()
002164 012605  mov 000000 000000 000000 000000 000000 177736 177736   NZVC1 1000
# 002164 mov (sp)+, r5 (nextPC=002166)
[pid 1] TRAP
[pid 1] trap 002134 fork() [000000 000000 000000 000000 000000 177736 177736 002134] []
[pid 1] fork -> 2
[pid 1] trap DONE 002134 fork() [000002 000000 000000 000000 000000 177736 177736 002136] []
[pid 1] fork() = 2
002136 103005  bcc 000002 000000 000000 000000 000000 177736 177736   NZVC1 1000
# 002136 bcc 2152 (nextPC=002140)
[pid 1] TRAP
[pid 1] trap 003052 wait() [000000 000144 000000 000000 000002 177736 177734 003052] []
002134 000403   br 000001 000000 000000 000000 000000 177736 177736   NZVC1 1000
# 002134 br 2144 (nextPC=002136)
[pid 2] TRAP
[pid 2] trap 020210 open("/", 0) [000000 000000 000000 000000 000000 177734 177734 002252] [020124 000000]
[pid 2] trap DONE 020210 open("/", 0) [000003 000000 000000 000000 000000 177734 177734 002252] [020124 000000]
[pid 2] open("/", 0) = 3
002252 103002  bcc 000003 000000 000000 000000 000000 177734 177734   NZVC1 0100
# 002252 bcc 2260 (nextPC=002254)
[pid 2] TRAP
[pid 2] trap 002060 dup(0) [000000 000000 000000 000000 000000 177736 177736 002060] []
[pid 2] trap DONE 002060 dup(0) [000004 000000 000000 000000 000000 177736 177736 002060] []
[pid 2] dup(0) = 4
002060 103002  bcc 000004 000000 000000 000000 000000 177736 177736   NZVC1 0100
# 002060 bcc 2066 (nextPC=002062)
[pid 2] TRAP
[pid 2] trap 002060 dup(0) [000000 000000 000000 000000 000000 177736 177736 002060] []
[pid 2] trap DONE 002060 dup(0) [000005 000000 000000 000000 000000 177736 177736 002060] []
[pid 2] dup(0) = 5
002060 103002  bcc 000005 000000 000000 000000 000000 177736 177736   NZVC1 0100
# 002060 bcc 2066 (nextPC=002062)
[pid 2] TRAP
[pid 2] trap 020176 exec("/bin/sh", 177736) [177736 000000 000000 000000 000000 177730 177730 002122] [020014 177736]
[pid 2] trap DONE 020176 exec("/bin/sh", 177736) [000000 000000 000000 000000 000000 000000 177750 000000] [020014 177736]
[pid 2] exec("/bin/sh", 177736)
000000 170011 setd 000000 000000 000000 000000 000000 000000 177750   NZVC1 1000
# 000000 setd (nextPC=000002)
[pid 2] TRAP
[pid 2] trap 007624 close(2) [000002 000000 000000 000000 000002 177726 177726 007624] []
[pid 2] trap DONE 007624 close(2) [000002 000000 000000 000000 000002 177726 177726 007624] []
[pid 2] close(2)
007624 103002  bcc 000002 000000 000000 000000 000002 177726 177726   NZVC1 0000
# 007624 bcc 7632 (nextPC=007626)
[pid 2] TRAP
[pid 2] trap 007624 close(3) [000003 000000 000000 000000 000003 177726 177726 007624] []
[pid 2] trap DONE 007624 close(3) [000003 000000 000000 000000 000003 177726 177726 007624] []
[pid 2] close(3)
007624 103002  bcc 000003 000000 000000 000000 000003 177726 177726   NZVC1 0000
# 007624 bcc 7632 (nextPC=007626)
[pid 2] TRAP
[pid 2] trap 007624 close(4) [000004 000000 000000 000000 000004 177726 177726 007624] []
[pid 2] trap DONE 007624 close(4) [000004 000000 000000 000000 000004 177726 177726 007624] []
[pid 2] close(4)
007624 103002  bcc 000004 000000 000000 000000 000004 177726 177726   NZVC1 0000
# 007624 bcc 7632 (nextPC=007626)
[pid 2] TRAP
[pid 2] trap 007624 close(5) [000005 000000 000000 000000 000005 177726 177726 007624] []
[pid 2] trap DONE 007624 close(5) [000005 000000 000000 000000 000005 177726 177726 007624] []
[pid 2] close(5)
007624 103002  bcc 000005 000000 000000 000000 000005 177726 177726   NZVC1 0000
# 007624 bcc 7632 (nextPC=007626)
[pid 2] TRAP
[pid 2] trap 007624 close(6) [000006 000000 000000 000000 000006 177726 177726 007624] []
[pid 2] trap DONE 007624 close(6) [000006 000000 000000 000000 000006 177726 177726 007624] []
[pid 2] close(6): EBADF
007624 103002  bcc 000011 000000 000000 000000 000006 177726 177726   NZVC1 0001
# 007624 bcc 7632 (nextPC=007626)
[pid 2] TRAP
[pid 2] trap 007624 close(7) [000007 000000 000000 000000 000007 177726 177726 007624] []
[pid 2] trap DONE 007624 close(7) [000007 000000 000000 000000 000007 177726 177726 007624] []
[pid 2] close(7): EBADF
007624 103002  bcc 000011 000000 000000 000000 000007 177726 177726   NZVC1 0001
# 007624 bcc 7632 (nextPC=007626)
[pid 2] TRAP
[pid 2] trap 007624 close(8) [000010 000000 000000 000000 000010 177726 177726 007624] []
[pid 2] trap DONE 007624 close(8) [000010 000000 000000 000000 000010 177726 177726 007624] []
[pid 2] close(8): EBADF
007624 103002  bcc 000011 000000 000000 000000 000010 177726 177726   NZVC1 0001
# 007624 bcc 7632 (nextPC=007626)
[pid 2] TRAP
[pid 2] trap 007624 close(9) [000011 000000 000000 000000 000011 177726 177726 007624] []
[pid 2] trap DONE 007624 close(9) [000011 000000 000000 000000 000011 177726 177726 007624] []
[pid 2] close(9): EBADF
007624 103002  bcc 000011 000000 000000 000000 000011 177726 177726   NZVC1 0001
# 007624 bcc 7632 (nextPC=007626)
[pid 2] TRAP
[pid 2] trap 007624 close(10) [000012 000000 000000 000000 000012 177726 177726 007624] []
[pid 2] trap DONE 007624 close(10) [000012 000000 000000 000000 000012 177726 177726 007624] []
[pid 2] close(10): EBADF
007624 103002  bcc 000011 000000 000000 000000 000012 177726 177726   NZVC1 0001
# 007624 bcc 7632 (nextPC=007626)
[pid 2] TRAP
[pid 2] trap 007624 close(11) [000013 000000 000000 000000 000013 177726 177726 007624] []
[pid 2] trap DONE 007624 close(11) [000013 000000 000000 000000 000013 177726 177726 007624] []
[pid 2] close(11): EBADF
007624 103002  bcc 000011 000000 000000 000000 000013 177726 177726   NZVC1 0001
# 007624 bcc 7632 (nextPC=007626)
[pid 2] TRAP
[pid 2] trap 007624 close(12) [000014 000000 000000 000000 000014 177726 177726 007624] []
[pid 2] trap DONE 007624 close(12) [000014 000000 000000 000000 000014 177726 177726 007624] []
[pid 2] close(12): EBADF
007624 103002  bcc 000011 000000 000000 000000 000014 177726 177726   NZVC1 0001
# 007624 bcc 7632 (nextPC=007626)
[pid 2] TRAP
[pid 2] trap 007624 close(13) [000015 000000 000000 000000 000015 177726 177726 007624] []
[pid 2] trap DONE 007624 close(13) [000015 000000 000000 000000 000015 177726 177726 007624] []
[pid 2] close(13): EBADF
007624 103002  bcc 000011 000000 000000 000000 000015 177726 177726   NZVC1 0001
# 007624 bcc 7632 (nextPC=007626)
[pid 2] TRAP
[pid 2] trap 007624 close(14) [000016 000000 000000 000000 000016 177726 177726 007624] []
[pid 2] trap DONE 007624 close(14) [000016 000000 000000 000000 000016 177726 177726 007624] []
[pid 2] close(14): EBADF
007624 103002  bcc 000011 000000 000000 000000 000016 177726 177726   NZVC1 0001
# 007624 bcc 7632 (nextPC=007626)
[pid 2] TRAP
[pid 2] trap 007710 dup(1) [000001 000000 000000 000000 000017 177726 177726 007710] []
[pid 2] trap DONE 007710 dup(1) [000002 000000 000000 000000 000017 177726 177726 007710] []
[pid 2] dup(1) = 2
007710 103002  bcc 000002 000000 000000 000000 000017 177726 177726   NZVC1 0000
# 007710 bcc 7716 (nextPC=007712)
[pid 2] TRAP
[pid 2] trap 011362 getpid() [000002 000000 000000 000000 000002 177726 177726 011362] []
[pid 2] trap DONE 011362 getpid() [000002 000000 000000 000000 000002 177726 177726 011362] []
[pid 2] getpid() = 2
011362 012605  mov 000002 000000 000000 000000 000002 177726 177726   NZVC1 1000
# 011362 mov (sp)+, r5 (nextPC=011364)
[pid 2] TRAP
[pid 2] trap 010030 getuid() [000060 000000 177752 020544 177777 177726 177726 010030] []
[pid 2] trap DONE 010030 getuid() [000000 000000 177752 020544 177777 177726 177726 010030] []
[pid 2] getuid() = 0
010030 012605  mov 000000 000000 177752 020544 177777 177726 177726   NZVC1 1000
# 010030 mov (sp)+, r5 (nextPC=010032)
[pid 2] TRAP
[pid 2] trap 021476 open("/usr/adm/sha", 1) [000000 000000 177752 020544 177777 177724 177724 010060] [020544 000001]
[pid 2] trap DONE 021476 open("/usr/adm/sha", 1) [000000 000000 177752 020544 177777 177724 177724 010060] [020544 000001]
[pid 2] open("/usr/adm/sha", 1): ENOENT
010060 103002  bcc 000002 000000 177752 020544 177777 177724 177724   NZVC1 0001
# 010060 bcc 10066 (nextPC=010062)
[pid 2] TRAP
[pid 2] trap 007624 close(0) [000000 000000 177752 020544 177777 177726 177726 007624] []
[pid 2] trap DONE 007624 close(0) [000000 000000 177752 020544 177777 177726 177726 007624] []
[pid 2] close(0)
007624 103002  bcc 000000 000000 177752 020544 177777 177726 177726   NZVC1 0100
# 007624 bcc 7632 (nextPC=007626)
[pid 2] TRAP
[pid 2] trap 021476 open("/etc/rc", 0) [000000 000000 177752 020544 177777 177724 177724 010060] [177770 000000]
[pid 2] trap DONE 021476 open("/etc/rc", 0) [000000 000000 177752 020544 177777 177724 177724 010060] [177770 000000]
[pid 2] open("/etc/rc", 0) = 0
010060 103002  bcc 000000 000000 177752 020544 177777 177724 177724   NZVC1 0100
# 010060 bcc 10066 (nextPC=010062)
[pid 2] TRAP
[pid 2] trap 021504 read(0, 177702, 1) [000000 000000 177752 020544 000000 177670 177670 010154] [177702 000001]
[pid 2] trap DONE 021504 read(0, 177702, 1) [000001 000000 177752 020544 000000 177670 177670 010154] [177702 000001]
[pid 2] read(0, 177702, 1) = "r"
010154 103002  bcc 000001 000000 177752 020544 000000 177670 177670   NZVC1 0000
# 010154 bcc 10162 (nextPC=010156)
001026 020041  cmp 000046 020062 177752 021646 000162 177712 177702   NZVC1 0000
# 001026 cmp r0, -(r1) (nextPC=001030)
006642 001372  bne 000136 177670 177752 021646 020636 177674 177664   NZVC1 0000
# 006642 bne 6630 (nextPC=006644)
[pid 2] TRAP
[pid 2] trap 021504 read(0, 177652, 1) [000000 177666 177752 021646 000162 177640 177640 010154] [177652 000001]
[pid 2] trap DONE 021504 read(0, 177652, 1) [000001 177666 177752 021646 000162 177640 177640 010154] [177652 000001]
[pid 2] read(0, 177652, 1) = "m"
010154 103002  bcc 000001 177666 177752 021646 000162 177640 177640   NZVC1 0000
# 010154 bcc 10162 (nextPC=010156)
006634 112400 movb 000051 177670 177752 021646 020634 177674 177664   NZVC1 0000
# 006634 movb (r4)+, r0 (nextPC=006636)
[pid 2] TRAP
[pid 2] trap 021504 read(0, 177652, 1) [000000 177666 177752 021646 000155 177640 177640 010154] [177652 000001]
[pid 2] trap DONE 021504 read(0, 177652, 1) [000001 177666 177752 021646 000155 177640 177640 010154] [177652 000001]
[pid 2] read(0, 177652, 1) = " "
010154 103002  bcc 000001 177666 177752 021646 000155 177640 177640   NZVC1 0000
# 010154 bcc 10162 (nextPC=010156)
011420 000207  rts 000000 177666 177752 021646 000040 177712 177676   NZVC1 1000
# 011420 rts pc (nextPC=011422)
001706 001425  beq 001700 020106 177752 021651 000040 177662 177650   NZVC1 0100
# 001706 beq 1762 (nextPC=001710)
[pid 2] TRAP
[pid 2] trap 021504 read(0, 177652, 1) [000000 020106 177752 021651 000040 177640 177640 010154] [177652 000001]
[pid 2] trap DONE 021504 read(0, 177652, 1) [000001 020106 177752 021651 000040 177640 177640 010154] [177652 000001]
[pid 2] read(0, 177652, 1) = "-"
010154 103002  bcc 000001 020106 177752 021651 000040 177640 177640   NZVC1 0000
# 010154 bcc 10162 (nextPC=010156)
006630 105714 tstb 000047 177670 177752 021651 020624 177674 177664   NZVC1 0000
# 006630 tstb (r4) (nextPC=006632)
001702 005767  tst 001700 177666 177752 021651 000055 177662 177650   NZVC1 0000
# 001702 tst 21626 (nextPC=001706)
[pid 2] TRAP
[pid 2] trap 021504 read(0, 177652, 1) [000000 177666 177752 021651 000055 177640 177640 010154] [177652 000001]
[pid 2] trap DONE 021504 read(0, 177652, 1) [000001 177666 177752 021651 000055 177640 177640 010154] [177652 000001]
[pid 2] read(0, 177652, 1) = "f"
010154 103002  bcc 000001 177666 177752 021651 000055 177640 177640   NZVC1 0000
# 010154 bcc 10162 (nextPC=010156)
006634 112400 movb 000051 177670 177752 021651 020634 177674 177664   NZVC1 0000
# 006634 movb (r4)+, r0 (nextPC=006636)
[pid 2] TRAP
[pid 2] trap 021504 read(0, 177652, 1) [000000 177666 177752 021651 000146 177640 177640 010154] [177652 000001]
[pid 2] trap DONE 021504 read(0, 177652, 1) [000001 177666 177752 021651 000146 177640 177640 010154] [177652 000001]
[pid 2] read(0, 177652, 1) = " "
010154 103002  bcc 000001 177666 177752 021651 000146 177640 177640   NZVC1 0000
# 010154 bcc 10162 (nextPC=010156)
011420 000207  rts 000000 177666 177752 021651 000040 177712 177676   NZVC1 1000
# 011420 rts pc (nextPC=011422)
001706 001425  beq 001700 020106 177752 021654 000040 177662 177650   NZVC1 0100
# 001706 beq 1762 (nextPC=001710)
[pid 2] TRAP
[pid 2] trap 021504 read(0, 177652, 1) [000000 020106 177752 021654 000040 177640 177640 010154] [177652 000001]
[pid 2] trap DONE 021504 read(0, 177652, 1) [000001 020106 177752 021654 000040 177640 177640 010154] [177652 000001]
[pid 2] read(0, 177652, 1) = "/"
010154 103002  bcc 000001 020106 177752 021654 000040 177640 177640   NZVC1 0000
# 010154 bcc 10162 (nextPC=010156)
006632 001410  beq 000040 177670 177752 021654 020623 177674 177664   NZVC1 0000
# 006632 beq 6654 (nextPC=006634)
011376 010246  mov 001700 177666 177752 021654 000057 177662 177656   NZVC1 0000
# 011376 mov r2, -(sp) (nextPC=011400)
[pid 2] TRAP
[pid 2] trap 021504 read(0, 177652, 1) [000000 177666 177752 021654 000057 177640 177640 010154] [177652 000001]
[pid 2] trap DONE 021504 read(0, 177652, 1) [000001 177666 177752 021654 000057 177640 177640 010154] [177652 000001]
[pid 2] read(0, 177652, 1) = "e"
010154 103002  bcc 000001 177666 177752 021654 000057 177640 177640   NZVC1 0000
# 010154 bcc 10162 (nextPC=010156)
006634 112400 movb 000051 177670 177752 021654 020634 177674 177664   NZVC1 0000
# 006634 movb (r4)+, r0 (nextPC=006636)
[pid 2] TRAP
[pid 2] trap 021504 read(0, 177652, 1) [000000 177666 177752 021654 000145 177640 177640 010154] [177652 000001]
[pid 2] trap DONE 021504 read(0, 177652, 1) [000001 177666 177752 021654 000145 177640 177640 010154] [177652 000001]
[pid 2] read(0, 177652, 1) = "t"
010154 103002  bcc 000001 177666 177752 021654 000145 177640 177640   NZVC1 0000
# 010154 bcc 10162 (nextPC=010156)
006634 112400 movb 000051 177670 177752 021654 020634 177674 177664   NZVC1 0000
# 006634 movb (r4)+, r0 (nextPC=006636)
[pid 2] TRAP
[pid 2] trap 021504 read(0, 177652, 1) [000000 177666 177752 021654 000164 177640 177640 010154] [177652 000001]
[pid 2] trap DONE 021504 read(0, 177652, 1) [000001 177666 177752 021654 000164 177640 177640 010154] [177652 000001]
[pid 2] read(0, 177652, 1) = "c"
010154 103002  bcc 000001 177666 177752 021654 000164 177640 177640   NZVC1 0000
# 010154 bcc 10162 (nextPC=010156)
006634 112400 movb 000051 177670 177752 021654 020634 177674 177664   NZVC1 0000
# 006634 movb (r4)+, r0 (nextPC=006636)
[pid 2] TRAP
[pid 2] trap 021504 read(0, 177652, 1) [000000 177666 177752 021654 000143 177640 177640 010154] [177652 000001]
[pid 2] trap DONE 021504 read(0, 177652, 1) [000001 177666 177752 021654 000143 177640 177640 010154] [177652 000001]
[pid 2] read(0, 177652, 1) = "/"
010154 103002  bcc 000001 177666 177752 021654 000143 177640 177640   NZVC1 0000
# 010154 bcc 10162 (nextPC=010156)
006634 112400 movb 000051 177670 177752 021654 020634 177674 177664   NZVC1 0000
# 006634 movb (r4)+, r0 (nextPC=006636)
[pid 2] TRAP
[pid 2] trap 021504 read(0, 177652, 1) [000000 177666 177752 021654 000057 177640 177640 010154] [177652 000001]
[pid 2] trap DONE 021504 read(0, 177652, 1) [000001 177666 177752 021654 000057 177640 177640 010154] [177652 000001]
[pid 2] read(0, 177652, 1) = "m"
010154 103002  bcc 000001 177666 177752 021654 000057 177640 177640   NZVC1 0000
# 010154 bcc 10162 (nextPC=010156)
006634 112400 movb 000051 177670 177752 021654 020634 177674 177664   NZVC1 0000
# 006634 movb (r4)+, r0 (nextPC=006636)
[pid 2] TRAP
[pid 2] trap 021504 read(0, 177652, 1) [000000 177666 177752 021654 000155 177640 177640 010154] [177652 000001]
[pid 2] trap DONE 021504 read(0, 177652, 1) [000001 177666 177752 021654 000155 177640 177640 010154] [177652 000001]
[pid 2] read(0, 177652, 1) = "t"
010154 103002  bcc 000001 177666 177752 021654 000155 177640 177640   NZVC1 0000
# 010154 bcc 10162 (nextPC=010156)
006634 112400 movb 000051 177670 177752 021654 020634 177674 177664   NZVC1 0000
# 006634 movb (r4)+, r0 (nextPC=006636)
[pid 2] TRAP
[pid 2] trap 021504 read(0, 177652, 1) [000000 177666 177752 021654 000164 177640 177640 010154] [177652 000001]
[pid 2] trap DONE 021504 read(0, 177652, 1) [000001 177666 177752 021654 000164 177640 177640 010154] [177652 000001]
[pid 2] read(0, 177652, 1) = "a"
010154 103002  bcc 000001 177666 177752 021654 000164 177640 177640   NZVC1 0000
# 010154 bcc 10162 (nextPC=010156)
006634 112400 movb 000051 177670 177752 021654 020634 177674 177664   NZVC1 0000
# 006634 movb (r4)+, r0 (nextPC=006636)
[pid 2] TRAP
[pid 2] trap 021504 read(0, 177652, 1) [000000 177666 177752 021654 000141 177640 177640 010154] [177652 000001]
[pid 2] trap DONE 021504 read(0, 177652, 1) [000001 177666 177752 021654 000141 177640 177640 010154] [177652 000001]
[pid 2] read(0, 177652, 1) = "b"
010154 103002  bcc 000001 177666 177752 021654 000141 177640 177640   NZVC1 0000
# 010154 bcc 10162 (nextPC=010156)
006634 112400 movb 000051 177670 177752 021654 020634 177674 177664   NZVC1 0000
# 006634 movb (r4)+, r0 (nextPC=006636)
[pid 2] TRAP
[pid 2] trap 021504 read(0, 177652, 1) [000000 177666 177752 021654 000142 177640 177640 010154] [177652 000001]
[pid 2] trap DONE 021504 read(0, 177652, 1) [000001 177666 177752 021654 000142 177640 177640 010154] [177652 000001]
[pid 2] read(0, 177652, 1) = "\n"
010154 103002  bcc 000001 177666 177752 021654 000142 177640 177640   NZVC1 0000
# 010154 bcc 10162 (nextPC=010156)
006630 105714 tstb 000051 177670 177752 021654 020634 177674 177664   NZVC1 1001
# 006630 tstb (r4) (nextPC=006632)
001320 105767 tstb 001320 177704 177752 021666 000000 177676 177666   NZVC1 1000
# 001320 tstb 21612 (nextPC=001324)
011374 010346  mov 006624 177704 177752 021666 000000 177672 177670   NZVC1 0100
# 011374 mov r3, -(sp) (nextPC=011376)
002222 020021  cmp 000057 020166 177752 021666 023622 177672 177660   NZVC1 0000
# 002222 cmp r0, (r1)+ (nextPC=002224)
002474 012701  mov 000057 020222 177752 000000 023622 177652 177642   NZVC1 0000
# 002474 mov #20210, r1 (nextPC=002500)
002772 020021  cmp 000057 020234 177752 000000 023622 177634 177604   NZVC1 0000
# 002772 cmp r0, (r1)+ (nextPC=002774)
003510 016501  mov 024000 023622 177752 023772 023624 177634 177604   NZVC1 0000
# 003510 mov -16(r5), r1 (nextPC=003514)
003714 020027  cmp 000003 177702 023762 021666 000000 177712 177672   NZVC1 0000
# 003714 cmp r0, #3 (nextPC=003720)
006664 016504  mov 006664 177632 023762 021646 023772 177640 177630   NZVC1 0100
# 006664 mov 4(r5), r4 (nextPC=006670)
004354 001244  bne 000000 177632 023762 021646 023772 177666 177646   NZVC1 0100
# 004354 bne 4066 (nextPC=004356)
[pid 2] TRAP
[pid 2] trap 010000 fork() [023772 177632 023762 021646 023772 177642 177642 010000] []
[pid 2] fork -> 3
[pid 2] trap DONE 010000 fork() [000003 177632 023762 021646 023772 177642 177642 010002] []
[pid 2] fork() = 3
010002 103005  bcc 000003 177632 023762 021646 023772 177642 177642   NZVC1 1000
# 010002 bcc 10016 (nextPC=010004)
[pid 2] TRAP
[pid 2] trap 021526 times [006724 177632 023762 021646 023772 177622 177622 010714] [021632]
[pid 2] trap DONE 021526 times [006724 177632 023762 021646 023772 177622 177622 010714] [021632]
[pid 2] times
010714 012605  mov 006724 177632 023762 021646 023772 177622 177622   NZVC1 0000
# 010714 mov (sp)+, r5 (nextPC=010716)
[pid 2] TRAP
[pid 2] trap 010656 time() [006724 177632 023762 021646 023772 177622 177622 010656] []
[pid 2] trap DONE 010656 time() [005221 061502 023762 021646 023772 177622 177622 010656] []
[pid 2] time() = 2705, 25410
010656 010246  mov 005221 061502 023762 021646 023772 177622 177622   NZVC1 1000
# 010656 mov r2, -(sp) (nextPC=010660)
[pid 2] TRAP
[pid 2] trap 010734 wait() [000001 006766 023762 021646 023772 177622 177620 010734] []
010000 000403   br 000002 177632 023762 021646 023772 177642 177642   NZVC1 1000
# 010000 br 10010 (nextPC=010002)
[pid 3] TRAP
[pid 3] trap 007624 close(-1) [177777 177632 023762 021646 023772 177642 177642 007624] []
[pid 3] trap DONE 007624 close(-1) [177777 177632 023762 021646 023772 177642 177642 007624] []
[pid 3] close(-1): EBADF
007624 103002  bcc 000011 177632 023762 021646 023772 177642 177642   NZVC1 1001
# 007624 bcc 7632 (nextPC=007626)
011376 010246  mov 003606 177614 024006 000155 021647 177622 177616   NZVC1 0000
# 011376 mov r2, -(sp) (nextPC=011400)
006642 001372  bne 000052 177614 024010 000055 020747 177604 177574   NZVC1 0000
# 006642 bne 6630 (nextPC=006644)
003556 001774  beq 000146 177614 024012 000057 021654 177640 177630   NZVC1 0000
# 003556 beq 3550 (nextPC=003560)
006642 001372  bne 000077 177614 024012 000145 020746 177604 177574   NZVC1 0000
# 006642 bne 6630 (nextPC=006644)
003554 111403 movb 000164 177614 024012 000164 021657 177640 177630   NZVC1 0000
# 003554 movb (r4), r3 (nextPC=003556)
006636 026500  cmp 000077 177614 024012 000057 020746 177604 177574   NZVC1 0000
# 006636 cmp 4(r5), r0 (nextPC=006642)
003574 000767   br 000155 177614 024012 000155 021662 177640 177630   NZVC1 0000
# 003574 br 3554 (nextPC=003576)
006634 112400 movb 000133 177614 024012 000141 020745 177604 177574   NZVC1 0000
# 006634 movb (r4)+, r0 (nextPC=006636)
003572 110024 movb 000142 177614 024012 000142 021664 177640 177630   NZVC1 0000
# 003572 movb r0, (r4)+ (nextPC=003574)
011402 000110  jmp 003652 177614 024010 000055 021651 177622 177612   NZVC1 0000
# 011402 jmp (r0) (nextPC=011404)
003564 004775  jsr 000164 177614 024012 000164 021656 177640 177626   NZVC1 0000
# 003564 jsr pc, @6(r5) (nextPC=003570)
003554 111403 movb 000155 177614 024012 000155 021662 177640 177630   NZVC1 0000
# 003554 movb (r4), r3 (nextPC=003556)
011374 010346  mov 006204 177632 023762 021646 023772 177640 177636   NZVC1 0000
# 011374 mov r3, -(sp) (nextPC=011376)
[pid 3] TRAP
[pid 3] trap 021470 exec("rm", 024004) [006204 177632 023762 021646 023772 177622 177622 007766] [021646 024004]
[pid 3] trap DONE 021470 exec("rm", 024004) [006204 177632 023762 021646 023772 177622 177622 007766] [021646 024004]
[pid 3] exec("rm", 024004): ENOENT
007766 000167  jmp 000002 177632 023762 021646 023772 177622 177622   NZVC1 0101
# 007766 jmp 11422 (nextPC=007772)
[pid 3] TRAP
[pid 3] trap 021470 exec("/bin/rm", 024004) [006204 177632 021651 021704 023772 177622 177622 007766] [021674 024004]
[pid 3] trap DONE 021470 exec("/bin/rm", 024004) [000000 000000 000000 000000 000000 000000 177746 000000] [021674 024004]
[pid 3] exec("/bin/rm", 024004)
000000 170011 setd 000000 000000 000000 000000 000000 000000 177746   NZVC1 0100
# 000000 setd (nextPC=000002)
[pid 3] TRAP
[pid 3] trap 003274 stat("/etc/mtab", 177632) [000176 000000 000000 000000 000000 177616 177616 002174] [177766 177632]
[pid 3] trap DONE 003274 stat("/etc/mtab", 177632) [000176 000000 000000 000000 000000 177616 177616 002174] [177766 177632]
[pid 3] stat("/etc/mtab", 177632)
002174 103002  bcc 000176 000000 000000 000000 000000 177616 177616   NZVC1 1000
# 002174 bcc 2202 (nextPC=002176)
[pid 3] TRAP
[pid 3] trap 003302 unlink("/etc/mtab") [000000 000000 000000 000000 000000 177620 177620 002226] [177766]
[pid 3] trap DONE 003302 unlink("/etc/mtab") [000000 000000 000000 000000 000000 177620 177620 002226] [177766]
[pid 3] unlink("/etc/mtab")
002226 103002  bcc 000000 000000 000000 000000 000000 177620 177620   NZVC1 1000
# 002226 bcc 2234 (nextPC=002230)
[pid 3] TRAP
[pid 3] trap 002356 exit(0) [000000 177732 000000 000000 000000 177740 177740 002356] []
[pid 2] trap DONE 010734 wait() [000003 000000 023762 021646 023772 177622 177620 010734] []
[pid 2] wait() = 3, 000000
010734 103003  bcc 000003 000000 023762 021646 023772 177622 177620   NZVC1 0000
# 010734 bcc 10744 (nextPC=010736)
[pid 2] TRAP
[pid 2] trap 021526 times [007230 000000 021646 000000 000003 177516 177516 010714] [177564]
[pid 2] trap DONE 021526 times [007230 000000 021646 000000 000003 177516 177516 010714] [177564]
[pid 2] times
010714 012605  mov 007230 000000 021646 000000 000003 177516 177516   NZVC1 1000
# 010714 mov (sp)+, r5 (nextPC=010716)
[pid 2] TRAP
[pid 2] trap 010656 time() [007230 000000 021646 000000 000003 177516 177516 010656] []
[pid 2] trap DONE 010656 time() [005221 061502 021646 000000 000003 177516 177516 010656] []
[pid 2] time() = 2705, 25410
010656 010246  mov 005221 061502 021646 000000 000003 177516 177516   NZVC1 1000
# 010656 mov r2, -(sp) (nextPC=010660)
011410 014103  mov 000000 177510 177562 000000 000003 177512 177502   NZVC1 0000
# 011410 mov -(r1), r3 (nextPC=011412)
007424 105713 tstb 177617 177504 021651 021650 000011 177606 177522   NZVC1 0100
# 007424 tstb (r3) (nextPC=007426)
[pid 2] TRAP
[pid 2] trap 021512 seek(-1, 0, 2) [177777 177504 021651 021650 000016 177512 177512 010216] [000000 000002]
[pid 2] trap DONE 021512 seek(-1, 0, 2) [177777 177504 021651 021650 000016 177512 177512 010216] [000000 000002]
[pid 2] seek(-1, 0, 2): EBADF
010216 103002  bcc 000011 177504 021651 021650 000016 177512 177512   NZVC1 0001
# 010216 bcc 10224 (nextPC=010220)
[pid 2] TRAP
[pid 2] trap 021532 write(-1, "rm\x00\x00\x00\x00\x00\x00\x00\x00\x00\x00\x00\x00\x01\x00\x91\nBc\x00\x00\x00\x00\x00\x00\x00\x00\x00\x00\x00\x00") [177777 177504 021651 021650 000016 177512 177512 011010] [177524 000040]
[pid 2] trap DONE 021532 write(-1, "rm\x00\x00\x00\x00\x00\x00\x00\x00\x00\x00\x00\x00\x01\x00\x91\nBc\x00\x00\x00\x00\x00\x00\x00\x00\x00\x00\x00\x00") [177777 177504 021651 021650 000016 177512 177512 011010] [177524 000040]
[pid 2] write(-1, "rm\x00\x00\x00\x00\x00\x00\x00\x00\x00\x00\x00\x00\x01\x00\x91\nBc\x00\x00\x00\x00\x00\x00\x00\x00\x00\x00\x00\x00"): EBADF
011010 103002  bcc 000011 177504 021651 021650 000016 177512 177512   NZVC1 0001
# 011010 bcc 11016 (nextPC=011012)
001426 103054  bcc 001320 177720 177752 020544 000000 177726 177716   NZVC1 0000
# 001426 bcc 1560 (nextPC=001430)
[pid 2] TRAP
[pid 2] trap 021504 read(0, 177702, 1) [000000 177720 177752 020544 000000 177670 177670 010154] [177702 000001]
[pid 2] trap DONE 021504 read(0, 177702, 1) [000001 177720 177752 020544 000000 177670 177670 010154] [177702 000001]
[pid 2] read(0, 177702, 1) = "/"
010154 103002  bcc 000001 177720 177752 020544 000000 177670 177670   NZVC1 0000
# 010154 bcc 10162 (nextPC=010156)
001026 020041  cmp 000017 020112 177752 021646 000057 177712 177702   NZVC1 0000
# 001026 cmp r0, -(r1) (nextPC=001030)
006630 105714 tstb 000174 177670 177752 021646 020635 177674 177664   NZVC1 1001
# 006630 tstb (r4) (nextPC=006632)
[pid 2] TRAP
[pid 2] trap 021504 read(0, 177652, 1) [000000 177666 177752 021646 000057 177640 177640 010154] [177652 000001]
[pid 2] trap DONE 021504 read(0, 177652, 1) [000001 177666 177752 021646 000057 177640 177640 010154] [177652 000001]
[pid 2] read(0, 177652, 1) = "e"
010154 103002  bcc 000001 177666 177752 021646 000057 177640 177640   NZVC1 0000
# 010154 bcc 10162 (nextPC=010156)
006634 112400 movb 000051 177670 177752 021646 020634 177674 177664   NZVC1 0000
# 006634 movb (r4)+, r0 (nextPC=006636)
[pid 2] TRAP
[pid 2] trap 021504 read(0, 177652, 1) [000000 177666 177752 021646 000145 177640 177640 010154] [177652 000001]
[pid 2] trap DONE 021504 read(0, 177652, 1) [000001 177666 177752 021646 000145 177640 177640 010154] [177652 000001]
[pid 2] read(0, 177652, 1) = "t"
010154 103002  bcc 000001 177666 177752 021646 000145 177640 177640   NZVC1 0000
# 010154 bcc 10162 (nextPC=010156)
006634 112400 movb 000051 177670 177752 021646 020634 177674 177664   NZVC1 0000
# 006634 movb (r4)+, r0 (nextPC=006636)
[pid 2] TRAP
[pid 2] trap 021504 read(0, 177652, 1) [000000 177666 177752 021646 000164 177640 177640 010154] [177652 000001]
[pid 2] trap DONE 021504 read(0, 177652, 1) [000001 177666 177752 021646 000164 177640 177640 010154] [177652 000001]
[pid 2] read(0, 177652, 1) = "c"
010154 103002  bcc 000001 177666 177752 021646 000164 177640 177640   NZVC1 0000
# 010154 bcc 10162 (nextPC=010156)
006634 112400 movb 000051 177670 177752 021646 020634 177674 177664   NZVC1 0000
# 006634 movb (r4)+, r0 (nextPC=006636)
[pid 2] TRAP
[pid 2] trap 021504 read(0, 177652, 1) [000000 177666 177752 021646 000143 177640 177640 010154] [177652 000001]
[pid 2] trap DONE 021504 read(0, 177652, 1) [000001 177666 177752 021646 000143 177640 177640 010154] [177652 000001]
[pid 2] read(0, 177652, 1) = "/"
010154 103002  bcc 000001 177666 177752 021646 000143 177640 177640   NZVC1 0000
# 010154 bcc 10162 (nextPC=010156)
006634 112400 movb 000051 177670 177752 021646 020634 177674 177664   NZVC1 0000
# 006634 movb (r4)+, r0 (nextPC=006636)
[pid 2] TRAP
[pid 2] trap 021504 read(0, 177652, 1) [000000 177666 177752 021646 000057 177640 177640 010154] [177652 000001]
[pid 2] trap DONE 021504 read(0, 177652, 1) [000001 177666 177752 021646 000057 177640 177640 010154] [177652 000001]
[pid 2] read(0, 177652, 1) = "u"
010154 103002  bcc 000001 177666 177752 021646 000057 177640 177640   NZVC1 0000
# 010154 bcc 10162 (nextPC=010156)
006634 112400 movb 000051 177670 177752 021646 020634 177674 177664   NZVC1 0000
# 006634 movb (r4)+, r0 (nextPC=006636)
[pid 2] TRAP
[pid 2] trap 021504 read(0, 177652, 1) [000000 177666 177752 021646 000165 177640 177640 010154] [177652 000001]
[pid 2] trap DONE 021504 read(0, 177652, 1) [000001 177666 177752 021646 000165 177640 177640 010154] [177652 000001]
[pid 2] read(0, 177652, 1) = "p"
010154 103002  bcc 000001 177666 177752 021646 000165 177640 177640   NZVC1 0000
# 010154 bcc 10162 (nextPC=010156)
006634 112400 movb 000051 177670 177752 021646 020634 177674 177664   NZVC1 0000
# 006634 movb (r4)+, r0 (nextPC=006636)
[pid 2] TRAP
[pid 2] trap 021504 read(0, 177652, 1) [000000 177666 177752 021646 000160 177640 177640 010154] [177652 000001]
[pid 2] trap DONE 021504 read(0, 177652, 1) [000001 177666 177752 021646 000160 177640 177640 010154] [177652 000001]
[pid 2] read(0, 177652, 1) = "d"
010154 103002  bcc 000001 177666 177752 021646 000160 177640 177640   NZVC1 0000
# 010154 bcc 10162 (nextPC=010156)
006634 112400 movb 000051 177670 177752 021646 020634 177674 177664   NZVC1 0000
# 006634 movb (r4)+, r0 (nextPC=006636)
[pid 2] TRAP
[pid 2] trap 021504 read(0, 177652, 1) [000000 177666 177752 021646 000144 177640 177640 010154] [177652 000001]
[pid 2] trap DONE 021504 read(0, 177652, 1) [000001 177666 177752 021646 000144 177640 177640 010154] [177652 000001]
[pid 2] read(0, 177652, 1) = "a"
010154 103002  bcc 000001 177666 177752 021646 000144 177640 177640   NZVC1 0000
# 010154 bcc 10162 (nextPC=010156)
006634 112400 movb 000051 177670 177752 021646 020634 177674 177664   NZVC1 0000
# 006634 movb (r4)+, r0 (nextPC=006636)
[pid 2] TRAP
[pid 2] trap 021504 read(0, 177652, 1) [000000 177666 177752 021646 000141 177640 177640 010154] [177652 000001]
[pid 2] trap DONE 021504 read(0, 177652, 1) [000001 177666 177752 021646 000141 177640 177640 010154] [177652 000001]
[pid 2] read(0, 177652, 1) = "t"
010154 103002  bcc 000001 177666 177752 021646 000141 177640 177640   NZVC1 0000
# 010154 bcc 10162 (nextPC=010156)
006634 112400 movb 000051 177670 177752 021646 020634 177674 177664   NZVC1 0000
# 006634 movb (r4)+, r0 (nextPC=006636)
[pid 2] TRAP
[pid 2] trap 021504 read(0, 177652, 1) [000000 177666 177752 021646 000164 177640 177640 010154] [177652 000001]
[pid 2] trap DONE 021504 read(0, 177652, 1) [000001 177666 177752 021646 000164 177640 177640 010154] [177652 000001]
[pid 2] read(0, 177652, 1) = "e"
010154 103002  bcc 000001 177666 177752 021646 000164 177640 177640   NZVC1 0000
# 010154 bcc 10162 (nextPC=010156)
006634 112400 movb 000051 177670 177752 021646 020634 177674 177664   NZVC1 0000
# 006634 movb (r4)+, r0 (nextPC=006636)
[pid 2] TRAP
[pid 2] trap 021504 read(0, 177652, 1) [000000 177666 177752 021646 000145 177640 177640 010154] [177652 000001]
[pid 2] trap DONE 021504 read(0, 177652, 1) [000001 177666 177752 021646 000145 177640 177640 010154] [177652 000001]
[pid 2] read(0, 177652, 1) = "\n"
010154 103002  bcc 000001 177666 177752 021646 000145 177640 177640   NZVC1 0000
# 010154 bcc 10162 (nextPC=010156)
006630 105714 tstb 000051 177670 177752 021646 020634 177674 177664   NZVC1 1001
# 006630 tstb (r4) (nextPC=006632)
001320 105767 tstb 001320 177704 177752 021662 000000 177676 177666   NZVC1 1000
# 001320 tstb 21612 (nextPC=001324)
011374 010346  mov 006624 177704 177752 021662 000000 177672 177670   NZVC1 0100
# 011374 mov r3, -(sp) (nextPC=011376)
011406 014104  mov 023762 177654 177752 021662 023762 177654 177644   NZVC1 1000
# 011406 mov -(r1), r4 (nextPC=011410)
003430 005265  inc 000002 020246 177752 000000 023620 177634 177604   NZVC1 0000
# 003430 inc -14(r5) (nextPC=003434)
002152 000167  jmp 000000 177644 177752 023762 023620 177652 177642   NZVC1 0100
# 002152 jmp 11404 (nextPC=002156)
011406 014104  mov 000000 177640 023762 020750 021647 177640 177630   NZVC1 1000
# 011406 mov -(r1), r4 (nextPC=011410)
011374 010346  mov 006664 177632 023762 021646 023772 177640 177636   NZVC1 0000
# 011374 mov r3, -(sp) (nextPC=011376)
[pid 2] TRAP
[pid 2] trap 010000 fork() [023772 177632 023762 021646 023772 177642 177642 010000] []
[pid 2] fork -> 4
[pid 2] trap DONE 010000 fork() [000004 177632 023762 021646 023772 177642 177642 010002] []
[pid 2] fork() = 4
010002 103005  bcc 000004 177632 023762 021646 023772 177642 177642   NZVC1 1000
# 010002 bcc 10016 (nextPC=010004)
[pid 2] TRAP
[pid 2] trap 021526 times [006724 177632 023762 021646 023772 177622 177622 010714] [021632]
[pid 2] trap DONE 021526 times [006724 177632 023762 021646 023772 177622 177622 010714] [021632]
[pid 2] times
010714 012605  mov 006724 177632 023762 021646 023772 177622 177622   NZVC1 0000
# 010714 mov (sp)+, r5 (nextPC=010716)
[pid 2] TRAP
[pid 2] trap 010656 time() [006724 177632 023762 021646 023772 177622 177622 010656] []
[pid 2] trap DONE 010656 time() [005221 061502 023762 021646 023772 177622 177622 010656] []
[pid 2] time() = 2705, 25410
010656 010246  mov 005221 061502 023762 021646 023772 177622 177622   NZVC1 1000
# 010656 mov r2, -(sp) (nextPC=010660)
[pid 2] TRAP
[pid 2] trap 010734 wait() [000001 006766 023762 021646 023772 177622 177620 010734] []
010000 000403   br 000002 177632 023762 021646 023772 177642 177642   NZVC1 1000
# 010000 br 10010 (nextPC=010002)
[pid 4] TRAP
[pid 4] trap 007624 close(-1) [177777 177632 023762 021646 023772 177642 177642 007624] []
[pid 4] trap DONE 007624 close(-1) [177777 177632 023762 021646 023772 177642 177642 007624] []
[pid 4] close(-1): EBADF
007624 103002  bcc 000011 177632 023762 021646 023772 177642 177642   NZVC1 1001
# 007624 bcc 7632 (nextPC=007626)
011376 010246  mov 003606 177614 024006 000145 021647 177622 177616   NZVC1 0000
# 011376 mov r2, -(sp) (nextPC=011400)
006656 000774   br 000000 177614 024006 000164 020747 177604 177574   NZVC1 0100
# 006656 br 6650 (nextPC=006660)
011374 010346  mov 003606 177614 024006 000057 021652 177622 177620   NZVC1 0000
# 011374 mov r3, -(sp) (nextPC=011376)
006654 005000  clr 000052 177614 024006 000165 020747 177604 177574   NZVC1 0100
# 006654 clr r0 (nextPC=006656)
011372 010446  mov 003606 177614 024006 000144 021655 177622 177622   NZVC1 1000
# 011372 mov r4, -(sp) (nextPC=011374)
006632 001410  beq 000052 177614 024006 000141 020747 177604 177574   NZVC1 0100
# 006632 beq 6654 (nextPC=006634)
011370 010605  mov 003606 177614 024006 000145 021660 003606 177622   NZVC1 0000
# 011370 mov sp, r5 (nextPC=011372)
011376 010246  mov 003652 177632 024006 000057 021646 177622 177616   NZVC1 0000
# 011376 mov r2, -(sp) (nextPC=011400)
011366 010500  mov 000057 177614 024006 000057 021652 003652 177622   NZVC1 0000
# 011366 mov r5, r0 (nextPC=011370)
003560 110300 movb 000144 177614 024006 000141 021656 177640 177630   NZVC1 0000
# 003560 movb r3, r0 (nextPC=003562)
011400 005746  tst 006204 177632 023762 021646 023772 177640 177632   NZVC1 0000
# 011400 tst -(sp) (nextPC=011402)
[pid 4] TRAP
[pid 4] trap 021470 exec("/etc/update", 024004) [006204 177632 023762 021646 023772 177622 177622 007766] [021646 024004]
[pid 4] trap DONE 021470 exec("/etc/update", 024004) [000000 000000 000000 000000 000000 000000 177756 000000] [021646 024004]
[pid 4] exec("/etc/update", 024004)
000000 104402 trap 000000 000000 000000 000000 000000 000000 177756   NZVC1 0100
# 000000 trap 2 (nextPC=000002)
[pid 4] TRAP
[pid 4] trap 000002 fork() [000000 000000 000000 000000 000000 000000 177756 000002] []
[pid 4] fork -> 5
[pid 4] trap DONE 000002 fork() [000005 000000 000000 000000 000000 000000 177756 000004] []
[pid 4] fork() = 5
000004 104401 trap 000005 000000 000000 000000 000000 000000 177756   NZVC1 0100
# 000004 trap 1 (nextPC=000006)
[pid 4] TRAP
[pid 4] trap 000006 exit(5) [000005 000000 000000 000000 000000 000000 177756 000006] []
000002 000401   br 000004 000000 000000 000000 000000 000000 177756   NZVC1 0100
# 000002 br 6 (nextPC=000004)
[pid 5] TRAP
[pid 5] trap 000012 close(0) [000000 000000 000000 000000 000000 000000 177756 000012] []
[pid 5] trap DONE 000012 close(0) [000000 000000 000000 000000 000000 000000 177756 000012] []
[pid 5] close(0)
000012 012700  mov 000000 000000 000000 000000 000000 000000 177756   NZVC1 0100
# 000012 mov #1, r0 (nextPC=000016)
[pid 5] TRAP
[pid 5] trap 000020 close(1) [000001 000000 000000 000000 000000 000000 177756 000020] []
[pid 5] trap DONE 000020 close(1) [000001 000000 000000 000000 000000 000000 177756 000020] []
[pid 5] close(1)
000020 012700  mov 000001 000000 000000 000000 000000 000000 177756   NZVC1 0000
# 000020 mov #2, r0 (nextPC=000024)
[pid 5] TRAP
[pid 5] trap 000026 close(2) [000002 000000 000000 000000 000000 000000 177756 000026] []
[pid 5] trap DONE 000026 close(2) [000002 000000 000000 000000 000000 000000 177756 000026] []
[pid 5] close(2)
000026 104444 trap 000002 000000 000000 000000 000000 000000 177756   NZVC1 0000
# 000026 trap 44 (nextPC=000030)
[pid 5] TRAP
[pid 5] trap 000030 sync() [000002 000000 000000 000000 000000 000000 177756 000030] []
[pid 5] trap DONE 000030 sync() [000002 000000 000000 000000 000000 000000 177756 000030] []
[pid 5] sync()
000030 012700  mov 000002 000000 000000 000000 000000 000000 177756   NZVC1 0000
# 000030 mov #36, r0 (nextPC=000034)
[pid 5] TRAP
[pid 5] trap 000036 sleep(30) [000036 000000 000000 000000 000000 000000 177756 000036] []
[pid 2] trap DONE 010734 wait() [000004 002400 023762 021646 023772 177622 177620 010734] []
[pid 2] wait() = 4, 002400
010734 103003  bcc 000004 002400 023762 021646 023772 177622 177620   NZVC1 0000
# 010734 bcc 10744 (nextPC=010736)
[pid 2] TRAP
[pid 2] trap 021526 times [007230 002400 021646 000000 000004 177516 177516 010714] [177564]
[pid 2] trap DONE 021526 times [007230 002400 021646 000000 000004 177516 177516 010714] [177564]
[pid 2] times
010714 012605  mov 007230 002400 021646 000000 000004 177516 177516   NZVC1 1000
# 010714 mov (sp)+, r5 (nextPC=010716)
[pid 2] TRAP
[pid 2] trap 010656 time() [007230 002400 021646 000000 000004 177516 177516 010656] []
[pid 2] trap DONE 010656 time() [005221 061502 021646 000000 000004 177516 177516 010656] []
[pid 2] time() = 2705, 25410
010656 010246  mov 005221 061502 021646 000000 000004 177516 177516   NZVC1 1000
# 010656 mov r2, -(sp) (nextPC=010660)
011410 014103  mov 000000 177510 177562 000000 000004 177512 177502   NZVC1 0000
# 011410 mov -(r1), r3 (nextPC=011412)
007440 003365  bgt 177610 177504 021662 021656 000003 177606 177522   NZVC1 0000
# 007440 bgt 7414 (nextPC=007442)
007510 005046  clr 177623 177504 021662 021661 000016 177606 177522   NZVC1 0000
# 007510 clr -(sp) (nextPC=007512)
[pid 2] TRAP
[pid 2] trap 021512 seek(-1, 0, 2) [177777 177504 021662 021661 000016 177512 177512 010216] [000000 000002]
[pid 2] trap DONE 021512 seek(-1, 0, 2) [177777 177504 021662 021661 000016 177512 177512 010216] [000000 000002]
[pid 2] seek(-1, 0, 2): EBADF
010216 103002  bcc 000011 177504 021662 021661 000016 177512 177512   NZVC1 0001
# 010216 bcc 10224 (nextPC=010220)
[pid 2] TRAP
[pid 2] trap 021532 write(-1, "update\x00\x00\x00\x00\x00\x00\x00\x00\x01\x00\x91\nBc\x00\x00\x00\x00\x00\x00\x00\x00\x00\x00\x00\x00") [177777 177504 021662 021661 000016 177512 177512 011010] [177524 000040]
[pid 2] trap DONE 021532 write(-1, "update\x00\x00\x00\x00\x00\x00\x00\x00\x01\x00\x91\nBc\x00\x00\x00\x00\x00\x00\x00\x00\x00\x00\x00\x00") [177777 177504 021662 021661 000016 177512 177512 011010] [177524 000040]
[pid 2] write(-1, "update\x00\x00\x00\x00\x00\x00\x00\x00\x01\x00\x91\nBc\x00\x00\x00\x00\x00\x00\x00\x00\x00\x00\x00\x00"): EBADF
011010 103002  bcc 000011 177504 021662 021661 000016 177512 177512   NZVC1 0001
# 011010 bcc 11016 (nextPC=011012)
001426 103054  bcc 001320 177720 177752 020544 000000 177726 177716   NZVC1 0000
# 001426 bcc 1560 (nextPC=001430)
[pid 2] TRAP
[pid 2] trap 021504 read(0, 177702, 1) [000000 177720 177752 020544 000000 177670 177670 010154] [177702 000001]
[pid 2] trap DONE 021504 read(0, 177702, 1) [000000 177720 177752 020544 000000 177670 177670 010154] [177702 000001]
[pid 2] read(0, 177702, 1) = "\xea"
010154 103002  bcc 000000 177720 177752 020544 000000 177670 177670   NZVC1 0000
# 010154 bcc 10162 (nextPC=010156)
[pid 2] TRAP
[pid 2] trap 011034 exit(1) [000001 177720 177752 020544 000000 177674 177674 011034] []
[pid 1] trap DONE 003052 wait() [000002 000400 000000 000000 000002 177736 177734 003052] []
[pid 1] wait() = 2, 000400
003052 103003  bcc 000002 000400 000000 000000 000002 177736 177734   NZVC1 0100
# 003052 bcc 3062 (nextPC=003054)
[pid 1] TRAP
[pid 1] trap 020170 create("/etc/utmp", 000644) [000002 000400 000000 000000 000002 177734 177734 002034] [020062 000644]
[pid 1] trap DONE 020170 create("/etc/utmp", 000644) [000003 000400 000000 000000 000002 177734 177734 002034] [020062 000644]
[pid 1] create("/etc/utmp", 000644) = 3
002034 103002  bcc 000003 000400 000000 000000 000002 177734 177734   NZVC1 0000
# 002034 bcc 2042 (nextPC=002036)
[pid 1] TRAP
[pid 1] trap 001774 close(3) [000003 000400 000000 000000 000002 177736 177736 001774] []
[pid 1] trap DONE 001774 close(3) [000003 000400 000000 000000 000002 177736 177736 001774] []
[pid 1] close(3)
001774 103002  bcc 000003 000400 000000 000000 000002 177736 177736   NZVC1 0000
# 001774 bcc 2002 (nextPC=001776)
[pid 1] TRAP
[pid 1] trap 020210 open("/usr/adm/wtmp", 1) [000000 000400 000000 000000 000002 177734 177734 002252] [020074 000001]
[pid 1] trap DONE 020210 open("/usr/adm/wtmp", 1) [000000 000400 000000 000000 000002 177734 177734 002252] [020074 000001]
[pid 1] open("/usr/adm/wtmp", 1): ENOENT
002252 103002  bcc 000002 000400 000000 000000 000002 177734 177734   NZVC1 0001
# 002252 bcc 2260 (nextPC=002254)
[pid 1] TRAP
[pid 1] trap 020232 sig(1, 002532) [003350 002532 000000 000000 177777 177734 177732 002466] [000001 002532]
[pid 1] trap DONE 020232 sig(1, 002532) [000000 002532 000000 000000 177777 177734 177732 002466] [000001 002532]
[pid 1] sig(1, 002532)
002466 103412  bcs 000000 002532 000000 000000 177777 177734 177732   NZVC1 0000
# 002466 bcs 2514 (nextPC=002470)
[pid 1] TRAP
[pid 1] trap 001774 close(0) [000000 002532 000000 000000 000000 177736 177736 001774] []
[pid 1] trap DONE 001774 close(0) [000000 002532 000000 000000 000000 177736 177736 001774] []
[pid 1] close(0)
001774 103002  bcc 000000 002532 000000 000000 000000 177736 177736   NZVC1 0100
# 001774 bcc 2002 (nextPC=001776)
[pid 1] TRAP
[pid 1] trap 001774 close(1) [000001 002532 000000 000000 000001 177736 177736 001774] []
[pid 1] trap DONE 001774 close(1) [000001 002532 000000 000000 000001 177736 177736 001774] []
[pid 1] close(1)
001774 103002  bcc 000001 002532 000000 000000 000001 177736 177736   NZVC1 0000
# 001774 bcc 2002 (nextPC=001776)
[pid 1] TRAP
[pid 1] trap 001774 close(2) [000002 002532 000000 000000 000002 177736 177736 001774] []
[pid 1] trap DONE 001774 close(2) [000002 002532 000000 000000 000002 177736 177736 001774] []
[pid 1] close(2)
001774 103002  bcc 000002 002532 000000 000000 000002 177736 177736   NZVC1 0000
# 001774 bcc 2002 (nextPC=001776)
[pid 1] TRAP
[pid 1] trap 001774 close(3) [000003 002532 000000 000000 000003 177736 177736 001774] []
[pid 1] trap DONE 001774 close(3) [000003 002532 000000 000000 000003 177736 177736 001774] []
[pid 1] close(3): EBADF
001774 103002  bcc 000011 002532 000000 000000 000003 177736 177736   NZVC1 0001
# 001774 bcc 2002 (nextPC=001776)
[pid 1] TRAP
[pid 1] trap 001774 close(4) [000004 002532 000000 000000 000004 177736 177736 001774] []
[pid 1] trap DONE 001774 close(4) [000004 002532 000000 000000 000004 177736 177736 001774] []
[pid 1] close(4): EBADF
001774 103002  bcc 000011 002532 000000 000000 000004 177736 177736   NZVC1 0001
# 001774 bcc 2002 (nextPC=001776)
[pid 1] TRAP
[pid 1] trap 001774 close(5) [000005 002532 000000 000000 000005 177736 177736 001774] []
[pid 1] trap DONE 001774 close(5) [000005 002532 000000 000000 000005 177736 177736 001774] []
[pid 1] close(5): EBADF
001774 103002  bcc 000011 002532 000000 000000 000005 177736 177736   NZVC1 0001
# 001774 bcc 2002 (nextPC=001776)
[pid 1] TRAP
[pid 1] trap 001774 close(6) [000006 002532 000000 000000 000006 177736 177736 001774] []
[pid 1] trap DONE 001774 close(6) [000006 002532 000000 000000 000006 177736 177736 001774] []
[pid 1] close(6): EBADF
001774 103002  bcc 000011 002532 000000 000000 000006 177736 177736   NZVC1 0001
# 001774 bcc 2002 (nextPC=001776)
[pid 1] TRAP
[pid 1] trap 001774 close(7) [000007 002532 000000 000000 000007 177736 177736 001774] []
[pid 1] trap DONE 001774 close(7) [000007 002532 000000 000000 000007 177736 177736 001774] []
[pid 1] close(7): EBADF
001774 103002  bcc 000011 002532 000000 000000 000007 177736 177736   NZVC1 0001
# 001774 bcc 2002 (nextPC=001776)
[pid 1] TRAP
[pid 1] trap 001774 close(8) [000010 002532 000000 000000 000010 177736 177736 001774] []
[pid 1] trap DONE 001774 close(8) [000010 002532 000000 000000 000010 177736 177736 001774] []
[pid 1] close(8): EBADF
001774 103002  bcc 000011 002532 000000 000000 000010 177736 177736   NZVC1 0001
# 001774 bcc 2002 (nextPC=001776)
[pid 1] TRAP
[pid 1] trap 001774 close(9) [000011 002532 000000 000000 000011 177736 177736 001774] []
[pid 1] trap DONE 001774 close(9) [000011 002532 000000 000000 000011 177736 177736 001774] []
[pid 1] close(9): EBADF
001774 103002  bcc 000011 002532 000000 000000 000011 177736 177736   NZVC1 0001
# 001774 bcc 2002 (nextPC=001776)
[pid 1] TRAP
[pid 1] trap 002164 csw() [177777 002532 000000 000000 000012 177736 177736 002164] []
[pid 1] trap DONE 002164 csw() [000000 002532 000000 000000 000012 177736 177736 002164] []
[pid 1] csw()
002164 012605  mov 000000 002532 000000 000000 000012 177736 177736   NZVC1 1000
# 002164 mov (sp)+, r5 (nextPC=002166)
[pid 1] TRAP
[pid 1] trap 020210 open("/etc/ttys", 0) [000000 020006 000000 000000 000012 177734 177734 002252] [020050 000000]
[pid 1] trap DONE 020210 open("/etc/ttys", 0) [000000 020006 000000 000000 000012 177734 177734 002252] [020050 000000]
[pid 1] open("/etc/ttys", 0) = 0
002252 103002  bcc 000000 020006 000000 000000 000012 177734 177734   NZVC1 0100
# 002252 bcc 2260 (nextPC=002254)
[pid 1] TRAP
[pid 1] trap 020216 read(0, 020512, 4) [000000 020006 020276 000000 000012 177716 177716 002314] [020512 000004]
[pid 1] trap DONE 020216 read(0, 020512, 4) [000004 020006 020276 000000 000012 177716 177716 002314] [020512 000004]
[pid 1] read(0, 020512, 4) = "10-\n"
002314 103002  bcc 000004 020006 020276 000000 000012 177716 177716   NZVC1 0000
# 002314 bcc 2322 (nextPC=002316)
[pid 1] TRAP
[pid 1] trap 020216 read(0, 020512, 4) [000000 177730 020304 020276 000000 177716 177716 002314] [020512 000004]
[pid 1] trap DONE 020216 read(0, 020512, 4) [000004 177730 020304 020276 000000 177716 177716 002314] [020512 000004]
[pid 1] read(0, 020512, 4) = "110\n"
002314 103002  bcc 000004 177730 020304 020276 000000 177716 177716   NZVC1 0000
# 002314 bcc 2322 (nextPC=002316)
[pid 1] TRAP
[pid 1] trap 020216 read(0, 020512, 4) [000000 177730 020312 020304 000000 177716 177716 002314] [020512 000004]
[pid 1] trap DONE 020216 read(0, 020512, 4) [000004 177730 020312 020304 000000 177716 177716 002314] [020512 000004]
[pid 1] read(0, 020512, 4) = "120\n"
002314 103002  bcc 000004 177730 020312 020304 000000 177716 177716   NZVC1 0000
# 002314 bcc 2322 (nextPC=002316)
[pid 1] TRAP
[pid 1] trap 020216 read(0, 020512, 4) [000000 177730 020320 020312 000000 177716 177716 002314] [020512 000004]
[pid 1] trap DONE 020216 read(0, 020512, 4) [000004 177730 020320 020312 000000 177716 177716 002314] [020512 000004]
[pid 1] read(0, 020512, 4) = "130\n"
002314 103002  bcc 000004 177730 020320 020312 000000 177716 177716   NZVC1 0000
# 002314 bcc 2322 (nextPC=002316)
[pid 1] TRAP
[pid 1] trap 020216 read(0, 020512, 4) [000000 177730 020326 020320 000000 177716 177716 002314] [020512 000004]
[pid 1] trap DONE 020216 read(0, 020512, 4) [000004 177730 020326 020320 000000 177716 177716 002314] [020512 000004]
[pid 1] read(0, 020512, 4) = "040\n"
002314 103002  bcc 000004 177730 020326 020320 000000 177716 177716   NZVC1 0000
# 002314 bcc 2322 (nextPC=002316)
[pid 1] TRAP
[pid 1] trap 020216 read(0, 020512, 4) [000000 177730 020326 020320 000000 177716 177716 002314] [020512 000004]
[pid 1] trap DONE 020216 read(0, 020512, 4) [000004 177730 020326 020320 000000 177716 177716 002314] [020512 000004]
[pid 1] read(0, 020512, 4) = "050\n"
002314 103002  bcc 000004 177730 020326 020320 000000 177716 177716   NZVC1 0000
# 002314 bcc 2322 (nextPC=002316)
[pid 1] TRAP
[pid 1] trap 020216 read(0, 020512, 4) [000000 177730 020326 020320 000000 177716 177716 002314] [020512 000004]
[pid 1] trap DONE 020216 read(0, 020512, 4) [000004 177730 020326 020320 000000 177716 177716 002314] [020512 000004]
[pid 1] read(0, 020512, 4) = "060\n"
002314 103002  bcc 000004 177730 020326 020320 000000 177716 177716   NZVC1 0000
# 002314 bcc 2322 (nextPC=002316)
[pid 1] TRAP
[pid 1] trap 020216 read(0, 020512, 4) [000000 177730 020326 020320 000000 177716 177716 002314] [020512 000004]
[pid 1] trap DONE 020216 read(0, 020512, 4) [000004 177730 020326 020320 000000 177716 177716 002314] [020512 000004]
[pid 1] read(0, 020512, 4) = "070\n"
002314 103002  bcc 000004 177730 020326 020320 000000 177716 177716   NZVC1 0000
# 002314 bcc 2322 (nextPC=002316)
[pid 1] TRAP
[pid 1] trap 020216 read(0, 020512, 4) [000000 177730 020326 020320 000000 177716 177716 002314] [020512 000004]
[pid 1] trap DONE 020216 read(0, 020512, 4) [000004 177730 020326 020320 000000 177716 177716 002314] [020512 000004]
[pid 1] read(0, 020512, 4) = "18-\n"
002314 103002  bcc 000004 177730 020326 020320 000000 177716 177716   NZVC1 0000
# 002314 bcc 2322 (nextPC=002316)
[pid 1] TRAP
[pid 1] trap 020216 read(0, 020512, 4) [000000 177730 020334 020326 000000 177716 177716 002314] [020512 000004]
[pid 1] trap DONE 020216 read(0, 020512, 4) [000000 177730 020334 020326 000000 177716 177716 002314] [020512 000004]
[pid 1] read(0, 020512, 4) = "18-\n"
002314 103002  bcc 000000 177730 020334 020326 000000 177716 177716   NZVC1 0000
# 002314 bcc 2322 (nextPC=002316)
[pid 1] TRAP
[pid 1] trap 001774 close(0) [000000 177730 020334 020326 000000 177736 177736 001774] []
[pid 1] trap DONE 001774 close(0) [000000 177730 020334 020326 000000 177736 177736 001774] []
[pid 1] close(0)
001774 103002  bcc 000000 177730 020334 020326 000000 177736 177736   NZVC1 0100
# 001774 bcc 2002 (nextPC=001776)
001122 005064  clr 001066 177730 020356 020326 020356 177736 177726   NZVC1 0100
# 001122 clr 2(r4) (nextPC=001126)
001066 016504  mov 001066 177730 020406 020326 000000 177736 177726   NZVC1 0000
# 001066 mov 4(r5), r4 (nextPC=001072)
003374 010346  mov 001066 177730 020436 020326 000000 177736 177734   NZVC1 0100
# 003374 mov r3, -(sp) (nextPC=003376)
000732 001405  beq 001066 177730 020466 020276 000000 177752 177742   NZVC1 0000
# 000732 beq 746 (nextPC=000734)
[pid 1] TRAP
[pid 1] trap 002134 fork() [001246 177730 020276 020276 000000 177722 177722 002134] []
[pid 1] fork -> 6
[pid 1] trap DONE 002134 fork() [000006 177730 020276 020276 000000 177722 177722 002136] []
[pid 1] fork() = 6
002136 103005  bcc 000006 177730 020276 020276 000000 177722 177722   NZVC1 1000
# 002136 bcc 2152 (nextPC=002140)
[pid 1] TRAP
[pid 1] trap 002134 fork() [001246 177730 020304 020304 000000 177722 177722 002134] []
[pid 1] fork -> 7
[pid 1] trap DONE 002134 fork() [000007 177730 020304 020304 000000 177722 177722 002136] []
[pid 1] fork() = 7
002136 103005  bcc 000007 177730 020304 020304 000000 177722 177722   NZVC1 1000
# 002136 bcc 2152 (nextPC=002140)
[pid 1] TRAP
[pid 1] trap 002134 fork() [001246 177730 020312 020312 000000 177722 177722 002134] []
[pid 1] fork -> 8
[pid 1] trap DONE 002134 fork() [000010 177730 020312 020312 000000 177722 177722 002136] []
[pid 1] fork() = 8
002136 103005  bcc 000010 177730 020312 020312 000000 177722 177722   NZVC1 1000
# 002136 bcc 2152 (nextPC=002140)
[pid 1] TRAP
[pid 1] trap 002134 fork() [001246 177730 020320 020320 000000 177722 177722 002134] []
[pid 1] fork -> 9
[pid 1] trap DONE 002134 fork() [000011 177730 020320 020320 000000 177722 177722 002136] []
[pid 1] fork() = 9
002136 103005  bcc 000011 177730 020320 020320 000000 177722 177722   NZVC1 1000
# 002136 bcc 2152 (nextPC=002140)
[pid 1] TRAP
[pid 1] trap 002134 fork() [001246 177730 020326 020326 000000 177722 177722 002134] []
[pid 1] fork -> 10
[pid 1] trap DONE 002134 fork() [000012 177730 020326 020326 000000 177722 177722 002136] []
[pid 1] fork() = 10
002136 103005  bcc 000012 177730 020326 020326 000000 177722 177722   NZVC1 1000
# 002136 bcc 2152 (nextPC=002140)
003164 026167  cmp 000000 000764 020466 020466 000000 177732 177732   NZVC1 0100
# 003164 cmp -4(r1), 20244 (nextPC=003172)
[pid 1] TRAP
[pid 1] trap 003052 wait() [000000 000764 020466 020466 000000 177736 177734 003052] []
002134 000403   br 000001 177730 020276 020276 000000 177722 177722   NZVC1 1000
# 002134 br 2144 (nextPC=002136)
[pid 6] TRAP
[pid 6] trap 020232 sig(1, 000000) [000000 000002 020276 020276 000000 177720 177716 002466] [000001 000000]
[pid 6] trap DONE 020232 sig(1, 000000) [002532 000002 020276 020276 000000 177720 177716 002466] [000001 000000]
[pid 6] sig(1, 000000)
002466 103412  bcs 002532 000002 020276 020276 000000 177720 177716   NZVC1 0100
# 002466 bcs 2514 (nextPC=002470)
[pid 6] TRAP
[pid 6] trap 020162 chown("/dev/tty0", 000000) [003350 000002 020276 020126 000000 177720 177720 001746] [020126 000000]
[pid 6] trap DONE 020162 chown("/dev/tty0", 000000) [003350 000002 020276 020126 000000 177720 177720 001746] [020126 000000]
[pid 6] chown("/dev/tty0", 000000)
001746 103002  bcc 003350 000002 020276 020126 000000 177720 177720   NZVC1 0100
# 001746 bcc 1754 (nextPC=001750)
[pid 6] TRAP
[pid 6] trap 020154 chmod("/dev/tty0", 000622) [000000 000002 020276 020126 000000 177720 177720 001706] [020126 000622]
[pid 6] trap DONE 020154 chmod("/dev/tty0", 000622) [000000 000002 020276 020126 000000 177720 177720 001706] [020126 000622]
[pid 6] chmod("/dev/tty0", 000622)
001706 103002  bcc 000000 000002 020276 020126 000000 177720 177720   NZVC1 0000
# 001706 bcc 1714 (nextPC=001710)
[pid 6] TRAP
[pid 6] trap 020210 open("/dev/tty0", 2) [000000 000002 020276 020126 000000 177720 177720 002252] [020126 000002]
[pid 6] trap DONE 020210 open("/dev/tty0", 2) [000000 000002 020276 020126 000000 177720 177720 002252] [020126 000002]
[pid 6] open("/dev/tty0", 2) = 0
002252 103002  bcc 000000 000002 020276 020126 000000 177720 177720   NZVC1 0000
# 002252 bcc 2260 (nextPC=002254)
[pid 6] TRAP
[pid 6] trap 002060 dup(0) [000000 000002 020276 020126 000000 177722 177722 002060] []
[pid 6] trap DONE 002060 dup(0) [000001 000002 020276 020126 000000 177722 177722 002060] []
[pid 6] dup(0) = 1
002060 103002  bcc 000001 000002 020276 020126 000000 177722 177722   NZVC1 0100
# 002060 bcc 2066 (nextPC=002062)
[pid 6] TRAP
[pid 6] trap 020176 exec("etc/getty", 177722) [177722 000002 020276 020126 000000 177714 177714 002122] [020140 177722]
[pid 6] trap DONE 020176 exec("etc/getty", 177722) [000000 000000 000000 000000 000000 000000 177764 000000] [020140 177722]
[pid 6] exec("etc/getty", 177722)
000000 170011 setd 000000 000000 000000 000000 000000 000000 177764   NZVC1 1000
# 000000 setd (nextPC=000002)
[pid 6] TRAP
[pid 6] trap 020302 stty(0, 020312) [000000 000000 000000 000055 020052 177740 177740 001114] [020312]
[pid 6] trap DONE 020302 stty(0, 020312) [000000 000000 000000 000055 020052 177740 177740 001114] [020312]
[pid 6] stty(0, 020312)
001114 103002  bcc 000000 000000 000000 000055 020052 177740 177740   NZVC1 0000
# 001114 bcc 1122 (nextPC=001116)
[pid 6] TRAP
[pid 6] trap 020306 write(1, "\n") [000001 000000 000000 000055 020173 177722 177722 001160] [020172 000001]
[pid 6] trap DONE 020306 write(1, "\n") [000000 000000 000000 000055 020173 177722 177722 001160] [020172 000001]
[pid 6] write(1, "\n"): EIO
001160 103002  bcc 000005 000000 000000 000055 020173 177722 177722   NZVC1 0001
# 001160 bcc 1166 (nextPC=001162)
[pid 6] TRAP
[pid 6] trap 020306 write(1, "\r") [000001 000000 000000 000055 020174 177722 177722 001160] [020173 000001]
[pid 6] trap DONE 020306 write(1, "\r") [000000 000000 000000 000055 020174 177722 177722 001160] [020173 000001]
[pid 6] write(1, "\r"): EIO
001160 103002  bcc 000005 000000 000000 000055 020174 177722 177722   NZVC1 0001
# 001160 bcc 1166 (nextPC=001162)
[pid 6] TRAP
[pid 6] trap 020306 write(1, "l") [000001 000000 000000 000055 020175 177722 177722 001160] [020174 000001]
[pid 6] trap DONE 020306 write(1, "l") [000000 000000 000000 000055 020175 177722 177722 001160] [020174 000001]
[pid 6] write(1, "l"): EIO
001160 103002  bcc 000005 000000 000000 000055 020175 177722 177722   NZVC1 0001
# 001160 bcc 1166 (nextPC=001162)
[pid 6] TRAP
[pid 6] trap 020306 write(1, "o") [000001 000000 000000 000055 020176 177722 177722 001160] [020175 000001]
[pid 6] trap DONE 020306 write(1, "o") [000000 000000 000000 000055 020176 177722 177722 001160] [020175 000001]
[pid 6] write(1, "o"): EIO
001160 103002  bcc 000005 000000 000000 000055 020176 177722 177722   NZVC1 0001
# 001160 bcc 1166 (nextPC=001162)
[pid 6] TRAP
[pid 6] trap 020306 write(1, "g") [000001 000000 000000 000055 020177 177722 177722 001160] [020176 000001]
[pid 6] trap DONE 020306 write(1, "g") [000000 000000 000000 000055 020177 177722 177722 001160] [020176 000001]
[pid 6] write(1, "g"): EIO
001160 103002  bcc 000005 000000 000000 000055 020177 177722 177722   NZVC1 0001
# 001160 bcc 1166 (nextPC=001162)
[pid 6] TRAP
[pid 6] trap 020306 write(1, "i") [000001 000000 000000 000055 020200 177722 177722 001160] [020177 000001]
[pid 6] trap DONE 020306 write(1, "i") [000000 000000 000000 000055 020200 177722 177722 001160] [020177 000001]
[pid 6] write(1, "i"): EIO
001160 103002  bcc 000005 000000 000000 000055 020200 177722 177722   NZVC1 0001
# 001160 bcc 1166 (nextPC=001162)
[pid 6] TRAP
[pid 6] trap 020306 write(1, "n") [000001 000000 000000 000055 020201 177722 177722 001160] [020200 000001]
[pid 6] trap DONE 020306 write(1, "n") [000000 000000 000000 000055 020201 177722 177722 001160] [020200 000001]
[pid 6] write(1, "n"): EIO
001160 103002  bcc 000005 000000 000000 000055 020201 177722 177722   NZVC1 0001
# 001160 bcc 1166 (nextPC=001162)
[pid 6] TRAP
[pid 6] trap 020306 write(1, ":") [000001 000000 000000 000055 020202 177722 177722 001160] [020201 000001]
[pid 6] trap DONE 020306 write(1, ":") [000000 000000 000000 000055 020202 177722 177722 001160] [020201 000001]
[pid 6] write(1, ":"): EIO
001160 103002  bcc 000005 000000 000000 000055 020202 177722 177722   NZVC1 0001
# 001160 bcc 1166 (nextPC=001162)
[pid 6] TRAP
[pid 6] trap 020306 write(1, " ") [000001 000000 000000 000055 020203 177722 177722 001160] [020202 000001]
[pid 6] trap DONE 020306 write(1, " ") [000000 000000 000000 000055 020203 177722 177722 001160] [020202 000001]
[pid 6] write(1, " "): EIO
001160 103002  bcc 000005 000000 000000 000055 020203 177722 177722   NZVC1 0001
# 001160 bcc 1166 (nextPC=001162)
[pid 6] TRAP
[pid 6] trap 020302 stty(0, 020312) [000000 177734 000000 000055 020052 177740 177740 001114] [020312]
[pid 6] trap DONE 020302 stty(0, 020312) [000000 177734 000000 000055 020052 177740 177740 001114] [020312]
[pid 6] stty(0, 020312)
001114 103002  bcc 000000 177734 000000 000055 020052 177740 177740   NZVC1 0000
# 001114 bcc 1122 (nextPC=001116)
[pid 6] TRAP
[pid 6] trap 020274 read(0, 020352, 1) [000000 177734 000000 000055 020320 177722 177722 001060] [020352 000001]
002134 000403   br 000001 177730 020304 020304 000000 177722 177722   NZVC1 1000
# 002134 br 2144 (nextPC=002136)
[pid 7] TRAP
[pid 7] trap 020232 sig(1, 000000) [000000 000002 020304 020304 000000 177720 177716 002466] [000001 000000]
[pid 7] trap DONE 020232 sig(1, 000000) [002532 000002 020304 020304 000000 177720 177716 002466] [000001 000000]
[pid 7] sig(1, 000000)
002466 103412  bcs 002532 000002 020304 020304 000000 177720 177716   NZVC1 0100
# 002466 bcs 2514 (nextPC=002470)
[pid 7] TRAP
[pid 7] trap 020162 chown("/dev/tty1", 000000) [003350 000002 020304 020126 000000 177720 177720 001746] [020126 000000]
[pid 7] trap DONE 020162 chown("/dev/tty1", 000000) [003350 000002 020304 020126 000000 177720 177720 001746] [020126 000000]
[pid 7] chown("/dev/tty1", 000000)
001746 103002  bcc 003350 000002 020304 020126 000000 177720 177720   NZVC1 0100
# 001746 bcc 1754 (nextPC=001750)
[pid 7] TRAP
[pid 7] trap 020154 chmod("/dev/tty1", 000622) [000000 000002 020304 020126 000000 177720 177720 001706] [020126 000622]
[pid 7] trap DONE 020154 chmod("/dev/tty1", 000622) [000000 000002 020304 020126 000000 177720 177720 001706] [020126 000622]
[pid 7] chmod("/dev/tty1", 000622)
001706 103002  bcc 000000 000002 020304 020126 000000 177720 177720   NZVC1 0000
# 001706 bcc 1714 (nextPC=001710)
[pid 7] TRAP
[pid 7] trap 020210 open("/dev/tty1", 2) [000000 000002 020304 020126 000000 177720 177720 002252] [020126 000002]
[pid 7] trap DONE 020210 open("/dev/tty1", 2) [000000 000002 020304 020126 000000 177720 177720 002252] [020126 000002]
[pid 7] open("/dev/tty1", 2) = 0
002252 103002  bcc 000000 000002 020304 020126 000000 177720 177720   NZVC1 0000
# 002252 bcc 2260 (nextPC=002254)
[pid 7] TRAP
[pid 7] trap 002060 dup(0) [000000 000002 020304 020126 000000 177722 177722 002060] []
[pid 7] trap DONE 002060 dup(0) [000001 000002 020304 020126 000000 177722 177722 002060] []
[pid 7] dup(0) = 1
002060 103002  bcc 000001 000002 020304 020126 000000 177722 177722   NZVC1 0100
# 002060 bcc 2066 (nextPC=002062)
[pid 7] TRAP
[pid 7] trap 020176 exec("etc/getty", 177722) [177722 000002 020304 020126 000000 177714 177714 002122] [020140 177722]
[pid 7] trap DONE 020176 exec("etc/getty", 177722) [000000 000000 000000 000000 000000 000000 177764 000000] [020140 177722]
[pid 7] exec("etc/getty", 177722)
000000 170011 setd 000000 000000 000000 000000 000000 000000 177764   NZVC1 1000
# 000000 setd (nextPC=000002)
[pid 7] TRAP
[pid 7] trap 020302 stty(0, 020312) [000000 000000 000000 000060 020000 177740 177740 001114] [020312]
[pid 7] trap DONE 020302 stty(0, 020312) [000000 000000 000000 000060 020000 177740 177740 001114] [020312]
[pid 7] stty(0, 020312)
001114 103002  bcc 000000 000000 000000 000060 020000 177740 177740   NZVC1 0000
# 001114 bcc 1122 (nextPC=001116)
[pid 7] TRAP
[pid 7] trap 020306 write(1, "\n") [000001 000000 000000 000060 020125 177722 177722 001160] [020124 000001]
[pid 7] trap DONE 020306 write(1, "\n") [000000 000000 000000 000060 020125 177722 177722 001160] [020124 000001]
[pid 7] write(1, "\n"): EIO
001160 103002  bcc 000005 000000 000000 000060 020125 177722 177722   NZVC1 0001
# 001160 bcc 1166 (nextPC=001162)
[pid 7] TRAP
[pid 7] trap 020306 write(1, "\r") [000001 000000 000000 000060 020126 177722 177722 001160] [020125 000001]
[pid 7] trap DONE 020306 write(1, "\r") [000000 000000 000000 000060 020126 177722 177722 001160] [020125 000001]
[pid 7] write(1, "\r"): EIO
001160 103002  bcc 000005 000000 000000 000060 020126 177722 177722   NZVC1 0001
# 001160 bcc 1166 (nextPC=001162)
[pid 7] TRAP
[pid 7] trap 020306 write(1, "\x1b") [000001 000000 000000 000060 020127 177722 177722 001160] [020126 000001]
[pid 7] trap DONE 020306 write(1, "\x1b") [000000 000000 000000 000060 020127 177722 177722 001160] [020126 000001]
[pid 7] write(1, "\x1b"): EIO
001160 103002  bcc 000005 000000 000000 000060 020127 177722 177722   NZVC1 0001
# 001160 bcc 1166 (nextPC=001162)
[pid 7] TRAP
[pid 7] trap 020306 write(1, ";") [000001 000000 000000 000060 020130 177722 177722 001160] [020127 000001]
[pid 7] trap DONE 020306 write(1, ";") [000000 000000 000000 000060 020130 177722 177722 001160] [020127 000001]
[pid 7] write(1, ";"): EIO
001160 103002  bcc 000005 000000 000000 000060 020130 177722 177722   NZVC1 0001
# 001160 bcc 1166 (nextPC=001162)
[pid 7] TRAP
[pid 7] trap 020306 write(1, "\a") [000001 000000 000000 000060 020131 177722 177722 001160] [020130 000001]
[pid 7] trap DONE 020306 write(1, "\a") [000000 000000 000000 000060 020131 177722 177722 001160] [020130 000001]
[pid 7] write(1, "\a"): EIO
001160 103002  bcc 000005 000000 000000 000060 020131 177722 177722   NZVC1 0001
# 001160 bcc 1166 (nextPC=001162)
[pid 7] TRAP
[pid 7] trap 020306 write(1, "l") [000001 000000 000000 000060 020132 177722 177722 001160] [020131 000001]
[pid 7] trap DONE 020306 write(1, "l") [000000 000000 000000 000060 020132 177722 177722 001160] [020131 000001]
[pid 7] write(1, "l"): EIO
001160 103002  bcc 000005 000000 000000 000060 020132 177722 177722   NZVC1 0001
# 001160 bcc 1166 (nextPC=001162)
[pid 7] TRAP
[pid 7] trap 020306 write(1, "o") [000001 000000 000000 000060 020133 177722 177722 001160] [020132 000001]
[pid 7] trap DONE 020306 write(1, "o") [000000 000000 000000 000060 020133 177722 177722 001160] [020132 000001]
[pid 7] write(1, "o"): EIO
001160 103002  bcc 000005 000000 000000 000060 020133 177722 177722   NZVC1 0001
# 001160 bcc 1166 (nextPC=001162)
[pid 7] TRAP
[pid 7] trap 020306 write(1, "g") [000001 000000 000000 000060 020134 177722 177722 001160] [020133 000001]
[pid 7] trap DONE 020306 write(1, "g") [000000 000000 000000 000060 020134 177722 177722 001160] [020133 000001]
[pid 7] write(1, "g"): EIO
001160 103002  bcc 000005 000000 000000 000060 020134 177722 177722   NZVC1 0001
# 001160 bcc 1166 (nextPC=001162)
[pid 7] TRAP
[pid 7] trap 020306 write(1, "i") [000001 000000 000000 000060 020135 177722 177722 001160] [020134 000001]
[pid 7] trap DONE 020306 write(1, "i") [000000 000000 000000 000060 020135 177722 177722 001160] [020134 000001]
[pid 7] write(1, "i"): EIO
001160 103002  bcc 000005 000000 000000 000060 020135 177722 177722   NZVC1 0001
# 001160 bcc 1166 (nextPC=001162)
[pid 7] TRAP
[pid 7] trap 020306 write(1, "n") [000001 000000 000000 000060 020136 177722 177722 001160] [020135 000001]
[pid 7] trap DONE 020306 write(1, "n") [000000 000000 000000 000060 020136 177722 177722 001160] [020135 000001]
[pid 7] write(1, "n"): EIO
001160 103002  bcc 000005 000000 000000 000060 020136 177722 177722   NZVC1 0001
# 001160 bcc 1166 (nextPC=001162)
[pid 7] TRAP
[pid 7] trap 020306 write(1, ":") [000001 000000 000000 000060 020137 177722 177722 001160] [020136 000001]
[pid 7] trap DONE 020306 write(1, ":") [000000 000000 000000 000060 020137 177722 177722 001160] [020136 000001]
[pid 7] write(1, ":"): EIO
001160 103002  bcc 000005 000000 000000 000060 020137 177722 177722   NZVC1 0001
# 001160 bcc 1166 (nextPC=001162)
[pid 7] TRAP
[pid 7] trap 020306 write(1, " ") [000001 000000 000000 000060 020140 177722 177722 001160] [020137 000001]
[pid 7] trap DONE 020306 write(1, " ") [000000 000000 000000 000060 020140 177722 177722 001160] [020137 000001]
[pid 7] write(1, " "): EIO
001160 103002  bcc 000005 000000 000000 000060 020140 177722 177722   NZVC1 0001
# 001160 bcc 1166 (nextPC=001162)
[pid 7] TRAP
[pid 7] trap 020302 stty(0, 020312) [000000 177734 000000 000060 020000 177740 177740 001114] [020312]
[pid 7] trap DONE 020302 stty(0, 020312) [000000 177734 000000 000060 020000 177740 177740 001114] [020312]
[pid 7] stty(0, 020312)
001114 103002  bcc 000000 177734 000000 000060 020000 177740 177740   NZVC1 0000
# 001114 bcc 1122 (nextPC=001116)
[pid 7] TRAP
[pid 7] trap 020274 read(0, 020352, 1) [000000 177734 000000 000060 020320 177722 177722 001060] [020352 000001]
002134 000403   br 000001 177730 020312 020312 000000 177722 177722   NZVC1 1000
# 002134 br 2144 (nextPC=002136)
[pid 8] TRAP
[pid 8] trap 020232 sig(1, 000000) [000000 000002 020312 020312 000000 177720 177716 002466] [000001 000000]
[pid 8] trap DONE 020232 sig(1, 000000) [002532 000002 020312 020312 000000 177720 177716 002466] [000001 000000]
[pid 8] sig(1, 000000)
002466 103412  bcs 002532 000002 020312 020312 000000 177720 177716   NZVC1 0100
# 002466 bcs 2514 (nextPC=002470)
[pid 8] TRAP
[pid 8] trap 020162 chown("/dev/tty2", 000000) [003350 000002 020312 020126 000000 177720 177720 001746] [020126 000000]
[pid 8] trap DONE 020162 chown("/dev/tty2", 000000) [003350 000002 020312 020126 000000 177720 177720 001746] [020126 000000]
[pid 8] chown("/dev/tty2", 000000)
001746 103002  bcc 003350 000002 020312 020126 000000 177720 177720   NZVC1 0100
# 001746 bcc 1754 (nextPC=001750)
[pid 8] TRAP
[pid 8] trap 020154 chmod("/dev/tty2", 000622) [000000 000002 020312 020126 000000 177720 177720 001706] [020126 000622]
[pid 8] trap DONE 020154 chmod("/dev/tty2", 000622) [000000 000002 020312 020126 000000 177720 177720 001706] [020126 000622]
[pid 8] chmod("/dev/tty2", 000622)
001706 103002  bcc 000000 000002 020312 020126 000000 177720 177720   NZVC1 0000
# 001706 bcc 1714 (nextPC=001710)
[pid 8] TRAP
[pid 8] trap 020210 open("/dev/tty2", 2) [000000 000002 020312 020126 000000 177720 177720 002252] [020126 000002]
[pid 8] trap DONE 020210 open("/dev/tty2", 2) [000000 000002 020312 020126 000000 177720 177720 002252] [020126 000002]
[pid 8] open("/dev/tty2", 2) = 0
002252 103002  bcc 000000 000002 020312 020126 000000 177720 177720   NZVC1 0000
# 002252 bcc 2260 (nextPC=002254)
[pid 8] TRAP
[pid 8] trap 002060 dup(0) [000000 000002 020312 020126 000000 177722 177722 002060] []
[pid 8] trap DONE 002060 dup(0) [000001 000002 020312 020126 000000 177722 177722 002060] []
[pid 8] dup(0) = 1
002060 103002  bcc 000001 000002 020312 020126 000000 177722 177722   NZVC1 0100
# 002060 bcc 2066 (nextPC=002062)
[pid 8] TRAP
[pid 8] trap 020176 exec("etc/getty", 177722) [177722 000002 020312 020126 000000 177714 177714 002122] [020140 177722]
[pid 8] trap DONE 020176 exec("etc/getty", 177722) [000000 000000 000000 000000 000000 000000 177764 000000] [020140 177722]
[pid 8] exec("etc/getty", 177722)
000000 170011 setd 000000 000000 000000 000000 000000 000000 177764   NZVC1 1000
# 000000 setd (nextPC=000002)
[pid 8] TRAP
[pid 8] trap 020302 stty(0, 020312) [000000 000000 000000 000060 020000 177740 177740 001114] [020312]
[pid 8] trap DONE 020302 stty(0, 020312) [000000 000000 000000 000060 020000 177740 177740 001114] [020312]
[pid 8] stty(0, 020312)
001114 103002  bcc 000000 000000 000000 000060 020000 177740 177740   NZVC1 0000
# 001114 bcc 1122 (nextPC=001116)
[pid 8] TRAP
[pid 8] trap 020306 write(1, "\n") [000001 000000 000000 000060 020125 177722 177722 001160] [020124 000001]
[pid 8] trap DONE 020306 write(1, "\n") [000000 000000 000000 000060 020125 177722 177722 001160] [020124 000001]
[pid 8] write(1, "\n"): EIO
001160 103002  bcc 000005 000000 000000 000060 020125 177722 177722   NZVC1 0001
# 001160 bcc 1166 (nextPC=001162)
[pid 8] TRAP
[pid 8] trap 020306 write(1, "\r") [000001 000000 000000 000060 020126 177722 177722 001160] [020125 000001]
[pid 8] trap DONE 020306 write(1, "\r") [000000 000000 000000 000060 020126 177722 177722 001160] [020125 000001]
[pid 8] write(1, "\r"): EIO
001160 103002  bcc 000005 000000 000000 000060 020126 177722 177722   NZVC1 0001
# 001160 bcc 1166 (nextPC=001162)
[pid 8] TRAP
[pid 8] trap 020306 write(1, "\x1b") [000001 000000 000000 000060 020127 177722 177722 001160] [020126 000001]
[pid 8] trap DONE 020306 write(1, "\x1b") [000000 000000 000000 000060 020127 177722 177722 001160] [020126 000001]
[pid 8] write(1, "\x1b"): EIO
001160 103002  bcc 000005 000000 000000 000060 020127 177722 177722   NZVC1 0001
# 001160 bcc 1166 (nextPC=001162)
[pid 8] TRAP
[pid 8] trap 020306 write(1, ";") [000001 000000 000000 000060 020130 177722 177722 001160] [020127 000001]
[pid 8] trap DONE 020306 write(1, ";") [000000 000000 000000 000060 020130 177722 177722 001160] [020127 000001]
[pid 8] write(1, ";"): EIO
001160 103002  bcc 000005 000000 000000 000060 020130 177722 177722   NZVC1 0001
# 001160 bcc 1166 (nextPC=001162)
[pid 8] TRAP
[pid 8] trap 020306 write(1, "\a") [000001 000000 000000 000060 020131 177722 177722 001160] [020130 000001]
[pid 8] trap DONE 020306 write(1, "\a") [000000 000000 000000 000060 020131 177722 177722 001160] [020130 000001]
[pid 8] write(1, "\a"): EIO
001160 103002  bcc 000005 000000 000000 000060 020131 177722 177722   NZVC1 0001
# 001160 bcc 1166 (nextPC=001162)
[pid 8] TRAP
[pid 8] trap 020306 write(1, "l") [000001 000000 000000 000060 020132 177722 177722 001160] [020131 000001]
[pid 8] trap DONE 020306 write(1, "l") [000000 000000 000000 000060 020132 177722 177722 001160] [020131 000001]
[pid 8] write(1, "l"): EIO
001160 103002  bcc 000005 000000 000000 000060 020132 177722 177722   NZVC1 0001
# 001160 bcc 1166 (nextPC=001162)
[pid 8] TRAP
[pid 8] trap 020306 write(1, "o") [000001 000000 000000 000060 020133 177722 177722 001160] [020132 000001]
[pid 8] trap DONE 020306 write(1, "o") [000000 000000 000000 000060 020133 177722 177722 001160] [020132 000001]
[pid 8] write(1, "o"): EIO
001160 103002  bcc 000005 000000 000000 000060 020133 177722 177722   NZVC1 0001
# 001160 bcc 1166 (nextPC=001162)
[pid 8] TRAP
[pid 8] trap 020306 write(1, "g") [000001 000000 000000 000060 020134 177722 177722 001160] [020133 000001]
[pid 8] trap DONE 020306 write(1, "g") [000000 000000 000000 000060 020134 177722 177722 001160] [020133 000001]
[pid 8] write(1, "g"): EIO
001160 103002  bcc 000005 000000 000000 000060 020134 177722 177722   NZVC1 0001
# 001160 bcc 1166 (nextPC=001162)
[pid 8] TRAP
[pid 8] trap 020306 write(1, "i") [000001 000000 000000 000060 020135 177722 177722 001160] [020134 000001]
[pid 8] trap DONE 020306 write(1, "i") [000000 000000 000000 000060 020135 177722 177722 001160] [020134 000001]
[pid 8] write(1, "i"): EIO
001160 103002  bcc 000005 000000 000000 000060 020135 177722 177722   NZVC1 0001
# 001160 bcc 1166 (nextPC=001162)
[pid 8] TRAP
[pid 8] trap 020306 write(1, "n") [000001 000000 000000 000060 020136 177722 177722 001160] [020135 000001]
[pid 8] trap DONE 020306 write(1, "n") [000000 000000 000000 000060 020136 177722 177722 001160] [020135 000001]
[pid 8] write(1, "n"): EIO
001160 103002  bcc 000005 000000 000000 000060 020136 177722 177722   NZVC1 0001
# 001160 bcc 1166 (nextPC=001162)
[pid 8] TRAP
[pid 8] trap 020306 write(1, ":") [000001 000000 000000 000060 020137 177722 177722 001160] [020136 000001]
[pid 8] trap DONE 020306 write(1, ":") [000000 000000 000000 000060 020137 177722 177722 001160] [020136 000001]
[pid 8] write(1, ":"): EIO
001160 103002  bcc 000005 000000 000000 000060 020137 177722 177722   NZVC1 0001
# 001160 bcc 1166 (nextPC=001162)
[pid 8] TRAP
[pid 8] trap 020306 write(1, " ") [000001 000000 000000 000060 020140 177722 177722 001160] [020137 000001]
[pid 8] trap DONE 020306 write(1, " ") [000000 000000 000000 000060 020140 177722 177722 001160] [020137 000001]
[pid 8] write(1, " "): EIO
001160 103002  bcc 000005 000000 000000 000060 020140 177722 177722   NZVC1 0001
# 001160 bcc 1166 (nextPC=001162)
[pid 8] TRAP
[pid 8] trap 020302 stty(0, 020312) [000000 177734 000000 000060 020000 177740 177740 001114] [020312]
[pid 8] trap DONE 020302 stty(0, 020312) [000000 177734 000000 000060 020000 177740 177740 001114] [020312]
[pid 8] stty(0, 020312)
001114 103002  bcc 000000 177734 000000 000060 020000 177740 177740   NZVC1 0000
# 001114 bcc 1122 (nextPC=001116)
[pid 8] TRAP
[pid 8] trap 020274 read(0, 020352, 1) [000000 177734 000000 000060 020320 177722 177722 001060] [020352 000001]
002134 000403   br 000001 177730 020320 020320 000000 177722 177722   NZVC1 1000
# 002134 br 2144 (nextPC=002136)
[pid 9] TRAP
[pid 9] trap 020232 sig(1, 000000) [000000 000002 020320 020320 000000 177720 177716 002466] [000001 000000]
[pid 9] trap DONE 020232 sig(1, 000000) [002532 000002 020320 020320 000000 177720 177716 002466] [000001 000000]
[pid 9] sig(1, 000000)
002466 103412  bcs 002532 000002 020320 020320 000000 177720 177716   NZVC1 0100
# 002466 bcs 2514 (nextPC=002470)
[pid 9] TRAP
[pid 9] trap 020162 chown("/dev/tty3", 000000) [003350 000002 020320 020126 000000 177720 177720 001746] [020126 000000]
[pid 9] trap DONE 020162 chown("/dev/tty3", 000000) [003350 000002 020320 020126 000000 177720 177720 001746] [020126 000000]
[pid 9] chown("/dev/tty3", 000000)
001746 103002  bcc 003350 000002 020320 020126 000000 177720 177720   NZVC1 0100
# 001746 bcc 1754 (nextPC=001750)
[pid 9] TRAP
[pid 9] trap 020154 chmod("/dev/tty3", 000622) [000000 000002 020320 020126 000000 177720 177720 001706] [020126 000622]
[pid 9] trap DONE 020154 chmod("/dev/tty3", 000622) [000000 000002 020320 020126 000000 177720 177720 001706] [020126 000622]
[pid 9] chmod("/dev/tty3", 000622)
001706 103002  bcc 000000 000002 020320 020126 000000 177720 177720   NZVC1 0000
# 001706 bcc 1714 (nextPC=001710)
[pid 9] TRAP
[pid 9] trap 020210 open("/dev/tty3", 2) [000000 000002 020320 020126 000000 177720 177720 002252] [020126 000002]
[pid 9] trap DONE 020210 open("/dev/tty3", 2) [000000 000002 020320 020126 000000 177720 177720 002252] [020126 000002]
[pid 9] open("/dev/tty3", 2) = 0
002252 103002  bcc 000000 000002 020320 020126 000000 177720 177720   NZVC1 0000
# 002252 bcc 2260 (nextPC=002254)
[pid 9] TRAP
[pid 9] trap 002060 dup(0) [000000 000002 020320 020126 000000 177722 177722 002060] []
[pid 9] trap DONE 002060 dup(0) [000001 000002 020320 020126 000000 177722 177722 002060] []
[pid 9] dup(0) = 1
002060 103002  bcc 000001 000002 020320 020126 000000 177722 177722   NZVC1 0100
# 002060 bcc 2066 (nextPC=002062)
[pid 9] TRAP
[pid 9] trap 020176 exec("etc/getty", 177722) [177722 000002 020320 020126 000000 177714 177714 002122] [020140 177722]
[pid 9] trap DONE 020176 exec("etc/getty", 177722) [000000 000000 000000 000000 000000 000000 177764 000000] [020140 177722]
[pid 9] exec("etc/getty", 177722)
000000 170011 setd 000000 000000 000000 000000 000000 000000 177764   NZVC1 1000
# 000000 setd (nextPC=000002)
[pid 9] TRAP
[pid 9] trap 020302 stty(0, 020312) [000000 000000 000000 000060 020000 177740 177740 001114] [020312]
[pid 9] trap DONE 020302 stty(0, 020312) [000000 000000 000000 000060 020000 177740 177740 001114] [020312]
[pid 9] stty(0, 020312)
001114 103002  bcc 000000 000000 000000 000060 020000 177740 177740   NZVC1 0000
# 001114 bcc 1122 (nextPC=001116)
[pid 9] TRAP
[pid 9] trap 020306 write(1, "\n") [000001 000000 000000 000060 020125 177722 177722 001160] [020124 000001]
[pid 9] trap DONE 020306 write(1, "\n") [000000 000000 000000 000060 020125 177722 177722 001160] [020124 000001]
[pid 9] write(1, "\n"): EIO
001160 103002  bcc 000005 000000 000000 000060 020125 177722 177722   NZVC1 0001
# 001160 bcc 1166 (nextPC=001162)
[pid 9] TRAP
[pid 9] trap 020306 write(1, "\r") [000001 000000 000000 000060 020126 177722 177722 001160] [020125 000001]
[pid 9] trap DONE 020306 write(1, "\r") [000000 000000 000000 000060 020126 177722 177722 001160] [020125 000001]
[pid 9] write(1, "\r"): EIO
001160 103002  bcc 000005 000000 000000 000060 020126 177722 177722   NZVC1 0001
# 001160 bcc 1166 (nextPC=001162)
[pid 9] TRAP
[pid 9] trap 020306 write(1, "\x1b") [000001 000000 000000 000060 020127 177722 177722 001160] [020126 000001]
[pid 9] trap DONE 020306 write(1, "\x1b") [000000 000000 000000 000060 020127 177722 177722 001160] [020126 000001]
[pid 9] write(1, "\x1b"): EIO
001160 103002  bcc 000005 000000 000000 000060 020127 177722 177722   NZVC1 0001
# 001160 bcc 1166 (nextPC=001162)
[pid 9] TRAP
[pid 9] trap 020306 write(1, ";") [000001 000000 000000 000060 020130 177722 177722 001160] [020127 000001]
[pid 9] trap DONE 020306 write(1, ";") [000000 000000 000000 000060 020130 177722 177722 001160] [020127 000001]
[pid 9] write(1, ";"): EIO
001160 103002  bcc 000005 000000 000000 000060 020130 177722 177722   NZVC1 0001
# 001160 bcc 1166 (nextPC=001162)
[pid 9] TRAP
[pid 9] trap 020306 write(1, "\a") [000001 000000 000000 000060 020131 177722 177722 001160] [020130 000001]
[pid 9] trap DONE 020306 write(1, "\a") [000000 000000 000000 000060 020131 177722 177722 001160] [020130 000001]
[pid 9] write(1, "\a"): EIO
001160 103002  bcc 000005 000000 000000 000060 020131 177722 177722   NZVC1 0001
# 001160 bcc 1166 (nextPC=001162)
[pid 9] TRAP
[pid 9] trap 020306 write(1, "l") [000001 000000 000000 000060 020132 177722 177722 001160] [020131 000001]
[pid 9] trap DONE 020306 write(1, "l") [000000 000000 000000 000060 020132 177722 177722 001160] [020131 000001]
[pid 9] write(1, "l"): EIO
001160 103002  bcc 000005 000000 000000 000060 020132 177722 177722   NZVC1 0001
# 001160 bcc 1166 (nextPC=001162)
[pid 9] TRAP
[pid 9] trap 020306 write(1, "o") [000001 000000 000000 000060 020133 177722 177722 001160] [020132 000001]
[pid 9] trap DONE 020306 write(1, "o") [000000 000000 000000 000060 020133 177722 177722 001160] [020132 000001]
[pid 9] write(1, "o"): EIO
001160 103002  bcc 000005 000000 000000 000060 020133 177722 177722   NZVC1 0001
# 001160 bcc 1166 (nextPC=001162)
[pid 9] TRAP
[pid 9] trap 020306 write(1, "g") [000001 000000 000000 000060 020134 177722 177722 001160] [020133 000001]
[pid 9] trap DONE 020306 write(1, "g") [000000 000000 000000 000060 020134 177722 177722 001160] [020133 000001]
[pid 9] write(1, "g"): EIO
001160 103002  bcc 000005 000000 000000 000060 020134 177722 177722   NZVC1 0001
# 001160 bcc 1166 (nextPC=001162)
[pid 9] TRAP
[pid 9] trap 020306 write(1, "i") [000001 000000 000000 000060 020135 177722 177722 001160] [020134 000001]
[pid 9] trap DONE 020306 write(1, "i") [000000 000000 000000 000060 020135 177722 177722 001160] [020134 000001]
[pid 9] write(1, "i"): EIO
001160 103002  bcc 000005 000000 000000 000060 020135 177722 177722   NZVC1 0001
# 001160 bcc 1166 (nextPC=001162)
[pid 9] TRAP
[pid 9] trap 020306 write(1, "n") [000001 000000 000000 000060 020136 177722 177722 001160] [020135 000001]
[pid 9] trap DONE 020306 write(1, "n") [000000 000000 000000 000060 020136 177722 177722 001160] [020135 000001]
[pid 9] write(1, "n"): EIO
001160 103002  bcc 000005 000000 000000 000060 020136 177722 177722   NZVC1 0001
# 001160 bcc 1166 (nextPC=001162)
[pid 9] TRAP
[pid 9] trap 020306 write(1, ":") [000001 000000 000000 000060 020137 177722 177722 001160] [020136 000001]
[pid 9] trap DONE 020306 write(1, ":") [000000 000000 000000 000060 020137 177722 177722 001160] [020136 000001]
[pid 9] write(1, ":"): EIO
001160 103002  bcc 000005 000000 000000 000060 020137 177722 177722   NZVC1 0001
# 001160 bcc 1166 (nextPC=001162)
[pid 9] TRAP
[pid 9] trap 020306 write(1, " ") [000001 000000 000000 000060 020140 177722 177722 001160] [020137 000001]
[pid 9] trap DONE 020306 write(1, " ") [000000 000000 000000 000060 020140 177722 177722 001160] [020137 000001]
[pid 9] write(1, " "): EIO
001160 103002  bcc 000005 000000 000000 000060 020140 177722 177722   NZVC1 0001
# 001160 bcc 1166 (nextPC=001162)
[pid 9] TRAP
[pid 9] trap 020302 stty(0, 020312) [000000 177734 000000 000060 020000 177740 177740 001114] [020312]
[pid 9] trap DONE 020302 stty(0, 020312) [000000 177734 000000 000060 020000 177740 177740 001114] [020312]
[pid 9] stty(0, 020312)
001114 103002  bcc 000000 177734 000000 000060 020000 177740 177740   NZVC1 0000
# 001114 bcc 1122 (nextPC=001116)
[pid 9] TRAP
[pid 9] trap 020274 read(0, 020352, 1) [000000 177734 000000 000060 020320 177722 177722 001060] [020352 000001]
002134 000403   br 000001 177730 020326 020326 000000 177722 177722   NZVC1 1000
# 002134 br 2144 (nextPC=002136)
[pid 10] TRAP
[pid 10] trap 020232 sig(1, 000000) [000000 000002 020326 020326 000000 177720 177716 002466] [000001 000000]
[pid 10] trap DONE 020232 sig(1, 000000) [002532 000002 020326 020326 000000 177720 177716 002466] [000001 000000]
[pid 10] sig(1, 000000)
002466 103412  bcs 002532 000002 020326 020326 000000 177720 177716   NZVC1 0100
# 002466 bcs 2514 (nextPC=002470)
[pid 10] TRAP
[pid 10] trap 020162 chown("/dev/tty8", 000000) [003350 000002 020326 020126 000000 177720 177720 001746] [020126 000000]
[pid 10] trap DONE 020162 chown("/dev/tty8", 000000) [003350 000002 020326 020126 000000 177720 177720 001746] [020126 000000]
[pid 10] chown("/dev/tty8", 000000)
001746 103002  bcc 003350 000002 020326 020126 000000 177720 177720   NZVC1 0100
# 001746 bcc 1754 (nextPC=001750)
[pid 10] TRAP
[pid 10] trap 020154 chmod("/dev/tty8", 000622) [000000 000002 020326 020126 000000 177720 177720 001706] [020126 000622]
[pid 10] trap DONE 020154 chmod("/dev/tty8", 000622) [000000 000002 020326 020126 000000 177720 177720 001706] [020126 000622]
[pid 10] chmod("/dev/tty8", 000622)
001706 103002  bcc 000000 000002 020326 020126 000000 177720 177720   NZVC1 0000
# 001706 bcc 1714 (nextPC=001710)
[pid 10] TRAP
[pid 10] trap 020210 open("/dev/tty8", 2) [000000 000002 020326 020126 000000 177720 177720 002252] [020126 000002]
[pid 10] trap DONE 020210 open("/dev/tty8", 2) [000000 000002 020326 020126 000000 177720 177720 002252] [020126 000002]
[pid 10] open("/dev/tty8", 2) = 0
002252 103002  bcc 000000 000002 020326 020126 000000 177720 177720   NZVC1 0000
# 002252 bcc 2260 (nextPC=002254)
[pid 10] TRAP
[pid 10] trap 002060 dup(0) [000000 000002 020326 020126 000000 177722 177722 002060] []
[pid 10] trap DONE 002060 dup(0) [000001 000002 020326 020126 000000 177722 177722 002060] []
[pid 10] dup(0) = 1
002060 103002  bcc 000001 000002 020326 020126 000000 177722 177722   NZVC1 0100
# 002060 bcc 2066 (nextPC=002062)
[pid 10] TRAP
[pid 10] trap 020176 exec("etc/getty", 177722) [177722 000002 020326 020126 000000 177714 177714 002122] [020140 177722]
[pid 10] trap DONE 020176 exec("etc/getty", 177722) [000000 000000 000000 000000 000000 000000 177764 000000] [020140 177722]
[pid 10] exec("etc/getty", 177722)
000000 170011 setd 000000 000000 000000 000000 000000 000000 177764   NZVC1 1000
# 000000 setd (nextPC=000002)
[pid 10] TRAP
[pid 10] trap 020302 stty(0, 020312) [000000 000000 000000 000055 020052 177740 177740 001114] [020312]
[pid 10] trap DONE 020302 stty(0, 020312) [000000 000000 000000 000055 020052 177740 177740 001114] [020312]
[pid 10] stty(0, 020312)
001114 103002  bcc 000000 000000 000000 000055 020052 177740 177740   NZVC1 0000
# 001114 bcc 1122 (nextPC=001116)
[pid 10] TRAP
[pid 10] trap 020306 write(1, "\n") [000001 000000 000000 000055 020173 177722 177722 001160] [020172 000001]
[pid 10] trap DONE 020306 write(1, "\n") [000001 000000 000000 000055 020173 177722 177722 001160] [020172 000001]
[pid 10] write(1, "\n") = 1
001160 103002  bcc 000001 000000 000000 000055 020173 177722 177722   NZVC1 0000
# 001160 bcc 1166 (nextPC=001162)
[pid 10] TRAP
[pid 10] trap 020306 write(1, "\r") [000001 000000 000000 000055 020174 177722 177722 001160] [020173 000001]
[pid 10] trap DONE 020306 write(1, "\r") [000001 000000 000000 000055 020174 177722 177722 001160] [020173 000001]
[pid 10] write(1, "\r") = 1
001160 103002  bcc 000001 000000 000000 000055 020174 177722 177722   NZVC1 0000
# 001160 bcc 1166 (nextPC=001162)
[pid 10] TRAP
[pid 10] trap 020306 write(1, "l") [000001 000000 000000 000055 020175 177722 177722 001160] [020174 000001]
[pid 10] trap DONE 020306 write(1, "l") [000001 000000 000000 000055 020175 177722 177722 001160] [020174 000001]
[pid 10] write(1, "l") = 1
001160 103002  bcc 000001 000000 000000 000055 020175 177722 177722   NZVC1 0000
# 001160 bcc 1166 (nextPC=001162)
[pid 10] TRAP
[pid 10] trap 020306 write(1, "o") [000001 000000 000000 000055 020176 177722 177722 001160] [020175 000001]
[pid 10] trap DONE 020306 write(1, "o") [000001 000000 000000 000055 020176 177722 177722 001160] [020175 000001]
[pid 10] write(1, "o") = 1
001160 103002  bcc 000001 000000 000000 000055 020176 177722 177722   NZVC1 0000
# 001160 bcc 1166 (nextPC=001162)
[pid 10] TRAP
[pid 10] trap 020306 write(1, "g") [000001 000000 000000 000055 020177 177722 177722 001160] [020176 000001]
[pid 10] trap DONE 020306 write(1, "g") [000001 000000 000000 000055 020177 177722 177722 001160] [020176 000001]
[pid 10] write(1, "g") = 1
001160 103002  bcc 000001 000000 000000 000055 020177 177722 177722   NZVC1 0000
# 001160 bcc 1166 (nextPC=001162)
[pid 10] TRAP
[pid 10] trap 020306 write(1, "i") [000001 000000 000000 000055 020200 177722 177722 001160] [020177 000001]
[pid 10] trap DONE 020306 write(1, "i") [000001 000000 000000 000055 020200 177722 177722 001160] [020177 000001]
[pid 10] write(1, "i") = 1
001160 103002  bcc 000001 000000 000000 000055 020200 177722 177722   NZVC1 0000
# 001160 bcc 1166 (nextPC=001162)
[pid 10] TRAP
[pid 10] trap 020306 write(1, "n") [000001 000000 000000 000055 020201 177722 177722 001160] [020200 000001]
[pid 10] trap DONE 020306 write(1, "n") [000001 000000 000000 000055 020201 177722 177722 001160] [020200 000001]
[pid 10] write(1, "n") = 1
001160 103002  bcc 000001 000000 000000 000055 020201 177722 177722   NZVC1 0000
# 001160 bcc 1166 (nextPC=001162)
[pid 10] TRAP
[pid 10] trap 020306 write(1, ":") [000001 000000 000000 000055 020202 177722 177722 001160] [020201 000001]
[pid 10] trap DONE 020306 write(1, ":") [000001 000000 000000 000055 020202 177722 177722 001160] [020201 000001]
[pid 10] write(1, ":") = 1
001160 103002  bcc 000001 000000 000000 000055 020202 177722 177722   NZVC1 0000
# 001160 bcc 1166 (nextPC=001162)
[pid 10] TRAP
[pid 10] trap 020306 write(1, " ") [000001 000000 000000 000055 020203 177722 177722 001160] [020202 000001]
[pid 10] trap DONE 020306 write(1, " ") [000001 000000 000000 000055 020203 177722 177722 001160] [020202 000001]
[pid 10] write(1, " ") = 1
001160 103002  bcc 000001 000000 000000 000055 020203 177722 177722   NZVC1 0000
# 001160 bcc 1166 (nextPC=001162)
[pid 10] TRAP
[pid 10] trap 020302 stty(0, 020312) [000000 177734 000000 000055 020052 177740 177740 001114] [020312]
[pid 10] trap DONE 020302 stty(0, 020312) [000000 177734 000000 000055 020052 177740 177740 001114] [020312]
[pid 10] stty(0, 020312)
001114 103002  bcc 000000 177734 000000 000055 020052 177740 177740   NZVC1 0000
# 001114 bcc 1122 (nextPC=001116)
[pid 10] TRAP
[pid 10] trap 020274 read(0, 020352, 1) [000000 177734 000000 000055 020320 177722 177722 001060] [020352 000001]
[pid 10] trap DONE 020274 read(0, 020352, 1) [000001 177734 000000 000055 020320 177722 177722 001060] [020352 000001]
[pid 10] read(0, 020352, 1) = "k"
001060 103002  bcc 000001 177734 000000 000055 020320 177722 177722   NZVC1 0000
# 001060 bcc 1066 (nextPC=001062)
[pid 10] TRAP
[pid 10] trap 020306 write(1, "k") [000001 177734 000000 000153 020320 177722 177722 001160] [020352 000001]
[pid 10] trap DONE 020306 write(1, "k") [000001 177734 000000 000153 020320 177722 177722 001160] [020352 000001]
[pid 10] write(1, "k") = 1
001160 103002  bcc 000001 177734 000000 000153 020320 177722 177722   NZVC1 0000
# 001160 bcc 1166 (nextPC=001162)
[pid 10] TRAP
[pid 10] trap 020274 read(0, 020352, 1) [000000 177734 000000 000153 020321 177722 177722 001060] [020352 000001]
[pid 10] trap DONE 020274 read(0, 020352, 1) [000001 177734 000000 000153 020321 177722 177722 001060] [020352 000001]
[pid 10] read(0, 020352, 1) = "e"
001060 103002  bcc 000001 177734 000000 000153 020321 177722 177722   NZVC1 0000
# 001060 bcc 1066 (nextPC=001062)
[pid 10] TRAP
[pid 10] trap 020306 write(1, "e") [000001 177734 000000 000145 020321 177722 177722 001160] [020352 000001]
[pid 10] trap DONE 020306 write(1, "e") [000001 177734 000000 000145 020321 177722 177722 001160] [020352 000001]
[pid 10] write(1, "e") = 1
001160 103002  bcc 000001 177734 000000 000145 020321 177722 177722   NZVC1 0000
# 001160 bcc 1166 (nextPC=001162)
[pid 10] TRAP
[pid 10] trap 020274 read(0, 020352, 1) [000000 177734 000000 000145 020322 177722 177722 001060] [020352 000001]
[pid 10] trap DONE 020274 read(0, 020352, 1) [000001 177734 000000 000145 020322 177722 177722 001060] [020352 000001]
[pid 10] read(0, 020352, 1) = "n"
001060 103002  bcc 000001 177734 000000 000145 020322 177722 177722   NZVC1 0000
# 001060 bcc 1066 (nextPC=001062)
[pid 10] TRAP
[pid 10] trap 020306 write(1, "n") [000001 177734 000000 000156 020322 177722 177722 001160] [020352 000001]
[pid 10] trap DONE 020306 write(1, "n") [000001 177734 000000 000156 020322 177722 177722 001160] [020352 000001]
[pid 10] write(1, "n") = 1
001160 103002  bcc 000001 177734 000000 000156 020322 177722 177722   NZVC1 0000
# 001160 bcc 1166 (nextPC=001162)
[pid 10] TRAP
[pid 10] trap 020274 read(0, 020352, 1) [000000 177734 000000 000156 020323 177722 177722 001060] [020352 000001]
[pid 10] trap DONE 020274 read(0, 020352, 1) [000001 177734 000000 000156 020323 177722 177722 001060] [020352 000001]
[pid 10] read(0, 020352, 1) = "\n"
001060 103002  bcc 000001 177734 000000 000156 020323 177722 177722   NZVC1 0000
# 001060 bcc 1066 (nextPC=001062)
[pid 10] TRAP
[pid 10] trap 020306 write(1, "\n") [000001 177734 000000 000012 020323 177722 177722 001160] [020352 000001]
[pid 10] trap DONE 020306 write(1, "\n") [000001 177734 000000 000012 020323 177722 177722 001160] [020352 000001]
[pid 10] write(1, "\n") = 1
001160 103002  bcc 000001 177734 000000 000012 020323 177722 177722   NZVC1 0000
# 001160 bcc 1166 (nextPC=001162)
[pid 10] TRAP
[pid 10] trap 020306 write(1, "\r") [000001 177734 000000 000012 020323 177722 177722 001160] [020262 000001]
[pid 10] trap DONE 020306 write(1, "\r") [000001 177734 000000 000012 020323 177722 177722 001160] [020262 000001]
[pid 10] write(1, "\r") = 1
001160 103002  bcc 000001 177734 000000 000012 020323 177722 177722   NZVC1 0000
# 001160 bcc 1166 (nextPC=001162)
[pid 10] TRAP
[pid 10] trap 020302 stty(0, 020312) [000000 177734 000000 000055 020052 177740 177740 001114] [020312]
[pid 10] trap DONE 020302 stty(0, 020312) [000000 177734 000000 000055 020052 177740 177740 001114] [020312]
[pid 10] stty(0, 020312)
001114 103002  bcc 000000 177734 000000 000055 020052 177740 177740   NZVC1 0000
# 001114 bcc 1122 (nextPC=001116)
[pid 10] TRAP
[pid 10] trap 020266 exec("/bin/login", 177742) [177742 177734 000000 000055 020052 177734 177734 001024] [020237 177742]
[pid 10] trap DONE 020266 exec("/bin/login", 177742) [000000 000000 000000 000000 000000 000000 177756 000000] [020237 177742]
[pid 10] exec("/bin/login", 177742)
000000 170011 setd 000000 000000 000000 000000 000000 000000 177756   NZVC1 1000
# 000000 setd (nextPC=000002)
[pid 10] TRAP
[pid 10] trap 004754 sig(3, 000001) [000001 000006 000000 000000 000000 177504 177502 003040] [000003 000001]
[pid 10] trap DONE 004754 sig(3, 000001) [000000 000006 000000 000000 000000 177504 177502 003040] [000003 000001]
[pid 10] sig(3, 000001)
003040 103412  bcs 000000 000006 000000 000000 000000 177504 177502   NZVC1 0000
# 003040 bcs 3066 (nextPC=003042)
[pid 10] TRAP
[pid 10] trap 004754 sig(2, 000001) [000001 000004 000000 000000 000000 177504 177502 003040] [000002 000001]
[pid 10] trap DONE 004754 sig(2, 000001) [000000 000004 000000 000000 000000 177504 177502 003040] [000002 000001]
[pid 10] sig(2, 000001)
003040 103412  bcs 000000 000004 000000 000000 000000 177504 177502   NZVC1 0000
# 003040 bcs 3066 (nextPC=003042)
[pid 10] TRAP
[pid 10] trap 002510 nice(0) [000000 000004 000000 000000 000000 177506 177506 002510] []
[pid 10] trap DONE 002510 nice(0) [000000 000004 000000 000000 000000 177506 177506 002510] []
[pid 10] nice(0)
002510 103002  bcc 000000 000004 000000 000000 000000 177506 177506   NZVC1 0100
# 002510 bcc 2516 (nextPC=002512)
[pid 10] TRAP
[pid 10] trap 003670 fstat(3234, 000001) [000000 000004 000000 000000 000000 177506 177502 003672] [006242]
[pid 10] trap DONE 003670 fstat(3234, 000001) [000000 000004 000000 000000 000000 177506 177502 003672] [006242]
[pid 10] fstat(3234, 000001)
003672 103442  bcs 000000 000004 000000 000000 000000 177506 177502   NZVC1 0100
# 003672 bcs 4000 (nextPC=003674)
[pid 10] TRAP
[pid 10] trap 003702 open("/dev", 0) [000000 000004 000000 000000 000000 177506 177502 003706] [005000 000000]
[pid 10] trap DONE 003702 open("/dev", 0) [000002 000004 000000 000000 000000 177506 177502 003706] [005000 000000]
[pid 10] open("/dev", 0) = 2
003706 103434  bcs 000002 000004 000000 000000 000000 177506 177502   NZVC1 0000
# 003706 bcs 4000 (nextPC=003710)
[pid 10] TRAP
[pid 10] trap 003716 read(2, 006242, 16) [000002 000002 000000 000000 000000 177506 177502 003722] [006242 000020]
[pid 10] trap DONE 003716 read(2, 006242, 16) [000020 000002 000000 000000 000000 177506 177502 003722] [006242 000020]
[pid 10] read(2, 006242, 16) = "C\x00.\x00\x00\x00\x00\x00\x00\x00\x00\x00\x00\x00\x00\x00"
003722 103424  bcs 000020 000002 000000 000000 000000 177506 177502   NZVC1 0000
# 003722 bcs 3774 (nextPC=003724)
[pid 10] TRAP
[pid 10] trap 003716 read(2, 006242, 16) [000002 000002 000000 000000 000000 177506 177502 003722] [006242 000020]
[pid 10] trap DONE 003716 read(2, 006242, 16) [000020 000002 000000 000000 000000 177506 177502 003722] [006242 000020]
[pid 10] read(2, 006242, 16) = "\x01\x00..\x00\x00\x00\x00\x00\x00\x00\x00\x00\x00\x00\x00"
003722 103424  bcs 000020 000002 000000 000000 000000 177506 177502   NZVC1 0000
# 003722 bcs 3774 (nextPC=003724)
[pid 10] TRAP
[pid 10] trap 003716 read(2, 006242, 16) [000002 000002 000000 000000 000000 177506 177502 003722] [006242 000020]
[pid 10] trap DONE 003716 read(2, 006242, 16) [000020 000002 000000 000000 000000 177506 177502 003722] [006242 000020]
[pid 10] read(2, 006242, 16) = "D\x00kmem\x00\x00\x00\x00\x00\x00\x00\x00\x00\x00"
003722 103424  bcs 000020 000002 000000 000000 000000 177506 177502   NZVC1 0000
# 003722 bcs 3774 (nextPC=003724)
[pid 10] TRAP
[pid 10] trap 003716 read(2, 006242, 16) [000002 000002 000000 000000 000000 177506 177502 003722] [006242 000020]
[pid 10] trap DONE 003716 read(2, 006242, 16) [000020 000002 000000 000000 000000 177506 177502 003722] [006242 000020]
[pid 10] read(2, 006242, 16) = "E\x00mem\x00\x00\x00\x00\x00\x00\x00\x00\x00\x00\x00"
003722 103424  bcs 000020 000002 000000 000000 000000 177506 177502   NZVC1 0000
# 003722 bcs 3774 (nextPC=003724)
[pid 10] TRAP
[pid 10] trap 003716 read(2, 006242, 16) [000002 000002 000000 000000 000000 177506 177502 003722] [006242 000020]
[pid 10] trap DONE 003716 read(2, 006242, 16) [000020 000002 000000 000000 000000 177506 177502 003722] [006242 000020]
[pid 10] read(2, 006242, 16) = "F\x00null\x00\x00\x00\x00\x00\x00\x00\x00\x00\x00"
003722 103424  bcs 000020 000002 000000 000000 000000 177506 177502   NZVC1 0000
# 003722 bcs 3774 (nextPC=003724)
[pid 10] TRAP
[pid 10] trap 003716 read(2, 006242, 16) [000002 000002 000000 000000 000000 177506 177502 003722] [006242 000020]
[pid 10] trap DONE 003716 read(2, 006242, 16) [000020 000002 000000 000000 000000 177506 177502 003722] [006242 000020]
[pid 10] read(2, 006242, 16) = "G\x00tty8\x00\x00\x00\x00\x00\x00\x00\x00\x00\x00"
003722 103424  bcs 000020 000002 000000 000000 000000 177506 177502   NZVC1 0000
# 003722 bcs 3774 (nextPC=003724)
[pid 10] TRAP
[pid 10] trap 004000 close(2) [000002 000002 000000 000000 000000 177506 177502 004000] []
[pid 10] trap DONE 004000 close(2) [000002 000002 000000 000000 000000 177506 177502 004000] []
[pid 10] close(2)
004000 005726  tst 000002 000002 000000 000000 000000 177506 177502   NZVC1 0000
# 004000 tst (sp)+ (nextPC=004002)
[pid 10] TRAP
[pid 10] trap 004726 gtty(0, 005104) [000000 000002 000000 000000 000000 177504 177504 002462] [005104]
[pid 10] trap DONE 004726 gtty(0, 005104) [000000 000002 000000 000000 000000 177504 177504 002462] [005104]
[pid 10] gtty(0, 005104)
002462 103002  bcc 000000 000002 000000 000000 000000 177504 177504   NZVC1 0000
# 002462 bcc 2470 (nextPC=002464)
[pid 10] TRAP
[pid 10] trap 004770 stty(0, 005104) [000000 000002 000000 000000 000000 177504 177504 003444] [005104]
[pid 10] trap DONE 004770 stty(0, 005104) [000000 000002 000000 000000 000000 177504 177504 003444] [005104]
[pid 10] stty(0, 005104)
003444 103002  bcc 000000 000002 000000 000000 000000 177504 177504   NZVC1 0000
# 003444 bcc 3452 (nextPC=003446)
[pid 10] TRAP
[pid 10] trap 004732 open("/etc/passwd", 0) [001672 000002 000000 177777 005074 177460 177460 002550] [004647 000000]
[pid 10] trap DONE 004732 open("/etc/passwd", 0) [000002 000002 000000 177777 005074 177460 177460 002550] [004647 000000]
[pid 10] open("/etc/passwd", 0) = 2
002550 103002  bcc 000002 000002 000000 177777 005074 177460 177460   NZVC1 0100
# 002550 bcc 2556 (nextPC=002552)
[pid 10] TRAP
[pid 10] trap 002210 read(2, 005166, 512) [000002 000002 000000 177542 005064 177462 177462 002214] [005166 001000]
[pid 10] trap DONE 002210 read(2, 005166, 512) [000176 000002 000000 177542 005064 177462 177462 002214] [005166 001000]
[pid 10] read(2, 005166, 512) = "root:zCunRu2C:0:3::/:\ndaemon:xuXOxztu:1:1::/:\nbin:zHona0yz:3:3::/bin:\nken:zoabszhi:6:1::/usr/ken:\ndmr:zG5hgayu:7:1::/usr/dmr:\n\x00\x00\x00\x00\x00\x00\x00\x00\x00\x00\x00\x00\x00\x00\x00\x00\x00\x00\x00\x00\x00\x00\x00\x00\x00\x00\x00\x00\x00\x00\x00\x00\x00\x00\x00\x00\x00\x00\x00\x00\x00\x00\x00\x00\x00\x00\x00\x00\x00\x00\x00\x00\x00\x00\x00\x00\x00\x00\x00\x00\x00\x00\x00\x00\x00\x00\x00\x00\x00\x00\x00\x00\x00\x00\x00\x00\x00\x00\x00\x00\x00\x00\x00\x00\x00\x00\x00\x00\x00\x00\x00\x00\x00\x00\x00\x00\x00\x00\x00\x00\x00\x00\x00\x00\x00\x00\x00\x00\x00\x00\x00\x00\x00\x00\x00\x00\x00\x00\x00\x00\x00\x00\x00\x00\x00\x00\x00\x00\x00\x00\x00\x00\x00\x00\x00\x00\x00\x00\x00\x00\x00\x00\x00\x00\x00\x00\x00\x00\x00\x00\x00\x00\x00\x00\x00\x00\x00\x00\x00\x00\x00\x00\x00\x00\x00\x00\x00\x00\x00\x00\x00\x00\x00\x00\x00\x00\x00\x00\x00\x00\x00\x00\x00\x00\x00\x00\x00\x00\x00\x00\x00\x00\x00\x00\x00\x00\x00\x00\x00\x00\x00\x00\x00\x00\x00\x00\x00\x00\x00\x00\x00\x00\x00\x00\x00\x00\x00\x00\x00\x00\x00\x00\x00\x00\x00\x00\x00\x00\x00\x00\x00\x00\x00\x00\x00\x00\x00\x00\x00\x00\x00\x00\x00\x00\x00\x00\x00\x00\x00\x00\x00\x00\x00\x00\x00\x00\x00\x00\x00\x00\x00\x00\x00\x00\x00\x00\x00\x00\x00\x00\x00\x00\x00\x00\x00\x00\x00\x00\x00\x00\x00\x00\x00\x00\x00\x00\x00\x00\x00\x00\x00\x00\x00\x00\x00\x00\x00\x00\x00\x00\x00\x00\x00\x00\x00\x00\x00\x00\x00\x00\x00\x00\x00\x00\x00\x00\x00\x00\x00\x00\x00\x00\x00\x00\x00\x00\x00\x00\x00\x00\x00\x00\x00\x00\x00\x00\x00\x00\x00\x00\x00\x00\x00\x00\x00\x00\x00\x00\x00\x00\x00\x00\x00\x00\x00\x00\x00\x00\x00\x00\x00\x00\x00\x00\x00\x00\x00\x00\x00\x00\x00\x00\x00\x00\x00\x00\x00\x00\x00\x00\x00\x00\x00\x00\x00\x00"
002214 103414  bcs 000176 000002 000000 177542 005064 177462 177462   NZVC1 0000
# 002214 bcs 2246 (nextPC=002216)
002172 002016  bge 000172 000002 000000 177550 005064 177462 177462   NZVC1 0000
# 002172 bge 2230 (nextPC=002174)
002242 012605  mov 000103 000002 000000 177556 005064 177462 177462   NZVC1 0000
# 002242 mov (sp)+, r5 (nextPC=002244)
001774 001364  bne 000072 000002 000000 177564 005064 177504 177466   NZVC1 1001
# 001774 bne 1746 (nextPC=001776)
002232 157700 bisb 000000 000002 000000 177544 005064 177462 177462   NZVC1 0100
# 002232 bisb @5164, r0 (nextPC=002236)
001764 010065  mov 000165 000002 000000 177552 005064 177504 177466   NZVC1 1000
# 001764 mov r0, -14(r5) (nextPC=001770)
001752 003434  ble 000165 000002 000000 177560 005064 177504 177466   NZVC1 0000
# 001752 ble 2044 (nextPC=001754)
002164 010605  mov 000072 000002 000000 177567 005064 177504 177462   NZVC1 1000
# 002164 mov sp, r5 (nextPC=002166)
001774 001364  bne 000156 000002 000000 177544 005064 177504 177466   NZVC1 1001
# 001774 bne 1746 (nextPC=001776)
001760 004767  jsr 000141 000002 000000 177553 005064 177504 177466   NZVC1 0000
# 001760 jsr pc, 2162 (nextPC=001764)
002172 002016  bge 000072 000002 000000 177561 005064 177462 177462   NZVC1 0000
# 002172 bge 2230 (nextPC=002174)
002242 012605  mov 000156 000002 000000 177567 005064 177462 177462   NZVC1 0000
# 002242 mov (sp)+, r5 (nextPC=002244)
002164 010605  mov 000156 000002 000000 177545 005064 177504 177462   NZVC1 1000
# 002164 mov sp, r5 (nextPC=002166)
002232 157700 bisb 000000 000002 000000 177553 005064 177462 177462   NZVC1 0100
# 002232 bisb @5164, r0 (nextPC=002236)
001764 010065  mov 000061 000002 000000 177561 005064 177504 177466   NZVC1 1000
# 001764 mov r0, -14(r5) (nextPC=001770)
001752 003434  ble 000162 000002 000000 177567 005064 177504 177466   NZVC1 0000
# 001752 ble 2044 (nextPC=001754)
002006 001776  beq 000012 000002 000000 177544 005066 177504 177466   NZVC1 0100
# 002006 beq 2004 (nextPC=002010)
[pid 10] TRAP
[pid 10] trap 002370 close(2) [000002 000002 000000 177545 005067 177462 177462 002370] []
[pid 10] trap DONE 002370 close(2) [000002 000002 000000 177545 005067 177462 177462 002370] []
[pid 10] close(2)
002370 103002  bcc 000002 000002 000000 177545 005067 177462 177462   NZVC1 0000
# 002370 bcc 2376 (nextPC=002372)
[pid 10] TRAP
[pid 10] trap 004770 stty(0, 005104) [000000 177500 000000 177546 005074 177504 177504 003444] [005104]
[pid 10] trap DONE 004770 stty(0, 005104) [000000 177500 000000 177546 005074 177504 177504 003444] [005104]
[pid 10] stty(0, 005104)
003444 103002  bcc 000000 177500 000000 177546 005074 177504 177504   NZVC1 0000
# 003444 bcc 3452 (nextPC=003446)
[pid 10] TRAP
[pid 10] trap 004774 write(1, "Password: ") [000001 177500 000000 177546 005074 177502 177502 003536] [004455 000012]
[pid 10] trap DONE 004774 write(1, "Password: ") [000012 177500 000000 177546 005074 177502 177502 003536] [004455 000012]
[pid 10] write(1, "Password: ") = 10
003536 103002  bcc 000012 177500 000000 177546 005074 177502 177502   NZVC1 0000
# 003536 bcc 3544 (nextPC=003540)
[pid 10] TRAP
[pid 10] trap 002210 read(0, 005166, 512) [000000 177500 000000 177546 177530 177506 177506 002214] [005166 001000]
[pid 10] trap DONE 002210 read(0, 005166, 512) [000004 177500 000000 177546 177530 177506 177506 002214] [005166 001000]
[pid 10] read(0, 005166, 512) = "ken\n:zCunRu2C:0:3::/:\ndaemon:xuXOxztu:1:1::/:\nbin:zHona0yz:3:3::/bin:\nken:zoabszhi:6:1::/usr/ken:\ndmr:zG5hgayu:7:1::/usr/dmr:\n\x00\x00\x00\x00\x00\x00\x00\x00\x00\x00\x00\x00\x00\x00\x00\x00\x00\x00\x00\x00\x00\x00\x00\x00\x00\x00\x00\x00\x00\x00\x00\x00\x00\x00\x00\x00\x00\x00\x00\x00\x00\x00\x00\x00\x00\x00\x00\x00\x00\x00\x00\x00\x00\x00\x00\x00\x00\x00\x00\x00\x00\x00\x00\x00\x00\x00\x00\x00\x00\x00\x00\x00\x00\x00\x00\x00\x00\x00\x00\x00\x00\x00\x00\x00\x00\x00\x00\x00\x00\x00\x00\x00\x00\x00\x00\x00\x00\x00\x00\x00\x00\x00\x00\x00\x00\x00\x00\x00\x00\x00\x00\x00\x00\x00\x00\x00\x00\x00\x00\x00\x00\x00\x00\x00\x00\x00\x00\x00\x00\x00\x00\x00\x00\x00\x00\x00\x00\x00\x00\x00\x00\x00\x00\x00\x00\x00\x00\x00\x00\x00\x00\x00\x00\x00\x00\x00\x00\x00\x00\x00\x00\x00\x00\x00\x00\x00\x00\x00\x00\x00\x00\x00\x00\x00\x00\x00\x00\x00\x00\x00\x00\x00\x00\x00\x00\x00\x00\x00\x00\x00\x00\x00\x00\x00\x00\x00\x00\x00\x00\x00\x00\x00\x00\x00\x00\x00\x00\x00\x00\x00\x00\x00\x00\x00\x00\x00\x00\x00\x00\x00\x00\x00\x00\x00\x00\x00\x00\x00\x00\x00\x00\x00\x00\x00\x00\x00\x00\x00\x00\x00\x00\x00\x00\x00\x00\x00\x00\x00\x00\x00\x00\x00\x00\x00\x00\x00\x00\x00\x00\x00\x00\x00\x00\x00\x00\x00\x00\x00\x00\x00\x00\x00\x00\x00\x00\x00\x00\x00\x00\x00\x00\x00\x00\x00\x00\x00\x00\x00\x00\x00\x00\x00\x00\x00\x00\x00\x00\x00\x00\x00\x00\x00\x00\x00\x00\x00\x00\x00\x00\x00\x00\x00\x00\x00\x00\x00\x00\x00\x00\x00\x00\x00\x00\x00\x00\x00\x00\x00\x00\x00\x00\x00\x00\x00\x00\x00\x00\x00\x00\x00\x00\x00\x00\x00\x00\x00\x00\x00\x00\x00\x00\x00\x00\x00\x00\x00\x00\x00\x00\x00\x00\x00\x00\x00\x00\x00\x00\x00\x00\x00\x00\x00\x00\x00\x00\x00\x00\x00\x00\x00\x00\x00\x00\x00\x00\x00"
002214 103414  bcs 000004 177500 000000 177546 177530 177506 177506   NZVC1 0100
# 002214 bcs 2246 (nextPC=002216)
[pid 10] TRAP
[pid 10] trap 004770 stty(0, 005104) [000000 177500 000000 177546 177534 177504 177504 003444] [005104]
[pid 10] trap DONE 004770 stty(0, 005104) [000000 177500 000000 177546 177534 177504 177504 003444] [005104]
[pid 10] stty(0, 005104)
003444 103002  bcc 000000 177500 000000 177546 177534 177504 177504   NZVC1 0000
# 003444 bcc 3452 (nextPC=003446)
[pid 10] TRAP
[pid 10] trap 004774 write(1, "\n") [000001 177500 000000 177546 177534 177502 177502 003536] [004470 000001]
[pid 10] trap DONE 004774 write(1, "\n") [000001 177500 000000 177546 177534 177502 177502 003536] [004470 000001]
[pid 10] write(1, "\n") = 1
003536 103002  bcc 000001 177500 000000 177546 177534 177502 177502   NZVC1 0000
# 003536 bcc 3544 (nextPC=003540)
004114 112103 movb 007333 007326 000171 000026 177534 177506 177472   NZVC1 0001
# 004114 movb (r1)+, r3 (nextPC=004116)
004126 103770  bcs 007354 007347 000174 000152 177534 177506 177472   NZVC1 1001
# 004126 bcs 4110 (nextPC=004130)
004120 110220 movb 007374 007370 000166 000034 177534 177506 177472   NZVC1 0001
# 004120 movb r2, (r0)+ (nextPC=004122)
004114 112103 movb 007415 007410 000034 000030 177534 177506 177472   NZVC1 0001
# 004114 movb (r1)+, r3 (nextPC=004116)
004126 103770  bcs 007436 007431 000167 000157 177534 177506 177472   NZVC1 1001
# 004126 bcs 4110 (nextPC=004130)
004120 110220 movb 007456 007452 000171 000026 177534 177506 177472   NZVC1 0001
# 004120 movb r2, (r0)+ (nextPC=004122)
004114 112103 movb 007477 007472 000026 000156 177534 177506 177472   NZVC1 0001
# 004114 movb (r1)+, r3 (nextPC=004116)
004174 020327  cmp 000016 000004 000004 005056 006714 006314 177470   NZVC1 0000
# 004174 cmp r3, #5060 (nextPC=004200)
004144 005002  clr 000077 000002 000010 005064 006720 006320 177470   NZVC1 1001
# 004144 clr r2 (nextPC=004146)
004170 056214  bis 000051 000004 000016 005062 006722 006322 177470   NZVC1 0000
# 004170 bis 5006(r2), (r4) (nextPC=004174)
004174 020327  cmp 000015 000014 000002 005056 006726 006326 177470   NZVC1 0000
# 004174 cmp r3, #5060 (nextPC=004200)
004144 005002  clr 000075 000000 000006 005064 006732 006332 177470   NZVC1 1001
# 004144 clr r2 (nextPC=004146)
004170 056214  bis 000050 000000 000026 005062 006734 006334 177470   NZVC1 0000
# 004170 bis 5006(r2), (r4) (nextPC=004174)
004174 020327  cmp 000015 000002 000016 005056 006740 006340 177470   NZVC1 0000
# 004174 cmp r3, #5060 (nextPC=004200)
004144 005002  clr 000072 000002 000020 005064 006744 006344 177470   NZVC1 1001
# 004144 clr r2 (nextPC=004146)
004170 056214  bis 000046 000002 000026 005062 006746 006346 177470   NZVC1 0000
# 004170 bis 5006(r2), (r4) (nextPC=004174)
004174 020327  cmp 000014 000012 000014 005056 006752 006352 177470   NZVC1 0000
# 004174 cmp r3, #5060 (nextPC=004200)
004144 005002  clr 000070 000000 000016 005064 006756 006356 177470   NZVC1 1001
# 004144 clr r2 (nextPC=004146)
004170 056214  bis 000044 000004 000004 005062 006760 006360 177470   NZVC1 0000
# 004170 bis 5006(r2), (r4) (nextPC=004174)
004174 020327  cmp 000014 000000 000030 005056 006764 006364 177470   NZVC1 0000
# 004174 cmp r3, #5060 (nextPC=004200)
004144 005002  clr 000065 000002 000020 005064 006770 006370 177470   NZVC1 1001
# 004144 clr r2 (nextPC=004146)
004170 056214  bis 000043 000000 000036 005062 006772 006372 177470   NZVC1 0000
# 004170 bis 5006(r2), (r4) (nextPC=004174)
004174 020327  cmp 000013 000010 000026 005056 006776 006376 177470   NZVC1 0000
# 004174 cmp r3, #5060 (nextPC=004200)
004144 005002  clr 000063 000000 000026 005064 007002 006402 177470   NZVC1 1001
# 004144 clr r2 (nextPC=004146)
004170 056214  bis 000041 000002 000014 005062 007004 006404 177470   NZVC1 0000
# 004170 bis 5006(r2), (r4) (nextPC=004174)
004174 020327  cmp 000012 000020 000024 005056 007010 006410 177470   NZVC1 0000
# 004174 cmp r3, #5060 (nextPC=004200)
004144 005002  clr 000060 000002 000030 005064 007014 006414 177470   NZVC1 1001
# 004144 clr r2 (nextPC=004146)
004170 056214  bis 000037 000004 000014 005062 007016 006416 177470   NZVC1 0000
# 004170 bis 5006(r2), (r4) (nextPC=004174)
004174 020327  cmp 000012 000006 000000 005056 007022 006422 177470   NZVC1 0000
# 004174 cmp r3, #5060 (nextPC=004200)
004144 005002  clr 000056 000000 000004 005064 007026 006426 177470   NZVC1 1001
# 004144 clr r2 (nextPC=004146)
004170 056214  bis 000036 000000 000024 005062 007030 006430 177470   NZVC1 0000
# 004170 bis 5006(r2), (r4) (nextPC=004174)
004174 020327  cmp 000011 000016 000036 005056 007034 006434 177470   NZVC1 1000
# 004174 cmp r3, #5060 (nextPC=004200)
004144 005002  clr 000053 000002 000000 005064 007040 006440 177470   NZVC1 1001
# 004144 clr r2 (nextPC=004146)
004170 056214  bis 000034 000002 000024 005062 007042 006442 177470   NZVC1 0000
# 004170 bis 5006(r2), (r4) (nextPC=004174)
004174 020327  cmp 000011 000004 000012 005056 007046 006446 177470   NZVC1 0000
# 004174 cmp r3, #5060 (nextPC=004200)
004144 005002  clr 000051 000000 000014 005064 007052 006452 177470   NZVC1 1001
# 004144 clr r2 (nextPC=004146)
004170 056214  bis 000032 000004 000024 005062 007054 006454 177470   NZVC1 0000
# 004170 bis 5006(r2), (r4) (nextPC=004174)
004174 020327  cmp 000010 000014 000010 005056 007060 006460 177470   NZVC1 0000
# 004174 cmp r3, #5060 (nextPC=004200)
004144 005002  clr 000046 000002 000016 005064 007064 006464 177470   NZVC1 1001
# 004144 clr r2 (nextPC=004146)
004170 056214  bis 000031 000000 000034 005062 007066 006466 177470   NZVC1 0000
# 004170 bis 5006(r2), (r4) (nextPC=004174)
004174 020327  cmp 000010 000002 000024 005056 007072 006472 177470   NZVC1 0000
# 004174 cmp r3, #5060 (nextPC=004200)
004144 005002  clr 000044 000000 000024 005064 007076 006476 177470   NZVC1 1001
# 004144 clr r2 (nextPC=004146)
004170 056214  bis 000027 000002 000034 005062 007100 006500 177470   NZVC1 0000
# 004170 bis 5006(r2), (r4) (nextPC=004174)
004174 020327  cmp 000007 000012 000022 005056 007104 006504 177470   NZVC1 0000
# 004174 cmp r3, #5060 (nextPC=004200)
004144 005002  clr 000041 000002 000026 005064 007110 006510 177470   NZVC1 1001
# 004144 clr r2 (nextPC=004146)
004170 056214  bis 000025 000004 000012 005062 007112 006512 177470   NZVC1 0000
# 004170 bis 5006(r2), (r4) (nextPC=004174)
004174 020327  cmp 000007 000000 000036 005056 007116 006516 177470   NZVC1 1000
# 004174 cmp r3, #5060 (nextPC=004200)
004144 005002  clr 000037 000000 000024 005064 007122 006522 177470   NZVC1 1001
# 004144 clr r2 (nextPC=004146)
004170 056214  bis 000024 000000 000004 005062 007124 006524 177470   NZVC1 0000
# 004170 bis 5006(r2), (r4) (nextPC=004174)
004174 020327  cmp 000006 000010 000034 005056 007130 006530 177470   NZVC1 0000
# 004174 cmp r3, #5060 (nextPC=004200)
004144 005002  clr 000034 000002 000036 005064 007134 006534 177470   NZVC1 1001
# 004144 clr r2 (nextPC=004146)
004170 056214  bis 000022 000002 000022 005062 007136 006536 177470   NZVC1 0000
# 004170 bis 5006(r2), (r4) (nextPC=004174)
004174 020327  cmp 000005 000020 000032 005056 007142 006542 177470   NZVC1 0000
# 004174 cmp r3, #5060 (nextPC=004200)
004144 005002  clr 000032 000000 000034 005064 007146 006546 177470   NZVC1 1001
# 004144 clr r2 (nextPC=004146)
004170 056214  bis 000020 000004 000022 005062 007150 006550 177470   NZVC1 0000
# 004170 bis 5006(r2), (r4) (nextPC=004174)
004174 020327  cmp 000005 000006 000006 005056 007154 006554 177470   NZVC1 0000
# 004174 cmp r3, #5060 (nextPC=004200)
004144 005002  clr 000027 000002 000014 005064 007160 006560 177470   NZVC1 1001
# 004144 clr r2 (nextPC=004146)
004170 056214  bis 000017 000000 000032 005062 007162 006562 177470   NZVC1 0000
# 004170 bis 5006(r2), (r4) (nextPC=004174)
004174 020327  cmp 000004 000016 000004 005056 007166 006566 177470   NZVC1 0000
# 004174 cmp r3, #5060 (nextPC=004200)
004144 005002  clr 000025 000000 000004 005064 007172 006572 177470   NZVC1 1001
# 004144 clr r2 (nextPC=004146)
004170 056214  bis 000015 000002 000032 005062 007174 006574 177470   NZVC1 0000
# 004170 bis 5006(r2), (r4) (nextPC=004174)
004174 020327  cmp 000004 000004 000020 005056 007200 006600 177470   NZVC1 0000
# 004174 cmp r3, #5060 (nextPC=004200)
004144 005002  clr 000022 000002 000024 005064 007204 006604 177470   NZVC1 1001
# 004144 clr r2 (nextPC=004146)
004170 056214  bis 000013 000004 000032 005062 007206 006606 177470   NZVC1 0000
# 004170 bis 5006(r2), (r4) (nextPC=004174)
004174 020327  cmp 000003 000014 000016 005056 007212 006612 177470   NZVC1 0000
# 004174 cmp r3, #5060 (nextPC=004200)
004144 005002  clr 000020 000000 000022 005064 007216 006616 177470   NZVC1 1001
# 004144 clr r2 (nextPC=004146)
004170 056214  bis 000012 000000 000002 005062 007220 006620 177470   NZVC1 0000
# 004170 bis 5006(r2), (r4) (nextPC=004174)
004174 020327  cmp 000003 000002 000032 005056 007224 006624 177470   NZVC1 0000
# 004174 cmp r3, #5060 (nextPC=004200)
004144 005002  clr 000015 000002 000034 005064 007230 006630 177470   NZVC1 1001
# 004144 clr r2 (nextPC=004146)
004170 056214  bis 000010 000002 000002 005062 007232 006632 177470   NZVC1 0000
# 004170 bis 5006(r2), (r4) (nextPC=004174)
004174 020327  cmp 000002 000012 000030 005056 007236 006636 177470   NZVC1 0000
# 004174 cmp r3, #5060 (nextPC=004200)
004144 005002  clr 000013 000000 000032 005064 007242 006642 177470   NZVC1 1001
# 004144 clr r2 (nextPC=004146)
004170 056214  bis 000006 000004 000020 005062 007244 006644 177470   NZVC1 0000
# 004170 bis 5006(r2), (r4) (nextPC=004174)
004174 020327  cmp 000002 000000 000004 005056 007250 006650 177470   NZVC1 0000
# 004174 cmp r3, #5060 (nextPC=004200)
004144 005002  clr 000010 000002 000034 005064 007254 006654 177470   NZVC1 1001
# 004144 clr r2 (nextPC=004146)
004170 056214  bis 000005 000000 000012 005062 007256 006656 177470   NZVC1 0000
# 004170 bis 5006(r2), (r4) (nextPC=004174)
004174 020327  cmp 000001 000010 000002 005056 007262 006662 177470   NZVC1 0000
# 004174 cmp r3, #5060 (nextPC=004200)
004144 005002  clr 000006 000000 000002 005064 007266 006666 177470   NZVC1 1001
# 004144 clr r2 (nextPC=004146)
004170 056214  bis 000003 000002 000030 005062 007270 006670 177470   NZVC1 0000
# 004170 bis 5006(r2), (r4) (nextPC=004174)
004174 020327  cmp 000000 000020 000000 005056 007274 006674 177470   NZVC1 0000
# 004174 cmp r3, #5060 (nextPC=004200)
004144 005002  clr 000003 000002 000004 005064 007300 006700 177470   NZVC1 1001
# 004144 clr r2 (nextPC=004146)
004170 056214  bis 000001 000004 000030 005062 007302 006702 177470   NZVC1 0000
# 004170 bis 5006(r2), (r4) (nextPC=004174)
004174 020327  cmp 000000 000006 000014 005056 007306 006706 177470   NZVC1 0000
# 004174 cmp r3, #5060 (nextPC=004200)
004144 005002  clr 000001 000000 000020 005064 007312 006712 177470   NZVC1 1001
# 004144 clr r2 (nextPC=004146)
004252 042701  bic 007322 000152 007566 010166 007314 006714 177472   NZVC1 0001
# 004252 bic #-200, r1 (nextPC=004256)
004260 016122  mov 007340 000034 007622 010222 007314 006714 177472   NZVC1 0000
# 004260 mov 6314(r1), (r2)+ (nextPC=004264)
004270 020027  cmp 007356 000056 007660 010260 007314 006714 177472   NZVC1 1000
# 004270 cmp r0, #7514 (nextPC=004274)
004250 112001 movb 007374 000324 007714 010314 007314 006714 177472   NZVC1 1001
# 004250 movb (r0)+, r1 (nextPC=004252)
004256 006301  asl 007413 000013 007750 010350 007314 006714 177472   NZVC1 0001
# 004256 asl r1 (nextPC=004260)
004264 016123  mov 007431 000336 010006 010404 007314 006714 177472   NZVC1 0000
# 004264 mov 6714(r1), (r3)+ (nextPC=004270)
004274 103765  bcs 007447 000354 010042 010442 007314 006714 177472   NZVC1 1001
# 004274 bcs 4250 (nextPC=004276)
004252 042701  bic 007466 000004 010076 010476 007314 006714 177472   NZVC1 0001
# 004252 bic #-200, r1 (nextPC=004256)
004260 016122  mov 007504 000362 010132 010532 007314 006714 177472   NZVC1 0000
# 004260 mov 6314(r1), (r2)+ (nextPC=004264)
004330 103772  bcs 007574 000070 010610 010352 007514 000004 177472   NZVC1 1001
# 004330 bcs 4316 (nextPC=004332)
004320 001401  beq 007652 000070 010610 010352 007514 000016 177472   NZVC1 0001
# 004320 beq 4324 (nextPC=004322)
004324 020027  cmp 007726 000070 010610 010352 007514 000031 177472   NZVC1 0101
# 004324 cmp r0, #10154 (nextPC=004330)
004330 103772  bcs 010002 000070 010610 010352 007514 000044 177472   NZVC1 1001
# 004330 bcs 4316 (nextPC=004332)
004320 001401  beq 010060 000070 010610 010352 007514 000056 177472   NZVC1 0001
# 004320 beq 4324 (nextPC=004322)
004324 020027  cmp 010134 000070 010610 010352 007514 000071 177472   NZVC1 0101
# 004324 cmp r0, #10154 (nextPC=004330)
004316 030220  bit 007600 000070 000640 010350 007515 000005 177472   NZVC1 1001
# 004316 bit r2, (r0)+ (nextPC=004320)
004330 103772  bcs 007656 000070 000640 010350 007515 000016 177472   NZVC1 1001
# 004330 bcs 4316 (nextPC=004332)
004330 103772  bcs 007734 000070 000640 010350 007515 000026 177472   NZVC1 1001
# 004330 bcs 4316 (nextPC=004332)
004330 103772  bcs 010012 000070 000640 010350 007515 000036 177472   NZVC1 1001
# 004330 bcs 4316 (nextPC=004332)
004324 020027  cmp 010070 000070 000640 010350 007515 000047 177472   NZVC1 0101
# 004324 cmp r0, #10154 (nextPC=004330)
004324 020027  cmp 010146 000070 000640 010350 007515 000057 177472   NZVC1 0101
# 004324 cmp r0, #10154 (nextPC=004330)
004320 001401  beq 007614 000070 010404 010346 007516 000005 177472   NZVC1 0101
# 004320 beq 4324 (nextPC=004322)
004324 020027  cmp 007672 000070 010404 010346 007516 000014 177472   NZVC1 0101
# 004324 cmp r0, #10154 (nextPC=004330)
004316 030220  bit 007750 000070 010404 010346 007516 000022 177472   NZVC1 1001
# 004316 bit r2, (r0)+ (nextPC=004320)
004324 020027  cmp 010030 000070 010404 010346 007516 000030 177472   NZVC1 0101
# 004324 cmp r0, #10154 (nextPC=004330)
004316 030220  bit 010106 000070 010404 010346 007516 000036 177472   NZVC1 1001
# 004316 bit r2, (r0)+ (nextPC=004320)
004320 001401  beq 007556 000070 061000 010344 007517 000000 177472   NZVC1 0000
# 004320 beq 4324 (nextPC=004322)
004324 020027  cmp 007634 000070 061000 010344 007517 000007 177472   NZVC1 0101
# 004324 cmp r0, #10154 (nextPC=004330)
004330 103772  bcs 007712 000070 061000 010344 007517 000016 177472   NZVC1 1001
# 004330 bcs 4316 (nextPC=004332)
004316 030220  bit 007770 000070 061000 010344 007517 000025 177472   NZVC1 1001
# 004316 bit r2, (r0)+ (nextPC=004320)
004324 020027  cmp 010050 000070 061000 010344 007517 000033 177472   NZVC1 0101
# 004324 cmp r0, #10154 (nextPC=004330)
004330 103772  bcs 010126 000070 061000 010344 007517 000042 177472   NZVC1 1001
# 004330 bcs 4316 (nextPC=004332)
004316 030220  bit 007574 000070 020412 010342 007520 000003 177472   NZVC1 1001
# 004316 bit r2, (r0)+ (nextPC=004320)
004324 020027  cmp 007652 000070 020412 010342 007520 000015 177472   NZVC1 0001
# 004324 cmp r0, #10154 (nextPC=004330)
004320 001401  beq 007730 000070 020412 010342 007520 000026 177472   NZVC1 0001
# 004320 beq 4324 (nextPC=004322)
004324 020027  cmp 010004 000070 020412 010342 007520 000041 177472   NZVC1 0001
# 004324 cmp r0, #10154 (nextPC=004330)
004316 030220  bit 010060 000070 020412 010342 007520 000053 177472   NZVC1 1001
# 004316 bit r2, (r0)+ (nextPC=004320)
004324 020027  cmp 010136 000070 020412 010342 007520 000065 177472   NZVC1 0001
# 004324 cmp r0, #10154 (nextPC=004330)
004324 020027  cmp 007604 000070 015102 010340 007521 000006 177472   NZVC1 0001
# 004324 cmp r0, #10154 (nextPC=004330)
004330 103772  bcs 007660 000070 015102 010340 007521 000021 177472   NZVC1 1001
# 004330 bcs 4316 (nextPC=004332)
004316 030220  bit 007734 000070 015102 010340 007521 000034 177472   NZVC1 1001
# 004316 bit r2, (r0)+ (nextPC=004320)
004320 001401  beq 010012 000070 015102 010340 007521 000047 177472   NZVC1 0101
# 004320 beq 4324 (nextPC=004322)
004330 103772  bcs 010066 000070 015102 010340 007521 000061 177472   NZVC1 1001
# 004330 bcs 4316 (nextPC=004332)
004320 001401  beq 010144 000070 015102 010340 007521 000073 177472   NZVC1 0001
# 004320 beq 4324 (nextPC=004322)
004320 001401  beq 007612 000070 004062 010336 007522 000005 177472   NZVC1 0101
# 004320 beq 4324 (nextPC=004322)
004324 020027  cmp 007670 000070 004062 010336 007522 000014 177472   NZVC1 0101
# 004324 cmp r0, #10154 (nextPC=004330)
004324 020027  cmp 007746 000070 004062 010336 007522 000024 177472   NZVC1 0001
# 004324 cmp r0, #10154 (nextPC=004330)
004324 020027  cmp 010024 000070 004062 010336 007522 000034 177472   NZVC1 0101
# 004324 cmp r0, #10154 (nextPC=004330)
004324 020027  cmp 010102 000070 004062 010336 007522 000044 177472   NZVC1 0101
# 004324 cmp r0, #10154 (nextPC=004330)
004360 020527  cmp 010154 000070 004062 010336 000000 000142 177470   NZVC1 0000
# 004360 cmp r5, #132 (nextPC=004364)
004330 103772  bcs 007626 000070 040207 010334 007523 000007 177472   NZVC1 1001
# 004330 bcs 4316 (nextPC=004332)
004324 020027  cmp 007704 000070 040207 010334 007523 000020 177472   NZVC1 0001
# 004324 cmp r0, #10154 (nextPC=004330)
004324 020027  cmp 007762 000070 040207 010334 007523 000030 177472   NZVC1 0101
# 004324 cmp r0, #10154 (nextPC=004330)
004330 103772  bcs 010040 000070 040207 010334 007523 000037 177472   NZVC1 1001
# 004330 bcs 4316 (nextPC=004332)
004316 030220  bit 010116 000070 040207 010334 007523 000046 177472   NZVC1 1001
# 004316 bit r2, (r0)+ (nextPC=004320)
000666 001776  beq 007514 177500 000000 177553 007521 177750 177512   NZVC1 0100
# 000666 beq 664 (nextPC=000670)
003574 005746  tst 002104 177500 000000 177564 177564 177506 177500   NZVC1 0100
# 003574 tst -(sp) (nextPC=003576)
[pid 10] TRAP
[pid 10] trap 004706 chdir("/usr/ken") [177575 177500 000000 177575 177564 177506 177506 002302] [177564]
[pid 10] trap DONE 004706 chdir("/usr/ken") [177575 177500 000000 177575 177564 177506 177506 002302] [177564]
[pid 10] chdir("/usr/ken")
002302 103002  bcc 177575 177500 000000 177575 177564 177506 177506   NZVC1 1000
# 002302 bcc 2310 (nextPC=002304)
[pid 10] TRAP
[pid 10] trap 003466 time() [000000 177500 000000 177575 177564 177506 177506 003466] []
[pid 10] trap DONE 003466 time() [005221 061503 000000 177575 177564 177506 177506 003466] []
[pid 10] time() = 2705, 25411
003466 010246  mov 005221 061503 000000 177575 177564 177506 177506   NZVC1 1000
# 003466 mov r2, -(sp) (nextPC=003470)
[pid 10] TRAP
[pid 10] trap 004732 open("/etc/utmp", 1) [005221 061503 000000 177575 177564 177504 177504 002550] [004510 000001]
[pid 10] trap DONE 004732 open("/etc/utmp", 1) [000002 061503 000000 177575 177564 177504 177504 002550] [004510 000001]
[pid 10] open("/etc/utmp", 1) = 2
002550 103002  bcc 000002 061503 000000 177575 177564 177504 177504   NZVC1 0000
# 002550 bcc 2556 (nextPC=002552)
[pid 10] TRAP
[pid 10] trap 004746 seek(2, 128, 0) [000002 061503 000000 177575 177564 177502 177502 002654] [000200 000000]
[pid 10] trap DONE 004746 seek(2, 128, 0) [000002 061503 000000 177575 177564 177502 177502 002654] [000200 000000]
[pid 10] seek(2, 128, 0) = 2
002654 103002  bcc 000002 061503 000000 177575 177564 177502 177502   NZVC1 0100
# 002654 bcc 2662 (nextPC=002656)
[pid 10] TRAP
[pid 10] trap 004774 write(2, "ken     8\x00\x91\nCc\x00\x00") [000002 061503 000000 177575 177564 177502 177502 003536] [005064 000020]
[pid 10] trap DONE 004774 write(2, "ken     8\x00\x91\nCc\x00\x00") [000020 061503 000000 177575 177564 177502 177502 003536] [005064 000020]
[pid 10] write(2, "ken     8\x00\x91\nCc\x00\x00") = 16
003536 103002  bcc 000020 061503 000000 177575 177564 177502 177502   NZVC1 0000
# 003536 bcc 3544 (nextPC=003540)
[pid 10] TRAP
[pid 10] trap 002370 close(2) [000002 061503 000000 177575 177564 177506 177506 002370] []
[pid 10] trap DONE 002370 close(2) [000002 061503 000000 177575 177564 177506 177506 002370] []
[pid 10] close(2)
002370 103002  bcc 000002 061503 000000 177575 177564 177506 177506   NZVC1 0000
# 002370 bcc 2376 (nextPC=002372)
[pid 10] TRAP
[pid 10] trap 004732 open("/usr/adm/wtmp", 1) [000000 061503 000000 177575 177564 177504 177504 002550] [004522 000001]
[pid 10] trap DONE 004732 open("/usr/adm/wtmp", 1) [000000 061503 000000 177575 177564 177504 177504 002550] [004522 000001]
[pid 10] open("/usr/adm/wtmp", 1): ENOENT
002550 103002  bcc 000002 061503 000000 177575 177564 177504 177504   NZVC1 0001
# 002550 bcc 2556 (nextPC=002552)
[pid 10] TRAP
[pid 10] trap 004732 open("/etc/motd", 0) [177777 061503 000000 177575 177564 177504 177504 002550] [004540 000000]
[pid 10] trap DONE 004732 open("/etc/motd", 0) [177777 061503 000000 177575 177564 177504 177504 002550] [004540 000000]
[pid 10] open("/etc/motd", 0): ENOENT
002550 103002  bcc 000002 061503 000000 177575 177564 177504 177504   NZVC1 0101
# 002550 bcc 2556 (nextPC=002552)
[pid 10] TRAP
[pid 10] trap 004762 stat(".mail", 005112) [177777 061503 000000 177575 177564 177504 177504 003406] [004552 005112]
[pid 10] trap DONE 004762 stat(".mail", 005112) [177777 061503 000000 177575 177564 177504 177504 003406] [004552 005112]
[pid 10] stat(".mail", 005112): ENOENT
003406 103002  bcc 000002 061503 000000 177575 177564 177504 177504   NZVC1 0001
# 003406 bcc 3414 (nextPC=003410)
[pid 10] TRAP
[pid 10] trap 004712 chown("/dev/tty8", 000006) [177777 061503 000000 177575 177564 177504 177504 002342] [004424 000006]
[pid 10] trap DONE 004712 chown("/dev/tty8", 000006) [177777 061503 000000 177575 177564 177504 177504 002342] [004424 000006]
[pid 10] chown("/dev/tty8", 000006)
002342 103002  bcc 177777 061503 000000 177575 177564 177504 177504   NZVC1 0000
# 002342 bcc 2350 (nextPC=002344)
[pid 10] TRAP
[pid 10] trap 002702 setgid(1) [000001 061503 000000 177575 177564 177506 177506 002702] []
[pid 10] trap DONE 002702 setgid(1) [000001 061503 000000 177575 177564 177506 177506 002702] []
[pid 10] setgid(1)
002702 103002  bcc 000001 061503 000000 177575 177564 177506 177506   NZVC1 0000
# 002702 bcc 2710 (nextPC=002704)
[pid 10] TRAP
[pid 10] trap 002730 setuid(6) [000006 061503 000000 177575 177564 177506 177506 002730] []
[pid 10] trap DONE 002730 setuid(6) [000006 061503 000000 177575 177564 177506 177506 002730] []
[pid 10] setuid(6)
002730 103002  bcc 000006 061503 000000 177575 177564 177506 177506   NZVC1 0000
# 002730 bcc 2736 (nextPC=002732)
[pid 10] TRAP
[pid 10] trap 004720 exec("/bin/sh", 177510) [177510 061503 000000 004600 177564 177502 177502 002434] [004600 177510]
[pid 10] trap DONE 004720 exec("/bin/sh", 177510) [000000 000000 000000 000000 000000 000000 177770 000000] [004600 177510]
[pid 10] exec("/bin/sh", 177510)
000000 170011 setd 000000 000000 000000 000000 000000 000000 177770   NZVC1 1000
# 000000 setd (nextPC=000002)
[pid 10] TRAP
[pid 10] trap 007624 close(2) [000002 000000 000000 000000 000002 177746 177746 007624] []
[pid 10] trap DONE 007624 close(2) [000002 000000 000000 000000 000002 177746 177746 007624] []
[pid 10] close(2): EBADF
007624 103002  bcc 000011 000000 000000 000000 000002 177746 177746   NZVC1 0001
# 007624 bcc 7632 (nextPC=007626)
[pid 10] TRAP
[pid 10] trap 007624 close(3) [000003 000000 000000 000000 000003 177746 177746 007624] []
[pid 10] trap DONE 007624 close(3) [000003 000000 000000 000000 000003 177746 177746 007624] []
[pid 10] close(3): EBADF
007624 103002  bcc 000011 000000 000000 000000 000003 177746 177746   NZVC1 0001
# 007624 bcc 7632 (nextPC=007626)
[pid 10] TRAP
[pid 10] trap 007624 close(4) [000004 000000 000000 000000 000004 177746 177746 007624] []
[pid 10] trap DONE 007624 close(4) [000004 000000 000000 000000 000004 177746 177746 007624] []
[pid 10] close(4): EBADF
007624 103002  bcc 000011 000000 000000 000000 000004 177746 177746   NZVC1 0001
# 007624 bcc 7632 (nextPC=007626)
[pid 10] TRAP
[pid 10] trap 007624 close(5) [000005 000000 000000 000000 000005 177746 177746 007624] []
[pid 10] trap DONE 007624 close(5) [000005 000000 000000 000000 000005 177746 177746 007624] []
[pid 10] close(5): EBADF
007624 103002  bcc 000011 000000 000000 000000 000005 177746 177746   NZVC1 0001
# 007624 bcc 7632 (nextPC=007626)
[pid 10] TRAP
[pid 10] trap 007624 close(6) [000006 000000 000000 000000 000006 177746 177746 007624] []
[pid 10] trap DONE 007624 close(6) [000006 000000 000000 000000 000006 177746 177746 007624] []
[pid 10] close(6): EBADF
007624 103002  bcc 000011 000000 000000 000000 000006 177746 177746   NZVC1 0001
# 007624 bcc 7632 (nextPC=007626)
[pid 10] TRAP
[pid 10] trap 007624 close(7) [000007 000000 000000 000000 000007 177746 177746 007624] []
[pid 10] trap DONE 007624 close(7) [000007 000000 000000 000000 000007 177746 177746 007624] []
[pid 10] close(7): EBADF
007624 103002  bcc 000011 000000 000000 000000 000007 177746 177746   NZVC1 0001
# 007624 bcc 7632 (nextPC=007626)
[pid 10] TRAP
[pid 10] trap 007624 close(8) [000010 000000 000000 000000 000010 177746 177746 007624] []
[pid 10] trap DONE 007624 close(8) [000010 000000 000000 000000 000010 177746 177746 007624] []
[pid 10] close(8): EBADF
007624 103002  bcc 000011 000000 000000 000000 000010 177746 177746   NZVC1 0001
# 007624 bcc 7632 (nextPC=007626)
[pid 10] TRAP
[pid 10] trap 007624 close(9) [000011 000000 000000 000000 000011 177746 177746 007624] []
[pid 10] trap DONE 007624 close(9) [000011 000000 000000 000000 000011 177746 177746 007624] []
[pid 10] close(9): EBADF
007624 103002  bcc 000011 000000 000000 000000 000011 177746 177746   NZVC1 0001
# 007624 bcc 7632 (nextPC=007626)
[pid 10] TRAP
[pid 10] trap 007624 close(10) [000012 000000 000000 000000 000012 177746 177746 007624] []
[pid 10] trap DONE 007624 close(10) [000012 000000 000000 000000 000012 177746 177746 007624] []
[pid 10] close(10): EBADF
007624 103002  bcc 000011 000000 000000 000000 000012 177746 177746   NZVC1 0001
# 007624 bcc 7632 (nextPC=007626)
[pid 10] TRAP
[pid 10] trap 007624 close(11) [000013 000000 000000 000000 000013 177746 177746 007624] []
[pid 10] trap DONE 007624 close(11) [000013 000000 000000 000000 000013 177746 177746 007624] []
[pid 10] close(11): EBADF
007624 103002  bcc 000011 000000 000000 000000 000013 177746 177746   NZVC1 0001
# 007624 bcc 7632 (nextPC=007626)
[pid 10] TRAP
[pid 10] trap 007624 close(12) [000014 000000 000000 000000 000014 177746 177746 007624] []
[pid 10] trap DONE 007624 close(12) [000014 000000 000000 000000 000014 177746 177746 007624] []
[pid 10] close(12): EBADF
007624 103002  bcc 000011 000000 000000 000000 000014 177746 177746   NZVC1 0001
# 007624 bcc 7632 (nextPC=007626)
[pid 10] TRAP
[pid 10] trap 007624 close(13) [000015 000000 000000 000000 000015 177746 177746 007624] []
[pid 10] trap DONE 007624 close(13) [000015 000000 000000 000000 000015 177746 177746 007624] []
[pid 10] close(13): EBADF
007624 103002  bcc 000011 000000 000000 000000 000015 177746 177746   NZVC1 0001
# 007624 bcc 7632 (nextPC=007626)
[pid 10] TRAP
[pid 10] trap 007624 close(14) [000016 000000 000000 000000 000016 177746 177746 007624] []
[pid 10] trap DONE 007624 close(14) [000016 000000 000000 000000 000016 177746 177746 007624] []
[pid 10] close(14): EBADF
007624 103002  bcc 000011 000000 000000 000000 000016 177746 177746   NZVC1 0001
# 007624 bcc 7632 (nextPC=007626)
[pid 10] TRAP
[pid 10] trap 007710 dup(1) [000001 000000 000000 000000 000017 177746 177746 007710] []
[pid 10] trap DONE 007710 dup(1) [000002 000000 000000 000000 000017 177746 177746 007710] []
[pid 10] dup(1) = 2
007710 103002  bcc 000002 000000 000000 000000 000017 177746 177746   NZVC1 0000
# 007710 bcc 7716 (nextPC=007712)
[pid 10] TRAP
[pid 10] trap 011362 getpid() [000002 000000 000000 000000 000002 177746 177746 011362] []
[pid 10] trap DONE 011362 getpid() [000012 000000 000000 000000 000002 177746 177746 011362] []
[pid 10] getpid() = 10
011362 012605  mov 000012 000000 000000 000000 000002 177746 177746   NZVC1 1000
# 011362 mov (sp)+, r5 (nextPC=011364)
[pid 10] TRAP
[pid 10] trap 010030 getuid() [000060 000000 177772 020544 177777 177746 177746 010030] []
[pid 10] trap DONE 010030 getuid() [003006 000000 177772 020544 177777 177746 177746 010030] []
[pid 10] getuid() = 1542
010030 012605  mov 003006 000000 177772 020544 177777 177746 177746   NZVC1 1000
# 010030 mov (sp)+, r5 (nextPC=010032)
[pid 10] TRAP
[pid 10] trap 021476 open("/usr/adm/sha", 1) [003006 000000 177772 020544 177777 177744 177744 010060] [020544 000001]
[pid 10] trap DONE 021476 open("/usr/adm/sha", 1) [003006 000000 177772 020544 177777 177744 177744 010060] [020544 000001]
[pid 10] open("/usr/adm/sha", 1): ENOENT
010060 103002  bcc 000002 000000 177772 020544 177777 177744 177744   NZVC1 0001
# 010060 bcc 10066 (nextPC=010062)
[pid 10] TRAP
[pid 10] trap 021520 sig(3, 000001) [000001 000006 177772 020544 177777 177744 177742 010326] [000003 000001]
[pid 10] trap DONE 021520 sig(3, 000001) [000001 000006 177772 020544 177777 177744 177742 010326] [000003 000001]
[pid 10] sig(3, 000001)
010326 103412  bcs 000001 000006 177772 020544 177777 177744 177742   NZVC1 0000
# 010326 bcs 10354 (nextPC=010330)
[pid 10] TRAP
[pid 10] trap 021520 sig(2, 000001) [000001 000004 177772 020544 177777 177744 177742 010326] [000002 000001]
[pid 10] trap DONE 021520 sig(2, 000001) [000001 000004 177772 020544 177777 177744 177742 010326] [000002 000001]
[pid 10] sig(2, 000001)
010326 103412  bcs 000001 000004 177772 020544 177777 177744 177742   NZVC1 0000
# 010326 bcs 10354 (nextPC=010330)
[pid 10] TRAP
[pid 10] trap 021532 write(2, "%") [000002 000004 177772 020544 020562 177712 177712 011010] [177736 000001]
[pid 10] trap DONE 021532 write(2, "%") [000001 000004 177772 020544 020562 177712 177712 011010] [177736 000001]
[pid 10] write(2, "%") = 1
011010 103002  bcc 000001 000004 177772 020544 020562 177712 177712   NZVC1 0000
# 011010 bcc 11016 (nextPC=011012)
[pid 10] TRAP
[pid 10] trap 021532 write(2, " ") [000002 177724 177772 020544 020563 177712 177712 011010] [177736 000001]
[pid 10] trap DONE 021532 write(2, " ") [000001 177724 177772 020544 020563 177712 177712 011010] [177736 000001]
[pid 10] write(2, " ") = 1
011010 103002  bcc 000001 177724 177772 020544 020563 177712 177712   NZVC1 0000
# 011010 bcc 11016 (nextPC=011012)
[pid 10] TRAP
[pid 10] trap 021504 read(0, 177722, 1) [000000 177740 177772 020544 177777 177710 177710 010154] [177722 000001]
[pid 10] trap DONE 021504 read(0, 177722, 1) [000001 177740 177772 020544 177777 177710 177710 010154] [177722 000001]
[pid 10] read(0, 177722, 1) = "p"
010154 103002  bcc 000001 177740 177772 020544 177777 177710 177710   NZVC1 0000
# 010154 bcc 10162 (nextPC=010156)
001026 020041  cmp 000045 020076 177772 021646 000160 177732 177722   NZVC1 0000
# 001026 cmp r0, -(r1) (nextPC=001030)
006630 105714 tstb 000174 177710 177772 021646 020635 177714 177704   NZVC1 1001
# 006630 tstb (r4) (nextPC=006632)
[pid 10] TRAP
[pid 10] trap 021504 read(0, 177672, 1) [000000 177706 177772 021646 000160 177660 177660 010154] [177672 000001]
[pid 10] trap DONE 021504 read(0, 177672, 1) [000001 177706 177772 021646 000160 177660 177660 010154] [177672 000001]
[pid 10] read(0, 177672, 1) = "s"
010154 103002  bcc 000001 177706 177772 021646 000160 177660 177660   NZVC1 0000
# 010154 bcc 10162 (nextPC=010156)
006634 112400 movb 000051 177710 177772 021646 020634 177714 177704   NZVC1 0000
# 006634 movb (r4)+, r0 (nextPC=006636)
[pid 10] TRAP
[pid 10] trap 021504 read(0, 177672, 1) [000000 177706 177772 021646 000163 177660 177660 010154] [177672 000001]
[pid 10] trap DONE 021504 read(0, 177672, 1) [000001 177706 177772 021646 000163 177660 177660 010154] [177672 000001]
[pid 10] read(0, 177672, 1) = "\n"
010154 103002  bcc 000001 177706 177772 021646 000163 177660 177660   NZVC1 0000
# 010154 bcc 10162 (nextPC=010156)
006630 105714 tstb 000051 177710 177772 021646 020634 177714 177704   NZVC1 1001
# 006630 tstb (r4) (nextPC=006632)
001320 105767 tstb 001320 177724 177772 021651 177777 177716 177706   NZVC1 1000
# 001320 tstb 21612 (nextPC=001324)
011374 010346  mov 006624 177724 177772 021651 177777 177712 177710   NZVC1 1000
# 011374 mov r3, -(sp) (nextPC=011376)
011406 014104  mov 023762 177674 177772 021651 023762 177674 177664   NZVC1 1000
# 011406 mov -(r1), r4 (nextPC=011410)
003430 005265  inc 000002 020246 177772 000000 023620 177654 177624   NZVC1 0000
# 003430 inc -14(r5) (nextPC=003434)
002152 000167  jmp 000000 177664 177772 023762 023620 177672 177662   NZVC1 0100
# 002152 jmp 11404 (nextPC=002156)
011406 014104  mov 000000 177660 023762 020750 021647 177660 177650   NZVC1 1000
# 011406 mov -(r1), r4 (nextPC=011410)
011374 010346  mov 006664 177652 023762 021646 023772 177660 177656   NZVC1 0000
# 011374 mov r3, -(sp) (nextPC=011376)
[pid 10] TRAP
[pid 10] trap 010000 fork() [023772 177652 023762 021646 023772 177662 177662 010000] []
[pid 10] fork -> 11
[pid 10] trap DONE 010000 fork() [000013 177652 023762 021646 023772 177662 177662 010002] []
[pid 10] fork() = 11
010002 103005  bcc 000013 177652 023762 021646 023772 177662 177662   NZVC1 1000
# 010002 bcc 10016 (nextPC=010004)
[pid 10] TRAP
[pid 10] trap 021526 times [006724 177652 023762 021646 023772 177642 177642 010714] [021632]
[pid 10] trap DONE 021526 times [006724 177652 023762 021646 023772 177642 177642 010714] [021632]
[pid 10] times
010714 012605  mov 006724 177652 023762 021646 023772 177642 177642   NZVC1 0000
# 010714 mov (sp)+, r5 (nextPC=010716)
[pid 10] TRAP
[pid 10] trap 010656 time() [006724 177652 023762 021646 023772 177642 177642 010656] []
[pid 10] trap DONE 010656 time() [005221 061503 023762 021646 023772 177642 177642 010656] []
[pid 10] time() = 2705, 25411
010656 010246  mov 005221 061503 023762 021646 023772 177642 177642   NZVC1 1000
# 010656 mov r2, -(sp) (nextPC=010660)
[pid 10] TRAP
[pid 10] trap 010734 wait() [000001 006766 023762 021646 023772 177642 177640 010734] []
010000 000403   br 000012 177652 023762 021646 023772 177662 177662   NZVC1 1000
# 010000 br 10010 (nextPC=010002)
[pid 11] TRAP
[pid 11] trap 021520 sig(2, 000000) [000000 000004 023762 021646 023772 177660 177656 010326] [000002 000000]
[pid 11] trap DONE 021520 sig(2, 000000) [000001 000004 023762 021646 023772 177660 177656 010326] [000002 000000]
[pid 11] sig(2, 000000)
010326 103412  bcs 000001 000004 023762 021646 023772 177660 177656   NZVC1 0100
# 010326 bcs 10354 (nextPC=010330)
[pid 11] TRAP
[pid 11] trap 021520 sig(3, 000000) [000000 000006 023762 021646 023772 177660 177656 010326] [000003 000000]
[pid 11] trap DONE 021520 sig(3, 000000) [000001 000006 023762 021646 023772 177660 177656 010326] [000003 000000]
[pid 11] sig(3, 000000)
010326 103412  bcs 000001 000006 023762 021646 023772 177660 177656   NZVC1 0100
# 010326 bcs 10354 (nextPC=010330)
[pid 11] TRAP
[pid 11] trap 007624 close(-1) [177777 000006 023762 021646 023772 177662 177662 007624] []
[pid 11] trap DONE 007624 close(-1) [177777 000006 023762 021646 023772 177662 177662 007624] []
[pid 11] close(-1): EBADF
007624 103002  bcc 000011 000006 023762 021646 023772 177662 177662   NZVC1 1001
# 007624 bcc 7632 (nextPC=007626)
011376 010246  mov 003606 177634 024006 000163 021647 177642 177636   NZVC1 0000
# 011376 mov r2, -(sp) (nextPC=011400)
003652 016500  mov 003652 177652 024006 000160 021646 177642 177632   NZVC1 0000
# 003652 mov 4(r5), r0 (nextPC=003656)
[pid 11] TRAP
[pid 11] trap 021470 exec("ps", 024004) [006204 177652 023762 021646 023772 177642 177642 007766] [021646 024004]
[pid 11] trap DONE 021470 exec("ps", 024004) [006204 177652 023762 021646 023772 177642 177642 007766] [021646 024004]
[pid 11] exec("ps", 024004): ENOENT
007766 000167  jmp 000002 177652 023762 021646 023772 177642 177642   NZVC1 0101
# 007766 jmp 11422 (nextPC=007772)
[pid 11] TRAP
[pid 11] trap 021470 exec("/bin/ps", 024004) [006204 177652 021651 021667 023772 177642 177642 007766] [021657 024004]
[pid 11] trap DONE 021470 exec("/bin/ps", 024004) [000000 000000 000000 000000 000000 000000 177766 000000] [021657 024004]
[pid 11] exec("/bin/ps", 024004)
000000 170011 setd 000000 000000 000000 000000 000000 000000 177766   NZVC1 0100
# 000000 setd (nextPC=000002)
[pid 11] TRAP
[pid 11] trap 006114 chdir("/dev") [000034 000000 000000 000000 000000 177722 177722 003776] [005406]
[pid 11] trap DONE 006114 chdir("/dev") [000034 000000 000000 000000 000000 177722 177722 003776] [005406]
[pid 11] chdir("/dev")
003776 103002  bcc 000034 000000 000000 000000 000000 177722 177722   NZVC1 0000
# 003776 bcc 4004 (nextPC=004000)
002304 005265  inc 011004 005454 000000 000000 000000 177720 177710   NZVC1 0000
# 002304 inc 6(r5) (nextPC=002310)
[pid 11] TRAP
[pid 11] trap 006120 open("/unix", 0) [011014 010764 000000 000000 000000 177720 177716 004116] [005461 000000]
[pid 11] trap DONE 006120 open("/unix", 0) [000003 010764 000000 000000 000000 177720 177716 004116] [005461 000000]
[pid 11] open("/unix", 0) = 3
004116 103530  bcs 000003 010764 000000 000000 000000 177720 177716   NZVC1 0100
# 004116 bcs 4400 (nextPC=004120)
[pid 11] TRAP
[pid 11] trap 004124 read(3, 013646, 16) [000003 010764 000003 000000 000000 177720 177716 004130] [013646 000020]
[pid 11] trap DONE 004124 read(3, 013646, 16) [000020 010764 000003 000000 000000 177720 177716 004130] [013646 000020]
[pid 11] read(3, 013646, 16) = "\a\x01\b[ \ar<\xd4\r\x00\x00\x00\x00\x01\x00"
004130 020027  cmp 000020 010764 000003 000000 000000 177720 177716   NZVC1 0000
# 004130 cmp r0, #20 (nextPC=004134)
[pid 11] TRAP
[pid 11] trap 006126 seek(3, 25144, 0) [000003 010764 000003 000000 000000 177720 177716 004260] [061070 000000]
[pid 11] trap DONE 006126 seek(3, 25144, 0) [000003 010764 000003 000000 000000 177720 177716 004260] [061070 000000]
[pid 11] seek(3, 25144, 0) = 3
004260 162767  sub 000003 010764 000003 000000 000000 177720 177716   NZVC1 0000
# 004260 sub #14, 13666 (nextPC=004266)
[pid 11] TRAP
[pid 11] trap 004274 read(3, 013646, 12) [000003 010764 000003 000000 000000 177720 177716 004300] [013646 000014]
[pid 11] trap DONE 004274 read(3, 013646, 12) [000014 010764 000003 000000 000000 177720 177716 004300] [013646 000014]
[pid 11] read(3, 013646, 12) = "trap\x00\x00\x00\x00#\x00\xea\x01"
004300 020027  cmp 000014 010764 000003 000000 000000 177720 177716   NZVC1 0000
# 004300 cmp r0, #14 (nextPC=004304)
[pid 11] TRAP
[pid 11] trap 004274 read(3, 013646, 12) [000003 010764 000003 000000 000000 177720 177716 004300] [013646 000014]
[pid 11] trap DONE 004274 read(3, 013646, 12) [000014 010764 000003 000000 000000 177720 177716 004300] [013646 000014]
[pid 11] read(3, 013646, 12) = "start\x00\x00\x00#\x00\x16\x01"
004300 020027  cmp 000014 010764 000003 000000 000000 177720 177716   NZVC1 0000
# 004300 cmp r0, #14 (nextPC=004304)
[pid 11] TRAP
[pid 11] trap 004274 read(3, 013646, 12) [000003 010764 000003 000000 000000 177720 177716 004300] [013646 000014]
[pid 11] trap DONE 004274 read(3, 013646, 12) [000014 010764 000003 000000 000000 177720 177716 004300] [013646 000014]
[pid 11] read(3, 013646, 12) = "dump\x00\x00\x00\x00#\x00\xd4\x00"
004300 020027  cmp 000014 010764 000003 000000 000000 177720 177716   NZVC1 0000
# 004300 cmp r0, #14 (nextPC=004304)
[pid 11] TRAP
[pid 11] trap 004274 read(3, 013646, 12) [000003 010764 000003 000000 000000 177720 177716 004300] [013646 000014]
[pid 11] trap DONE 004274 read(3, 013646, 12) [000014 010764 000003 000000 000000 177720 177716 004300] [013646 000014]
[pid 11] read(3, 013646, 12) = "call\x00\x00\x00\x00\"\x00\b "
004300 020027  cmp 000014 010764 000003 000000 000000 177720 177716   NZVC1 0000
# 004300 cmp r0, #14 (nextPC=004304)
[pid 11] TRAP
[pid 11] trap 004274 read(3, 013646, 12) [000003 010764 000003 000000 000000 177720 177716 004300] [013646 000014]
[pid 11] trap DONE 004274 read(3, 013646, 12) [000014 010764 000003 000000 000000 177720 177716 004300] [013646 000014]
[pid 11] read(3, 013646, 12) = "_klrint\x00\"\x00Dr"
004300 020027  cmp 000014 010764 000003 000000 000000 177720 177716   NZVC1 0000
# 004300 cmp r0, #14 (nextPC=004304)
[pid 11] TRAP
[pid 11] trap 004274 read(3, 013646, 12) [000003 010764 000003 000000 000000 177720 177716 004300] [013646 000014]
[pid 11] trap DONE 004274 read(3, 013646, 12) [000014 010764 000003 000000 000000 177720 177716 004300] [013646 000014]
[pid 11] read(3, 013646, 12) = "_klxint\x00\"\x00\x12r"
004300 020027  cmp 000014 010764 000003 000000 000000 177720 177716   NZVC1 0000
# 004300 cmp r0, #14 (nextPC=004304)
[pid 11] TRAP
[pid 11] trap 004274 read(3, 013646, 12) [000003 010764 000003 000000 000000 177720 177716 004300] [013646 000014]
[pid 11] trap DONE 004274 read(3, 013646, 12) [000014 010764 000003 000000 000000 177720 177716 004300] [013646 000014]
[pid 11] read(3, 013646, 12) = "_clock\x00\x00\"\x00\xb8G"
004300 020027  cmp 000014 010764 000003 000000 000000 177720 177716   NZVC1 0000
# 004300 cmp r0, #14 (nextPC=004304)
[pid 11] TRAP
[pid 11] trap 004274 read(3, 013646, 12) [000003 010764 000003 000000 000000 177720 177716 004300] [013646 000014]
[pid 11] trap DONE 004274 read(3, 013646, 12) [000014 010764 000003 000000 000000 177720 177716 004300] [013646 000014]
[pid 11] read(3, 013646, 12) = "_hsintr\x00\"\x00tz"
004300 020027  cmp 000014 010764 000003 000000 000000 177720 177716   NZVC1 0000
# 004300 cmp r0, #14 (nextPC=004304)
[pid 11] TRAP
[pid 11] trap 004274 read(3, 013646, 12) [000003 010764 000003 000000 000000 177720 177716 004300] [013646 000014]
[pid 11] trap DONE 004274 read(3, 013646, 12) [000014 010764 000003 000000 000000 177720 177716 004300] [013646 000014]
[pid 11] read(3, 013646, 12) = "_htintr\x00\"\x00\x9ex"
004300 020027  cmp 000014 010764 000003 000000 000000 177720 177716   NZVC1 0000
# 004300 cmp r0, #14 (nextPC=004304)
[pid 11] TRAP
[pid 11] trap 004274 read(3, 013646, 12) [000003 010764 000003 000000 000000 177720 177716 004300] [013646 000014]
[pid 11] trap DONE 004274 read(3, 013646, 12) [000014 010764 000003 000000 000000 177720 177716 004300] [013646 000014]
[pid 11] read(3, 013646, 12) = "_hpintr\x00\"\x00\x10u"
004300 020027  cmp 000014 010764 000003 000000 000000 177720 177716   NZVC1 0000
# 004300 cmp r0, #14 (nextPC=004304)
[pid 11] TRAP
[pid 11] trap 004274 read(3, 013646, 12) [000003 010764 000003 000000 000000 177720 177716 004300] [013646 000014]
[pid 11] trap DONE 004274 read(3, 013646, 12) [000014 010764 000003 000000 000000 177720 177716 004300] [013646 000014]
[pid 11] read(3, 013646, 12) = "_end\x00\x00\x00\x00$\x00\x92C"
004300 020027  cmp 000014 010764 000003 000000 000000 177720 177716   NZVC1 0000
# 004300 cmp r0, #14 (nextPC=004304)
[pid 11] TRAP
[pid 11] trap 004274 read(3, 013646, 12) [000003 010764 000003 000000 000000 177720 177716 004300] [013646 000014]
[pid 11] trap DONE 004274 read(3, 013646, 12) [000014 010764 000003 000000 000000 177720 177716 004300] [013646 000014]
[pid 11] read(3, 013646, 12) = "_edata\x00\x00#\x00 \a"
004300 020027  cmp 000014 010764 000003 000000 000000 177720 177716   NZVC1 0000
# 004300 cmp r0, #14 (nextPC=004304)
[pid 11] TRAP
[pid 11] trap 004274 read(3, 013646, 12) [000003 010764 000003 000000 000000 177720 177716 004300] [013646 000014]
[pid 11] trap DONE 004274 read(3, 013646, 12) [000014 010764 000003 000000 000000 177720 177716 004300] [013646 000014]
[pid 11] read(3, 013646, 12) = "_etext\x00\x00\"\x00\b{"
004300 020027  cmp 000014 010764 000003 000000 000000 177720 177716   NZVC1 0000
# 004300 cmp r0, #14 (nextPC=004304)
[pid 11] TRAP
[pid 11] trap 004274 read(3, 013646, 12) [000003 010764 000003 000000 000000 177720 177716 004300] [013646 000014]
[pid 11] trap DONE 004274 read(3, 013646, 12) [000014 010764 000003 000000 000000 177720 177716 004300] [013646 000014]
[pid 11] read(3, 013646, 12) = "_main\x00\x00\x00\"\x00\xba$"
004300 020027  cmp 000014 010764 000003 000000 000000 177720 177716   NZVC1 0000
# 004300 cmp r0, #14 (nextPC=004304)
[pid 11] TRAP
[pid 11] trap 004274 read(3, 013646, 12) [000003 010764 000003 000000 000000 177720 177716 004300] [013646 000014]
[pid 11] trap DONE 004274 read(3, 013646, 12) [000014 010764 000003 000000 000000 177720 177716 004300] [013646 000014]
[pid 11] read(3, 013646, 12) = "_cputype#\x00\"\x02"
004300 020027  cmp 000014 010764 000003 000000 000000 177720 177716   NZVC1 0000
# 004300 cmp r0, #14 (nextPC=004304)
[pid 11] TRAP
[pid 11] trap 004274 read(3, 013646, 12) [000003 010764 000003 000000 000000 177720 177716 004300] [013646 000014]
[pid 11] trap DONE 004274 read(3, 013646, 12) [000014 010764 000003 000000 000000 177720 177716 004300] [013646 000014]
[pid 11] read(3, 013646, 12) = "_u\x00\x00\x00\x00\x00\x00!\x00\x00\xc0"
004300 020027  cmp 000014 010764 000003 000000 000000 177720 177716   NZVC1 0000
# 004300 cmp r0, #14 (nextPC=004304)
[pid 11] TRAP
[pid 11] trap 004274 read(3, 013646, 12) [000003 010764 000003 000000 000000 177720 177716 004300] [013646 000014]
[pid 11] trap DONE 004274 read(3, 013646, 12) [000014 010764 000003 000000 000000 177720 177716 004300] [013646 000014]
[pid 11] read(3, 013646, 12) = "_trap\x00\x00\x00\"\x00\x88@"
004300 020027  cmp 000014 010764 000003 000000 000000 177720 177716   NZVC1 0000
# 004300 cmp r0, #14 (nextPC=004304)
[pid 11] TRAP
[pid 11] trap 004274 read(3, 013646, 12) [000003 010764 000003 000000 000000 177720 177716 004300] [013646 000014]
[pid 11] trap DONE 004274 read(3, 013646, 12) [000014 010764 000003 000000 000000 177720 177716 004300] [013646 000014]
[pid 11] read(3, 013646, 12) = "nofault\x00$\x00\x84C"
004300 020027  cmp 000014 010764 000003 000000 000000 177720 177716   NZVC1 0000
# 004300 cmp r0, #14 (nextPC=004304)
[pid 11] TRAP
[pid 11] trap 004274 read(3, 013646, 12) [000003 010764 000003 000000 000000 177720 177716 004300] [013646 000014]
[pid 11] trap DONE 004274 read(3, 013646, 12) [000014 010764 000003 000000 000000 177720 177716 004300] [013646 000014]
[pid 11] read(3, 013646, 12) = "ssr\x00\x00\x00\x00\x00$\x00\x86C"
004300 020027  cmp 000014 010764 000003 000000 000000 177720 177716   NZVC1 0000
# 004300 cmp r0, #14 (nextPC=004304)
[pid 11] TRAP
[pid 11] trap 004274 read(3, 013646, 12) [000003 010764 000003 000000 000000 177720 177716 004300] [013646 000014]
[pid 11] trap DONE 004274 read(3, 013646, 12) [000014 010764 000003 000000 000000 177720 177716 004300] [013646 000014]
[pid 11] read(3, 013646, 12) = "_runrun\x00$\x00 \a"
004300 020027  cmp 000014 010764 000003 000000 000000 177720 177716   NZVC1 0000
# 004300 cmp r0, #14 (nextPC=004304)
[pid 11] TRAP
[pid 11] trap 004274 read(3, 013646, 12) [000003 010764 000003 000000 000000 177720 177716 004300] [013646 000014]
[pid 11] trap DONE 004274 read(3, 013646, 12) [000014 010764 000003 000000 000000 177720 177716 004300] [013646 000014]
[pid 11] read(3, 013646, 12) = "_swtch\x00\x00\"\x00\x9c8"
004300 020027  cmp 000014 010764 000003 000000 000000 177720 177716   NZVC1 0000
# 004300 cmp r0, #14 (nextPC=004304)
[pid 11] TRAP
[pid 11] trap 004274 read(3, 013646, 12) [000003 010764 000003 000000 000000 177720 177716 004300] [013646 000014]
[pid 11] trap DONE 004274 read(3, 013646, 12) [000014 010764 000003 000000 000000 177720 177716 004300] [013646 000014]
[pid 11] read(3, 013646, 12) = "_savfp\x00\x00\"\x00t "
004300 020027  cmp 000014 010764 000003 000000 000000 177720 177716   NZVC1 0000
# 004300 cmp r0, #14 (nextPC=004304)
[pid 11] TRAP
[pid 11] trap 004274 read(3, 013646, 12) [000003 010764 000003 000000 000000 177720 177716 004300] [013646 000014]
[pid 11] trap DONE 004274 read(3, 013646, 12) [000014 010764 000003 000000 000000 177720 177716 004300] [013646 000014]
[pid 11] read(3, 013646, 12) = "_incupc\x00\"\x00\x92 "
004300 020027  cmp 000014 010764 000003 000000 000000 177720 177716   NZVC1 0000
# 004300 cmp r0, #14 (nextPC=004304)
[pid 11] TRAP
[pid 11] trap 004274 read(3, 013646, 12) [000003 010764 000003 000000 000000 177720 177716 004300] [013646 000014]
[pid 11] trap DONE 004274 read(3, 013646, 12) [000014 010764 000003 000000 000000 177720 177716 004300] [013646 000014]
[pid 11] read(3, 013646, 12) = "_display\"\x00\xd8 "
004300 020027  cmp 000014 010764 000003 000000 000000 177720 177716   NZVC1 0000
# 004300 cmp r0, #14 (nextPC=004304)
[pid 11] TRAP
[pid 11] trap 004274 read(3, 013646, 12) [000003 010764 000003 000000 000000 177720 177716 004300] [013646 000014]
[pid 11] trap DONE 004274 read(3, 013646, 12) [000014 010764 000003 000000 000000 177720 177716 004300] [013646 000014]
[pid 11] read(3, 013646, 12) = "_getc\x00\x00\x00\"\x00\x18!"
004300 020027  cmp 000014 010764 000003 000000 000000 177720 177716   NZVC1 0000
# 004300 cmp r0, #14 (nextPC=004304)
[pid 11] TRAP
[pid 11] trap 004274 read(3, 013646, 12) [000003 010764 000003 000000 000000 177720 177716 004300] [013646 000014]
[pid 11] trap DONE 004274 read(3, 013646, 12) [000014 010764 000003 000000 000000 177720 177716 004300] [013646 000014]
[pid 11] read(3, 013646, 12) = "_putc\x00\x00\x00\"\x00r!"
004300 020027  cmp 000014 010764 000003 000000 000000 177720 177716   NZVC1 0000
# 004300 cmp r0, #14 (nextPC=004304)
[pid 11] TRAP
[pid 11] trap 004274 read(3, 013646, 12) [000003 010764 000003 000000 000000 177720 177716 004300] [013646 000014]
[pid 11] trap DONE 004274 read(3, 013646, 12) [000014 010764 000003 000000 000000 177720 177716 004300] [013646 000014]
[pid 11] read(3, 013646, 12) = "_cfreeli$\x00\"\a"
004300 020027  cmp 000014 010764 000003 000000 000000 177720 177716   NZVC1 0000
# 004300 cmp r0, #14 (nextPC=004304)
[pid 11] TRAP
[pid 11] trap 004274 read(3, 013646, 12) [000003 010764 000003 000000 000000 177720 177716 004300] [013646 000014]
[pid 11] trap DONE 004274 read(3, 013646, 12) [000014 010764 000003 000000 000000 177720 177716 004300] [013646 000014]
[pid 11] read(3, 013646, 12) = "_backup\x00\"\x00\xd4!"
004300 020027  cmp 000014 010764 000003 000000 000000 177720 177716   NZVC1 0000
# 004300 cmp r0, #14 (nextPC=004304)
[pid 11] TRAP
[pid 11] trap 004274 read(3, 013646, 12) [000003 010764 000003 000000 000000 177720 177716 004300] [013646 000014]
[pid 11] trap DONE 004274 read(3, 013646, 12) [000014 010764 000003 000000 000000 177720 177716 004300] [013646 000014]
[pid 11] read(3, 013646, 12) = "_regloc\x00#\x00\x10\x04"
004300 020027  cmp 000014 010764 000003 000000 000000 177720 177716   NZVC1 0000
# 004300 cmp r0, #14 (nextPC=004304)
[pid 11] TRAP
[pid 11] trap 004274 read(3, 013646, 12) [000003 010764 000003 000000 000000 177720 177716 004300] [013646 000014]
[pid 11] trap DONE 004274 read(3, 013646, 12) [000014 010764 000003 000000 000000 177720 177716 004300] [013646 000014]
[pid 11] read(3, 013646, 12) = "_fubyte\x00\"\x00\x1e\""
004300 020027  cmp 000014 010764 000003 000000 000000 177720 177716   NZVC1 0000
# 004300 cmp r0, #14 (nextPC=004304)
[pid 11] TRAP
[pid 11] trap 004274 read(3, 013646, 12) [000003 010764 000003 000000 000000 177720 177716 004300] [013646 000014]
[pid 11] trap DONE 004274 read(3, 013646, 12) [000014 010764 000003 000000 000000 177720 177716 004300] [013646 000014]
[pid 11] read(3, 013646, 12) = "_subyte\x00\"\x00b\""
004300 020027  cmp 000014 010764 000003 000000 000000 177720 177716   NZVC1 0000
# 004300 cmp r0, #14 (nextPC=004304)
[pid 11] TRAP
[pid 11] trap 004274 read(3, 013646, 12) [000003 010764 000003 000000 000000 177720 177716 004300] [013646 000014]
[pid 11] trap DONE 004274 read(3, 013646, 12) [000014 010764 000003 000000 000000 177720 177716 004300] [013646 000014]
[pid 11] read(3, 013646, 12) = "_fuword\x00\"\x00\x96\""
004300 020027  cmp 000014 010764 000003 000000 000000 177720 177716   NZVC1 0000
# 004300 cmp r0, #14 (nextPC=004304)
[pid 11] TRAP
[pid 11] trap 004274 read(3, 013646, 12) [000003 010764 000003 000000 000000 177720 177716 004300] [013646 000014]
[pid 11] trap DONE 004274 read(3, 013646, 12) [000014 010764 000003 000000 000000 177720 177716 004300] [013646 000014]
[pid 11] read(3, 013646, 12) = "_suword\x00\"\x00\xda\""
004300 020027  cmp 000014 010764 000003 000000 000000 177720 177716   NZVC1 0000
# 004300 cmp r0, #14 (nextPC=004304)
[pid 11] TRAP
[pid 11] trap 004274 read(3, 013646, 12) [000003 010764 000003 000000 000000 177720 177716 004300] [013646 000014]
[pid 11] trap DONE 004274 read(3, 013646, 12) [000014 010764 000003 000000 000000 177720 177716 004300] [013646 000014]
[pid 11] read(3, 013646, 12) = "_fuibyte\"\x00\x10\""
004300 020027  cmp 000014 010764 000003 000000 000000 177720 177716   NZVC1 0000
# 004300 cmp r0, #14 (nextPC=004304)
[pid 11] TRAP
[pid 11] trap 004274 read(3, 013646, 12) [000003 010764 000003 000000 000000 177720 177716 004300] [013646 000014]
[pid 11] trap DONE 004274 read(3, 013646, 12) [000014 010764 000003 000000 000000 177720 177716 004300] [013646 000014]
[pid 11] read(3, 013646, 12) = "_suibyte\"\x008\""
004300 020027  cmp 000014 010764 000003 000000 000000 177720 177716   NZVC1 0000
# 004300 cmp r0, #14 (nextPC=004304)
[pid 11] TRAP
[pid 11] trap 004274 read(3, 013646, 12) [000003 010764 000003 000000 000000 177720 177716 004300] [013646 000014]
[pid 11] trap DONE 004274 read(3, 013646, 12) [000014 010764 000003 000000 000000 177720 177716 004300] [013646 000014]
[pid 11] read(3, 013646, 12) = "_fuiword\"\x00\x8c\""
004300 020027  cmp 000014 010764 000003 000000 000000 177720 177716   NZVC1 0000
# 004300 cmp r0, #14 (nextPC=004304)
[pid 11] TRAP
[pid 11] trap 004274 read(3, 013646, 12) [000003 010764 000003 000000 000000 177720 177716 004300] [013646 000014]
[pid 11] trap DONE 004274 read(3, 013646, 12) [000014 010764 000003 000000 000000 177720 177716 004300] [013646 000014]
[pid 11] read(3, 013646, 12) = "_suiword\"\x00\xcc\""
004300 020027  cmp 000014 010764 000003 000000 000000 177720 177716   NZVC1 0000
# 004300 cmp r0, #14 (nextPC=004304)
[pid 11] TRAP
[pid 11] trap 004274 read(3, 013646, 12) [000003 010764 000003 000000 000000 177720 177716 004300] [013646 000014]
[pid 11] trap DONE 004274 read(3, 013646, 12) [000014 010764 000003 000000 000000 177720 177716 004300] [013646 000014]
[pid 11] read(3, 013646, 12) = "_copyin\x00\"\x008#"
004300 020027  cmp 000014 010764 000003 000000 000000 177720 177716   NZVC1 0000
# 004300 cmp r0, #14 (nextPC=004304)
[pid 11] TRAP
[pid 11] trap 004274 read(3, 013646, 12) [000003 010764 000003 000000 000000 177720 177716 004300] [013646 000014]
[pid 11] trap DONE 004274 read(3, 013646, 12) [000014 010764 000003 000000 000000 177720 177716 004300] [013646 000014]
[pid 11] read(3, 013646, 12) = "_copyout\"\x00P#"
004300 020027  cmp 000014 010764 000003 000000 000000 177720 177716   NZVC1 0000
# 004300 cmp r0, #14 (nextPC=004304)
[pid 11] TRAP
[pid 11] trap 004274 read(3, 013646, 12) [000003 010764 000003 000000 000000 177720 177716 004300] [013646 000014]
[pid 11] trap DONE 004274 read(3, 013646, 12) [000014 010764 000003 000000 000000 177720 177716 004300] [013646 000014]
[pid 11] read(3, 013646, 12) = "_copyiin\"\x00,#"
004300 020027  cmp 000014 010764 000003 000000 000000 177720 177716   NZVC1 0000
# 004300 cmp r0, #14 (nextPC=004304)
[pid 11] TRAP
[pid 11] trap 004274 read(3, 013646, 12) [000003 010764 000003 000000 000000 177720 177716 004300] [013646 000014]
[pid 11] trap DONE 004274 read(3, 013646, 12) [000014 010764 000003 000000 000000 177720 177716 004300] [013646 000014]
[pid 11] read(3, 013646, 12) = "_copyiou\"\x00D#"
004300 020027  cmp 000014 010764 000003 000000 000000 177720 177716   NZVC1 0000
# 004300 cmp r0, #14 (nextPC=004304)
[pid 11] TRAP
[pid 11] trap 004274 read(3, 013646, 12) [000003 010764 000003 000000 000000 177720 177716 004300] [013646 000014]
[pid 11] trap DONE 004274 read(3, 013646, 12) [000014 010764 000003 000000 000000 177720 177716 004300] [013646 000014]
[pid 11] read(3, 013646, 12) = "_idle\x00\x00\x00\"\x00\x90#"
004300 020027  cmp 000014 010764 000003 000000 000000 177720 177716   NZVC1 0000
# 004300 cmp r0, #14 (nextPC=004304)
[pid 11] TRAP
[pid 11] trap 004274 read(3, 013646, 12) [000003 010764 000003 000000 000000 177720 177716 004300] [013646 000014]
[pid 11] trap DONE 004274 read(3, 013646, 12) [000014 010764 000003 000000 000000 177720 177716 004300] [013646 000014]
[pid 11] read(3, 013646, 12) = "_savu\x00\x00\x00\"\x00\x9e#"
004300 020027  cmp 000014 010764 000003 000000 000000 177720 177716   NZVC1 0000
# 004300 cmp r0, #14 (nextPC=004304)
[pid 11] TRAP
[pid 11] trap 004274 read(3, 013646, 12) [000003 010764 000003 000000 000000 177720 177716 004300] [013646 000014]
[pid 11] trap DONE 004274 read(3, 013646, 12) [000014 010764 000003 000000 000000 177720 177716 004300] [013646 000014]
[pid 11] read(3, 013646, 12) = "_retu\x00\x00\x00\"\x00\xb4#"
004300 020027  cmp 000014 010764 000003 000000 000000 177720 177716   NZVC1 0000
# 004300 cmp r0, #14 (nextPC=004304)
[pid 11] TRAP
[pid 11] trap 004274 read(3, 013646, 12) [000003 010764 000003 000000 000000 177720 177716 004300] [013646 000014]
[pid 11] trap DONE 004274 read(3, 013646, 12) [000014 010764 000003 000000 000000 177720 177716 004300] [013646 000014]
[pid 11] read(3, 013646, 12) = "_aretu\x00\x00\"\x00\xac#"
004300 020027  cmp 000014 010764 000003 000000 000000 177720 177716   NZVC1 0000
# 004300 cmp r0, #14 (nextPC=004304)
[pid 11] TRAP
[pid 11] trap 004274 read(3, 013646, 12) [000003 010764 000003 000000 000000 177720 177716 004300] [013646 000014]
[pid 11] trap DONE 004274 read(3, 013646, 12) [000014 010764 000003 000000 000000 177720 177716 004300] [013646 000014]
[pid 11] read(3, 013646, 12) = "_spl0\x00\x00\x00\"\x00\xc8#"
004300 020027  cmp 000014 010764 000003 000000 000000 177720 177716   NZVC1 0000
# 004300 cmp r0, #14 (nextPC=004304)
[pid 11] TRAP
[pid 11] trap 004274 read(3, 013646, 12) [000003 010764 000003 000000 000000 177720 177716 004300] [013646 000014]
[pid 11] trap DONE 004274 read(3, 013646, 12) [000014 010764 000003 000000 000000 177720 177716 004300] [013646 000014]
[pid 11] read(3, 013646, 12) = "_spl1\x00\x00\x00\"\x00\xcc#"
004300 020027  cmp 000014 010764 000003 000000 000000 177720 177716   NZVC1 0000
# 004300 cmp r0, #14 (nextPC=004304)
[pid 11] TRAP
[pid 11] trap 004274 read(3, 013646, 12) [000003 010764 000003 000000 000000 177720 177716 004300] [013646 000014]
[pid 11] trap DONE 004274 read(3, 013646, 12) [000014 010764 000003 000000 000000 177720 177716 004300] [013646 000014]
[pid 11] read(3, 013646, 12) = "_spl4\x00\x00\x00\"\x00\xd0#"
004300 020027  cmp 000014 010764 000003 000000 000000 177720 177716   NZVC1 0000
# 004300 cmp r0, #14 (nextPC=004304)
[pid 11] TRAP
[pid 11] trap 004274 read(3, 013646, 12) [000003 010764 000003 000000 000000 177720 177716 004300] [013646 000014]
[pid 11] trap DONE 004274 read(3, 013646, 12) [000014 010764 000003 000000 000000 177720 177716 004300] [013646 000014]
[pid 11] read(3, 013646, 12) = "_spl5\x00\x00\x00\"\x00\xd4#"
004300 020027  cmp 000014 010764 000003 000000 000000 177720 177716   NZVC1 0000
# 004300 cmp r0, #14 (nextPC=004304)
[pid 11] TRAP
[pid 11] trap 004274 read(3, 013646, 12) [000003 010764 000003 000000 000000 177720 177716 004300] [013646 000014]
[pid 11] trap DONE 004274 read(3, 013646, 12) [000014 010764 000003 000000 000000 177720 177716 004300] [013646 000014]
[pid 11] read(3, 013646, 12) = "_spl6\x00\x00\x00\"\x00\xd8#"
004300 020027  cmp 000014 010764 000003 000000 000000 177720 177716   NZVC1 0000
# 004300 cmp r0, #14 (nextPC=004304)
[pid 11] TRAP
[pid 11] trap 004274 read(3, 013646, 12) [000003 010764 000003 000000 000000 177720 177716 004300] [013646 000014]
[pid 11] trap DONE 004274 read(3, 013646, 12) [000014 010764 000003 000000 000000 177720 177716 004300] [013646 000014]
[pid 11] read(3, 013646, 12) = "_spl7\x00\x00\x00\"\x00\xdc#"
004300 020027  cmp 000014 010764 000003 000000 000000 177720 177716   NZVC1 0000
# 004300 cmp r0, #14 (nextPC=004304)
[pid 11] TRAP
[pid 11] trap 004274 read(3, 013646, 12) [000003 010764 000003 000000 000000 177720 177716 004300] [013646 000014]
[pid 11] trap DONE 004274 read(3, 013646, 12) [000014 010764 000003 000000 000000 177720 177716 004300] [013646 000014]
[pid 11] read(3, 013646, 12) = "_copyseg\"\x00\xe0#"
004300 020027  cmp 000014 010764 000003 000000 000000 177720 177716   NZVC1 0000
# 004300 cmp r0, #14 (nextPC=004304)
[pid 11] TRAP
[pid 11] trap 004274 read(3, 013646, 12) [000003 010764 000003 000000 000000 177720 177716 004300] [013646 000014]
[pid 11] trap DONE 004274 read(3, 013646, 12) [000014 010764 000003 000000 000000 177720 177716 004300] [013646 000014]
[pid 11] read(3, 013646, 12) = "_clearse\"\x00\x10$"
004300 020027  cmp 000014 010764 000003 000000 000000 177720 177716   NZVC1 0000
# 004300 cmp r0, #14 (nextPC=004304)
[pid 11] TRAP
[pid 11] trap 004274 read(3, 013646, 12) [000003 010764 000003 000000 000000 177720 177716 004300] [013646 000014]
[pid 11] trap DONE 004274 read(3, 013646, 12) [000014 010764 000003 000000 000000 177720 177716 004300] [013646 000014]
[pid 11] read(3, 013646, 12) = "_dpadd\x00\x00\"\x002$"
004300 020027  cmp 000014 010764 000003 000000 000000 177720 177716   NZVC1 0000
# 004300 cmp r0, #14 (nextPC=004304)
[pid 11] TRAP
[pid 11] trap 004274 read(3, 013646, 12) [000003 010764 000003 000000 000000 177720 177716 004300] [013646 000014]
[pid 11] trap DONE 004274 read(3, 013646, 12) [000014 010764 000003 000000 000000 177720 177716 004300] [013646 000014]
[pid 11] read(3, 013646, 12) = "_dpcmp\x00\x00\"\x00@$"
004300 020027  cmp 000014 010764 000003 000000 000000 177720 177716   NZVC1 0000
# 004300 cmp r0, #14 (nextPC=004304)
[pid 11] TRAP
[pid 11] trap 004274 read(3, 013646, 12) [000003 010764 000003 000000 000000 177720 177716 004300] [013646 000014]
[pid 11] trap DONE 004274 read(3, 013646, 12) [000014 010764 000003 000000 000000 177720 177716 004300] [013646 000014]
[pid 11] read(3, 013646, 12) = "_ldiv\x00\x00\x00\"\x00v$"
004300 020027  cmp 000014 010764 000003 000000 000000 177720 177716   NZVC1 0000
# 004300 cmp r0, #14 (nextPC=004304)
[pid 11] TRAP
[pid 11] trap 004274 read(3, 013646, 12) [000003 010764 000003 000000 000000 177720 177716 004300] [013646 000014]
[pid 11] trap DONE 004274 read(3, 013646, 12) [000014 010764 000003 000000 000000 177720 177716 004300] [013646 000014]
[pid 11] read(3, 013646, 12) = "_lrem\x00\x00\x00\"\x00\x82$"
004300 020027  cmp 000014 010764 000003 000000 000000 177720 177716   NZVC1 0000
# 004300 cmp r0, #14 (nextPC=004304)
[pid 11] TRAP
[pid 11] trap 004274 read(3, 013646, 12) [000003 010764 000003 000000 000000 177720 177716 004300] [013646 000014]
[pid 11] trap DONE 004274 read(3, 013646, 12) [000014 010764 000003 000000 000000 177720 177716 004300] [013646 000014]
[pid 11] read(3, 013646, 12) = "_lshift\x00\"\x00\x90$"
004300 020027  cmp 000014 010764 000003 000000 000000 177720 177716   NZVC1 0000
# 004300 cmp r0, #14 (nextPC=004304)
[pid 11] TRAP
[pid 11] trap 004274 read(3, 013646, 12) [000003 010764 000003 000000 000000 177720 177716 004300] [013646 000014]
[pid 11] trap DONE 004274 read(3, 013646, 12) [000014 010764 000003 000000 000000 177720 177716 004300] [013646 000014]
[pid 11] read(3, 013646, 12) = "csv\x00\x00\x00\x00\x00\"\x00\xa0$"
004300 020027  cmp 000014 010764 000003 000000 000000 177720 177716   NZVC1 0000
# 004300 cmp r0, #14 (nextPC=004304)
[pid 11] TRAP
[pid 11] trap 004274 read(3, 013646, 12) [000003 010764 000003 000000 000000 177720 177716 004300] [013646 000014]
[pid 11] trap DONE 004274 read(3, 013646, 12) [000014 010764 000003 000000 000000 177720 177716 004300] [013646 000014]
[pid 11] read(3, 013646, 12) = "cret\x00\x00\x00\x00\"\x00\xac$"
004300 020027  cmp 000014 010764 000003 000000 000000 177720 177716   NZVC1 0000
# 004300 cmp r0, #14 (nextPC=004304)
[pid 11] TRAP
[pid 11] trap 004274 read(3, 013646, 12) [000003 010764 000003 000000 000000 177720 177716 004300] [013646 000014]
[pid 11] trap DONE 004274 read(3, 013646, 12) [000014 010764 000003 000000 000000 177720 177716 004300] [013646 000014]
[pid 11] read(3, 013646, 12) = "_ka6\x00\x00\x00\x00#\x00 \x02"
004300 020027  cmp 000014 010764 000003 000000 000000 177720 177716   NZVC1 0000
# 004300 cmp r0, #14 (nextPC=004304)
[pid 11] TRAP
[pid 11] trap 004274 read(3, 013646, 12) [000003 010764 000003 000000 000000 177720 177716 004300] [013646 000014]
[pid 11] trap DONE 004274 read(3, 013646, 12) [000014 010764 000003 000000 000000 177720 177716 004300] [013646 000014]
[pid 11] read(3, 013646, 12) = "_bdevsw\x00#\x00&\x02"
004300 020027  cmp 000014 010764 000003 000000 000000 177720 177716   NZVC1 0000
# 004300 cmp r0, #14 (nextPC=004304)
[pid 11] TRAP
[pid 11] trap 004274 read(3, 013646, 12) [000003 010764 000003 000000 000000 177720 177716 004300] [013646 000014]
[pid 11] trap DONE 004274 read(3, 013646, 12) [000014 010764 000003 000000 000000 177720 177716 004300] [013646 000014]
[pid 11] read(3, 013646, 12) = "_nodev\x00\x00\"\x00\xee="
004300 020027  cmp 000014 010764 000003 000000 000000 177720 177716   NZVC1 0000
# 004300 cmp r0, #14 (nextPC=004304)
[pid 11] TRAP
[pid 11] trap 004274 read(3, 013646, 12) [000003 010764 000003 000000 000000 177720 177716 004300] [013646 000014]
[pid 11] trap DONE 004274 read(3, 013646, 12) [000014 010764 000003 000000 000000 177720 177716 004300] [013646 000014]
[pid 11] read(3, 013646, 12) = "_nulldev\"\x00\xfc="
004300 020027  cmp 000014 010764 000003 000000 000000 177720 177716   NZVC1 0000
# 004300 cmp r0, #14 (nextPC=004304)
[pid 11] TRAP
[pid 11] trap 004274 read(3, 013646, 12) [000003 010764 000003 000000 000000 177720 177716 004300] [013646 000014]
[pid 11] trap DONE 004274 read(3, 013646, 12) [000014 010764 000003 000000 000000 177720 177716 004300] [013646 000014]
[pid 11] read(3, 013646, 12) = "_hsstrat\"\x00\xd4y"
004300 020027  cmp 000014 010764 000003 000000 000000 177720 177716   NZVC1 0000
# 004300 cmp r0, #14 (nextPC=004304)
[pid 11] TRAP
[pid 11] trap 004274 read(3, 013646, 12) [000003 010764 000003 000000 000000 177720 177716 004300] [013646 000014]
[pid 11] trap DONE 004274 read(3, 013646, 12) [000014 010764 000003 000000 000000 177720 177716 004300] [013646 000014]
[pid 11] read(3, 013646, 12) = "_hstab\x00\x00$\x00$\a"
004300 020027  cmp 000014 010764 000003 000000 000000 177720 177716   NZVC1 0000
# 004300 cmp r0, #14 (nextPC=004304)
[pid 11] TRAP
[pid 11] trap 004274 read(3, 013646, 12) [000003 010764 000003 000000 000000 177720 177716 004300] [013646 000014]
[pid 11] trap DONE 004274 read(3, 013646, 12) [000014 010764 000003 000000 000000 177720 177716 004300] [013646 000014]
[pid 11] read(3, 013646, 12) = "_hpopen\x00\"\x00\xdes"
004300 020027  cmp 000014 010764 000003 000000 000000 177720 177716   NZVC1 0000
# 004300 cmp r0, #14 (nextPC=004304)
[pid 11] TRAP
[pid 11] trap 004274 read(3, 013646, 12) [000003 010764 000003 000000 000000 177720 177716 004300] [013646 000014]
[pid 11] trap DONE 004274 read(3, 013646, 12) [000014 010764 000003 000000 000000 177720 177716 004300] [013646 000014]
[pid 11] read(3, 013646, 12) = "_hpstrat\"\x00\bt"
004300 020027  cmp 000014 010764 000003 000000 000000 177720 177716   NZVC1 0000
# 004300 cmp r0, #14 (nextPC=004304)
[pid 11] TRAP
[pid 11] trap 004274 read(3, 013646, 12) [000003 010764 000003 000000 000000 177720 177716 004300] [013646 000014]
[pid 11] trap DONE 004274 read(3, 013646, 12) [000014 010764 000003 000000 000000 177720 177716 004300] [013646 000014]
[pid 11] read(3, 013646, 12) = "_hptab\x00\x00$\x00.\a"
004300 020027  cmp 000014 010764 000003 000000 000000 177720 177716   NZVC1 0000
# 004300 cmp r0, #14 (nextPC=004304)
[pid 11] TRAP
[pid 11] trap 004274 read(3, 013646, 12) [000003 010764 000003 000000 000000 177720 177716 004300] [013646 000014]
[pid 11] trap DONE 004274 read(3, 013646, 12) [000014 010764 000003 000000 000000 177720 177716 004300] [013646 000014]
[pid 11] read(3, 013646, 12) = "_htopen\x00\"\x00.v"
004300 020027  cmp 000014 010764 000003 000000 000000 177720 177716   NZVC1 0000
# 004300 cmp r0, #14 (nextPC=004304)
[pid 11] TRAP
[pid 11] trap 004274 read(3, 013646, 12) [000003 010764 000003 000000 000000 177720 177716 004300] [013646 000014]
[pid 11] trap DONE 004274 read(3, 013646, 12) [000014 010764 000003 000000 000000 177720 177716 004300] [013646 000014]
[pid 11] read(3, 013646, 12) = "_htclose\"\x00tv"
004300 020027  cmp 000014 010764 000003 000000 000000 177720 177716   NZVC1 0000
# 004300 cmp r0, #14 (nextPC=004304)
[pid 11] TRAP
[pid 11] trap 004274 read(3, 013646, 12) [000003 010764 000003 000000 000000 177720 177716 004300] [013646 000014]
[pid 11] trap DONE 004274 read(3, 013646, 12) [000014 010764 000003 000000 000000 177720 177716 004300] [013646 000014]
[pid 11] read(3, 013646, 12) = "_htstrat\"\x00Rw"
004300 020027  cmp 000014 010764 000003 000000 000000 177720 177716   NZVC1 0000
# 004300 cmp r0, #14 (nextPC=004304)
[pid 11] TRAP
[pid 11] trap 004274 read(3, 013646, 12) [000003 010764 000003 000000 000000 177720 177716 004300] [013646 000014]
[pid 11] trap DONE 004274 read(3, 013646, 12) [000014 010764 000003 000000 000000 177720 177716 004300] [013646 000014]
[pid 11] read(3, 013646, 12) = "_httab\x00\x00$\x008\a"
004300 020027  cmp 000014 010764 000003 000000 000000 177720 177716   NZVC1 0000
# 004300 cmp r0, #14 (nextPC=004304)
[pid 11] TRAP
[pid 11] trap 004274 read(3, 013646, 12) [000003 010764 000003 000000 000000 177720 177716 004300] [013646 000014]
[pid 11] trap DONE 004274 read(3, 013646, 12) [000014 010764 000003 000000 000000 177720 177716 004300] [013646 000014]
[pid 11] read(3, 013646, 12) = "_cdevsw\x00#\x00h\x02"
004300 020027  cmp 000014 010764 000003 000000 000000 177720 177716   NZVC1 0000
# 004300 cmp r0, #14 (nextPC=004304)
[pid 11] TRAP
[pid 11] trap 004274 read(3, 013646, 12) [000003 010764 000003 000000 000000 177720 177716 004300] [013646 000014]
[pid 11] trap DONE 004274 read(3, 013646, 12) [000014 010764 000003 000000 000000 177720 177716 004300] [013646 000014]
[pid 11] read(3, 013646, 12) = "_klopen\x00\"\x008q"
004300 020027  cmp 000014 010764 000003 000000 000000 177720 177716   NZVC1 0000
# 004300 cmp r0, #14 (nextPC=004304)
[pid 11] TRAP
[pid 11] trap 004274 read(3, 013646, 12) [000003 010764 000003 000000 000000 177720 177716 004300] [013646 000014]
[pid 11] trap DONE 004274 read(3, 013646, 12) [000014 010764 000003 000000 000000 177720 177716 004300] [013646 000014]
[pid 11] read(3, 013646, 12) = "_klclose\"\x00\xc0q"
004300 020027  cmp 000014 010764 000003 000000 000000 177720 177716   NZVC1 0000
# 004300 cmp r0, #14 (nextPC=004304)
[pid 11] TRAP
[pid 11] trap 004274 read(3, 013646, 12) [000003 010764 000003 000000 000000 177720 177716 004300] [013646 000014]
[pid 11] trap DONE 004274 read(3, 013646, 12) [000014 010764 000003 000000 000000 177720 177716 004300] [013646 000014]
[pid 11] read(3, 013646, 12) = "_klread\x00\"\x00\xdeq"
004300 020027  cmp 000014 010764 000003 000000 000000 177720 177716   NZVC1 0000
# 004300 cmp r0, #14 (nextPC=004304)
[pid 11] TRAP
[pid 11] trap 004274 read(3, 013646, 12) [000003 010764 000003 000000 000000 177720 177716 004300] [013646 000014]
[pid 11] trap DONE 004274 read(3, 013646, 12) [000014 010764 000003 000000 000000 177720 177716 004300] [013646 000014]
[pid 11] read(3, 013646, 12) = "_klwrite\"\x00\xf8q"
004300 020027  cmp 000014 010764 000003 000000 000000 177720 177716   NZVC1 0000
# 004300 cmp r0, #14 (nextPC=004304)
[pid 11] TRAP
[pid 11] trap 004274 read(3, 013646, 12) [000003 010764 000003 000000 000000 177720 177716 004300] [013646 000014]
[pid 11] trap DONE 004274 read(3, 013646, 12) [000014 010764 000003 000000 000000 177720 177716 004300] [013646 000014]
[pid 11] read(3, 013646, 12) = "_klsgtty\"\x00xr"
004300 020027  cmp 000014 010764 000003 000000 000000 177720 177716   NZVC1 0000
# 004300 cmp r0, #14 (nextPC=004304)
[pid 11] TRAP
[pid 11] trap 004274 read(3, 013646, 12) [000003 010764 000003 000000 000000 177720 177716 004300] [013646 000014]
[pid 11] trap DONE 004274 read(3, 013646, 12) [000014 010764 000003 000000 000000 177720 177716 004300] [013646 000014]
[pid 11] read(3, 013646, 12) = "_mmread\x00\"\x00\x98r"
004300 020027  cmp 000014 010764 000003 000000 000000 177720 177716   NZVC1 0000
# 004300 cmp r0, #14 (nextPC=004304)
[pid 11] TRAP
[pid 11] trap 004274 read(3, 013646, 12) [000003 010764 000003 000000 000000 177720 177716 004300] [013646 000014]
[pid 11] trap DONE 004274 read(3, 013646, 12) [000014 010764 000003 000000 000000 177720 177716 004300] [013646 000014]
[pid 11] read(3, 013646, 12) = "_mmwrite\"\x00.s"
004300 020027  cmp 000014 010764 000003 000000 000000 177720 177716   NZVC1 0000
# 004300 cmp r0, #14 (nextPC=004304)
[pid 11] TRAP
[pid 11] trap 004274 read(3, 013646, 12) [000003 010764 000003 000000 000000 177720 177716 004300] [013646 000014]
[pid 11] trap DONE 004274 read(3, 013646, 12) [000014 010764 000003 000000 000000 177720 177716 004300] [013646 000014]
[pid 11] read(3, 013646, 12) = "_hsread\x00\"\x00\xcaz"
004300 020027  cmp 000014 010764 000003 000000 000000 177720 177716   NZVC1 0000
# 004300 cmp r0, #14 (nextPC=004304)
[pid 11] TRAP
[pid 11] trap 004274 read(3, 013646, 12) [000003 010764 000003 000000 000000 177720 177716 004300] [013646 000014]
[pid 11] trap DONE 004274 read(3, 013646, 12) [000014 010764 000003 000000 000000 177720 177716 004300] [013646 000014]
[pid 11] read(3, 013646, 12) = "_hswrite\"\x00\xeaz"
004300 020027  cmp 000014 010764 000003 000000 000000 177720 177716   NZVC1 0000
# 004300 cmp r0, #14 (nextPC=004304)
[pid 11] TRAP
[pid 11] trap 004274 read(3, 013646, 12) [000003 010764 000003 000000 000000 177720 177716 004300] [013646 000014]
[pid 11] trap DONE 004274 read(3, 013646, 12) [000014 010764 000003 000000 000000 177720 177716 004300] [013646 000014]
[pid 11] read(3, 013646, 12) = "_hpread\x00\"\x00\x8cu"
004300 020027  cmp 000014 010764 000003 000000 000000 177720 177716   NZVC1 0000
# 004300 cmp r0, #14 (nextPC=004304)
[pid 11] TRAP
[pid 11] trap 004274 read(3, 013646, 12) [000003 010764 000003 000000 000000 177720 177716 004300] [013646 000014]
[pid 11] trap DONE 004274 read(3, 013646, 12) [000014 010764 000003 000000 000000 177720 177716 004300] [013646 000014]
[pid 11] read(3, 013646, 12) = "_hpwrite\"\x00\xb8u"
004300 020027  cmp 000014 010764 000003 000000 000000 177720 177716   NZVC1 0000
# 004300 cmp r0, #14 (nextPC=004304)
[pid 11] TRAP
[pid 11] trap 004274 read(3, 013646, 12) [000003 010764 000003 000000 000000 177720 177716 004300] [013646 000014]
[pid 11] trap DONE 004274 read(3, 013646, 12) [000014 010764 000003 000000 000000 177720 177716 004300] [013646 000014]
[pid 11] read(3, 013646, 12) = "_htread\x00\"\x00Jy"
004300 020027  cmp 000014 010764 000003 000000 000000 177720 177716   NZVC1 0000
# 004300 cmp r0, #14 (nextPC=004304)
[pid 11] TRAP
[pid 11] trap 004274 read(3, 013646, 12) [000003 010764 000003 000000 000000 177720 177716 004300] [013646 000014]
[pid 11] trap DONE 004274 read(3, 013646, 12) [000014 010764 000003 000000 000000 177720 177716 004300] [013646 000014]
[pid 11] read(3, 013646, 12) = "_htwrite\"\x00|y"
004300 020027  cmp 000014 010764 000003 000000 000000 177720 177716   NZVC1 0000
# 004300 cmp r0, #14 (nextPC=004304)
[pid 11] TRAP
[pid 11] trap 004274 read(3, 013646, 12) [000003 010764 000003 000000 000000 177720 177716 004300] [013646 000014]
[pid 11] trap DONE 004274 read(3, 013646, 12) [000014 010764 000003 000000 000000 177720 177716 004300] [013646 000014]
[pid 11] read(3, 013646, 12) = "_rootdev#\x00\n\x03"
004300 020027  cmp 000014 010764 000003 000000 000000 177720 177716   NZVC1 0000
# 004300 cmp r0, #14 (nextPC=004304)
[pid 11] TRAP
[pid 11] trap 004274 read(3, 013646, 12) [000003 010764 000003 000000 000000 177720 177716 004300] [013646 000014]
[pid 11] trap DONE 004274 read(3, 013646, 12) [000014 010764 000003 000000 000000 177720 177716 004300] [013646 000014]
[pid 11] read(3, 013646, 12) = "_swapdev#\x00\f\x03"
004300 020027  cmp 000014 010764 000003 000000 000000 177720 177716   NZVC1 0000
# 004300 cmp r0, #14 (nextPC=004304)
[pid 11] TRAP
[pid 11] trap 004274 read(3, 013646, 12) [000003 010764 000003 000000 000000 177720 177716 004300] [013646 000014]
[pid 11] trap DONE 004274 read(3, 013646, 12) [000014 010764 000003 000000 000000 177720 177716 004300] [013646 000014]
[pid 11] read(3, 013646, 12) = "_swplo\x00\x00#\x00\x0e\x03"
004300 020027  cmp 000014 010764 000003 000000 000000 177720 177716   NZVC1 0000
# 004300 cmp r0, #14 (nextPC=004304)
[pid 11] TRAP
[pid 11] trap 004274 read(3, 013646, 12) [000003 010764 000003 000000 000000 177720 177716 004300] [013646 000014]
[pid 11] trap DONE 004274 read(3, 013646, 12) [000014 010764 000003 000000 000000 177720 177716 004300] [013646 000014]
[pid 11] read(3, 013646, 12) = "_nswap\x00\x00#\x00\x10\x03"
004300 020027  cmp 000014 010764 000003 000000 000000 177720 177716   NZVC1 0000
# 004300 cmp r0, #14 (nextPC=004304)
[pid 11] TRAP
[pid 11] trap 004274 read(3, 013646, 12) [000003 010764 000003 000000 000000 177720 177716 004300] [013646 000014]
[pid 11] trap DONE 004274 read(3, 013646, 12) [000014 010764 000003 000000 000000 177720 177716 004300] [013646 000014]
[pid 11] read(3, 013646, 12) = "_canonb\x00$\x00B\a"
004300 020027  cmp 000014 010764 000003 000000 000000 177720 177716   NZVC1 0000
# 004300 cmp r0, #14 (nextPC=004304)
[pid 11] TRAP
[pid 11] trap 004274 read(3, 013646, 12) [000003 010764 000003 000000 000000 177720 177716 004300] [013646 000014]
[pid 11] trap DONE 004274 read(3, 013646, 12) [000014 010764 000003 000000 000000 177720 177716 004300] [013646 000014]
[pid 11] read(3, 013646, 12) = "_coremap$\x00B\b"
004300 020027  cmp 000014 010764 000003 000000 000000 177720 177716   NZVC1 0000
# 004300 cmp r0, #14 (nextPC=004304)
[pid 11] TRAP
[pid 11] trap 004274 read(3, 013646, 12) [000003 010764 000003 000000 000000 177720 177716 004300] [013646 000014]
[pid 11] trap DONE 004274 read(3, 013646, 12) [000014 010764 000003 000000 000000 177720 177716 004300] [013646 000014]
[pid 11] read(3, 013646, 12) = "_swapmap$\x00\n\t"
004300 020027  cmp 000014 010764 000003 000000 000000 177720 177716   NZVC1 0000
# 004300 cmp r0, #14 (nextPC=004304)
[pid 11] TRAP
[pid 11] trap 004274 read(3, 013646, 12) [000003 010764 000003 000000 000000 177720 177716 004300] [013646 000014]
[pid 11] trap DONE 004274 read(3, 013646, 12) [000014 010764 000003 000000 000000 177720 177716 004300] [013646 000014]
[pid 11] read(3, 013646, 12) = "_rootdir$\x00\xd2\t"
004300 020027  cmp 000014 010764 000003 000000 000000 177720 177716   NZVC1 0000
# 004300 cmp r0, #14 (nextPC=004304)
[pid 11] TRAP
[pid 11] trap 004274 read(3, 013646, 12) [000003 010764 000003 000000 000000 177720 177716 004300] [013646 000014]
[pid 11] trap DONE 004274 read(3, 013646, 12) [000014 010764 000003 000000 000000 177720 177716 004300] [013646 000014]
[pid 11] read(3, 013646, 12) = "_execnt\x00$\x00\xd4\t"
004300 020027  cmp 000014 010764 000003 000000 000000 177720 177716   NZVC1 0000
# 004300 cmp r0, #14 (nextPC=004304)
[pid 11] TRAP
[pid 11] trap 004274 read(3, 013646, 12) [000003 010764 000003 000000 000000 177720 177716 004300] [013646 000014]
[pid 11] trap DONE 004274 read(3, 013646, 12) [000014 010764 000003 000000 000000 177720 177716 004300] [013646 000014]
[pid 11] read(3, 013646, 12) = "_lbolt\x00\x00$\x00\xd6\t"
004300 020027  cmp 000014 010764 000003 000000 000000 177720 177716   NZVC1 0000
# 004300 cmp r0, #14 (nextPC=004304)
[pid 11] TRAP
[pid 11] trap 004274 read(3, 013646, 12) [000003 010764 000003 000000 000000 177720 177716 004300] [013646 000014]
[pid 11] trap DONE 004274 read(3, 013646, 12) [000014 010764 000003 000000 000000 177720 177716 004300] [013646 000014]
[pid 11] read(3, 013646, 12) = "_time\x00\x00\x00$\x00\xd8\t"
004300 020027  cmp 000014 010764 000003 000000 000000 177720 177716   NZVC1 0000
# 004300 cmp r0, #14 (nextPC=004304)
[pid 11] TRAP
[pid 11] trap 004274 read(3, 013646, 12) [000003 010764 000003 000000 000000 177720 177716 004300] [013646 000014]
[pid 11] trap DONE 004274 read(3, 013646, 12) [000014 010764 000003 000000 000000 177720 177716 004300] [013646 000014]
[pid 11] read(3, 013646, 12) = "_tout\x00\x00\x00$\x00\xdc\t"
004300 020027  cmp 000014 010764 000003 000000 000000 177720 177716   NZVC1 0000
# 004300 cmp r0, #14 (nextPC=004304)
[pid 11] TRAP
[pid 11] trap 004274 read(3, 013646, 12) [000003 010764 000003 000000 000000 177720 177716 004300] [013646 000014]
[pid 11] trap DONE 004274 read(3, 013646, 12) [000014 010764 000003 000000 000000 177720 177716 004300] [013646 000014]
[pid 11] read(3, 013646, 12) = "_callout$\x00\xe0\t"
004300 020027  cmp 000014 010764 000003 000000 000000 177720 177716   NZVC1 0000
# 004300 cmp r0, #14 (nextPC=004304)
[pid 11] TRAP
[pid 11] trap 004274 read(3, 013646, 12) [000003 010764 000003 000000 000000 177720 177716 004300] [013646 000014]
[pid 11] trap DONE 004274 read(3, 013646, 12) [000014 010764 000003 000000 000000 177720 177716 004300] [013646 000014]
[pid 11] read(3, 013646, 12) = "_mount\x00\x00$\x00X\n"
004300 020027  cmp 000014 010764 000003 000000 000000 177720 177716   NZVC1 0000
# 004300 cmp r0, #14 (nextPC=004304)
[pid 11] TRAP
[pid 11] trap 004274 read(3, 013646, 12) [000003 010764 000003 000000 000000 177720 177716 004300] [013646 000014]
[pid 11] trap DONE 004274 read(3, 013646, 12) [000014 010764 000003 000000 000000 177720 177716 004300] [013646 000014]
[pid 11] read(3, 013646, 12) = "_mpid\x00\x00\x00$\x00v\n"
004300 020027  cmp 000014 010764 000003 000000 000000 177720 177716   NZVC1 0000
# 004300 cmp r0, #14 (nextPC=004304)
[pid 11] TRAP
[pid 11] trap 004274 read(3, 013646, 12) [000003 010764 000003 000000 000000 177720 177716 004300] [013646 000014]
[pid 11] trap DONE 004274 read(3, 013646, 12) [000014 010764 000003 000000 000000 177720 177716 004300] [013646 000014]
[pid 11] read(3, 013646, 12) = "_runin\x00\x00$\x00x\n"
004300 020027  cmp 000014 010764 000003 000000 000000 177720 177716   NZVC1 0000
# 004300 cmp r0, #14 (nextPC=004304)
[pid 11] TRAP
[pid 11] trap 004274 read(3, 013646, 12) [000003 010764 000003 000000 000000 177720 177716 004300] [013646 000014]
[pid 11] trap DONE 004274 read(3, 013646, 12) [000014 010764 000003 000000 000000 177720 177716 004300] [013646 000014]
[pid 11] read(3, 013646, 12) = "_runout\x00$\x00z\n"
004300 020027  cmp 000014 010764 000003 000000 000000 177720 177716   NZVC1 0000
# 004300 cmp r0, #14 (nextPC=004304)
[pid 11] TRAP
[pid 11] trap 004274 read(3, 013646, 12) [000003 010764 000003 000000 000000 177720 177716 004300] [013646 000014]
[pid 11] trap DONE 004274 read(3, 013646, 12) [000014 010764 000003 000000 000000 177720 177716 004300] [013646 000014]
[pid 11] read(3, 013646, 12) = "_curpri\x00$\x00|\n"
004300 020027  cmp 000014 010764 000003 000000 000000 177720 177716   NZVC1 0000
# 004300 cmp r0, #14 (nextPC=004304)
[pid 11] TRAP
[pid 11] trap 004274 read(3, 013646, 12) [000003 010764 000003 000000 000000 177720 177716 004300] [013646 000014]
[pid 11] trap DONE 004274 read(3, 013646, 12) [000014 010764 000003 000000 000000 177720 177716 004300] [013646 000014]
[pid 11] read(3, 013646, 12) = "_maxmem\x00$\x00~\n"
004300 020027  cmp 000014 010764 000003 000000 000000 177720 177716   NZVC1 0000
# 004300 cmp r0, #14 (nextPC=004304)
[pid 11] TRAP
[pid 11] trap 004274 read(3, 013646, 12) [000003 010764 000003 000000 000000 177720 177716 004300] [013646 000014]
[pid 11] trap DONE 004274 read(3, 013646, 12) [000014 010764 000003 000000 000000 177720 177716 004300] [013646 000014]
[pid 11] read(3, 013646, 12) = "_lks\x00\x00\x00\x00$\x00\x80\n"
004300 020027  cmp 000014 010764 000003 000000 000000 177720 177716   NZVC1 0000
# 004300 cmp r0, #14 (nextPC=004304)
[pid 11] TRAP
[pid 11] trap 004274 read(3, 013646, 12) [000003 010764 000003 000000 000000 177720 177716 004300] [013646 000014]
[pid 11] trap DONE 004274 read(3, 013646, 12) [000014 010764 000003 000000 000000 177720 177716 004300] [013646 000014]
[pid 11] read(3, 013646, 12) = "_updlock$\x00\x82\n"
004300 020027  cmp 000014 010764 000003 000000 000000 177720 177716   NZVC1 0000
# 004300 cmp r0, #14 (nextPC=004304)
[pid 11] TRAP
[pid 11] trap 004274 read(3, 013646, 12) [000003 010764 000003 000000 000000 177720 177716 004300] [013646 000014]
[pid 11] trap DONE 004274 read(3, 013646, 12) [000014 010764 000003 000000 000000 177720 177716 004300] [013646 000014]
[pid 11] read(3, 013646, 12) = "_rablock$\x00\x84\n"
004300 020027  cmp 000014 010764 000003 000000 000000 177720 177716   NZVC1 0000
# 004300 cmp r0, #14 (nextPC=004304)
[pid 11] TRAP
[pid 11] trap 004274 read(3, 013646, 12) [000003 010764 000003 000000 000000 177720 177716 004300] [013646 000014]
[pid 11] trap DONE 004274 read(3, 013646, 12) [000014 010764 000003 000000 000000 177720 177716 004300] [013646 000014]
[pid 11] read(3, 013646, 12) = "_proc\x00\x00\x00$\x00\x86\n"
004300 020027  cmp 000014 010764 000003 000000 000000 177720 177716   NZVC1 0000
# 004300 cmp r0, #14 (nextPC=004304)
[pid 11] TRAP
[pid 11] trap 004274 read(3, 013646, 12) [000003 010764 000003 000000 000000 177720 177716 004300] [013646 000014]
[pid 11] trap DONE 004274 read(3, 013646, 12) [000014 010764 000003 000000 000000 177720 177716 004300] [013646 000014]
[pid 11] read(3, 013646, 12) = "_text\x00\x00\x00$\x00\xd2\x0e"
004300 020027  cmp 000014 010764 000003 000000 000000 177720 177716   NZVC1 0000
# 004300 cmp r0, #14 (nextPC=004304)
[pid 11] TRAP
[pid 11] trap 004274 read(3, 013646, 12) [000003 010764 000003 000000 000000 177720 177716 004300] [013646 000014]
[pid 11] trap DONE 004274 read(3, 013646, 12) [000014 010764 000003 000000 000000 177720 177716 004300] [013646 000014]
[pid 11] read(3, 013646, 12) = "_inode\x00\x00$\x00b\x10"
004300 020027  cmp 000014 010764 000003 000000 000000 177720 177716   NZVC1 0000
# 004300 cmp r0, #14 (nextPC=004304)
[pid 11] TRAP
[pid 11] trap 004274 read(3, 013646, 12) [000003 010764 000003 000000 000000 177720 177716 004300] [013646 000014]
[pid 11] trap DONE 004274 read(3, 013646, 12) [000014 010764 000003 000000 000000 177720 177716 004300] [013646 000014]
[pid 11] read(3, 013646, 12) = "_icode\x00\x00#\x00\x12\x03"
004300 020027  cmp 000014 010764 000003 000000 000000 177720 177716   NZVC1 0000
# 004300 cmp r0, #14 (nextPC=004304)
[pid 11] TRAP
[pid 11] trap 004274 read(3, 013646, 12) [000003 010764 000003 000000 000000 177720 177716 004300] [013646 000014]
[pid 11] trap DONE 004274 read(3, 013646, 12) [000014 010764 000003 000000 000000 177720 177716 004300] [013646 000014]
[pid 11] read(3, 013646, 12) = "_mfree\x00\x00\"\x00\x88L"
004300 020027  cmp 000014 010764 000003 000000 000000 177720 177716   NZVC1 0000
# 004300 cmp r0, #14 (nextPC=004304)
[pid 11] TRAP
[pid 11] trap 004274 read(3, 013646, 12) [000003 010764 000003 000000 000000 177720 177716 004300] [013646 000014]
[pid 11] trap DONE 004274 read(3, 013646, 12) [000014 010764 000003 000000 000000 177720 177716 004300] [013646 000014]
[pid 11] read(3, 013646, 12) = "_printf\x00\"\x00\f1"
004300 020027  cmp 000014 010764 000003 000000 000000 177720 177716   NZVC1 0000
# 004300 cmp r0, #14 (nextPC=004304)
[pid 11] TRAP
[pid 11] trap 004274 read(3, 013646, 12) [000003 010764 000003 000000 000000 177720 177716 004300] [013646 000014]
[pid 11] trap DONE 004274 read(3, 013646, 12) [000014 010764 000003 000000 000000 177720 177716 004300] [013646 000014]
[pid 11] read(3, 013646, 12) = "_min\x00\x00\x00\x00\"\x00\x1c5"
004300 020027  cmp 000014 010764 000003 000000 000000 177720 177716   NZVC1 0000
# 004300 cmp r0, #14 (nextPC=004304)
[pid 11] TRAP
[pid 11] trap 004274 read(3, 013646, 12) [000003 010764 000003 000000 000000 177720 177716 004300] [013646 000014]
[pid 11] trap DONE 004274 read(3, 013646, 12) [000014 010764 000003 000000 000000 177720 177716 004300] [013646 000014]
[pid 11] read(3, 013646, 12) = "_panic\x00\x00\"\x00\x122"
004300 020027  cmp 000014 010764 000003 000000 000000 177720 177716   NZVC1 0000
# 004300 cmp r0, #14 (nextPC=004304)
[pid 11] TRAP
[pid 11] trap 004274 read(3, 013646, 12) [000003 010764 000003 000000 000000 177720 177716 004300] [013646 000014]
[pid 11] trap DONE 004274 read(3, 013646, 12) [000014 010764 000003 000000 000000 177720 177716 004300] [013646 000014]
[pid 11] read(3, 013646, 12) = "_cinit\x00\x00\"\x00\fl"
004300 020027  cmp 000014 010764 000003 000000 000000 177720 177716   NZVC1 0000
# 004300 cmp r0, #14 (nextPC=004304)
[pid 11] TRAP
[pid 11] trap 004274 read(3, 013646, 12) [000003 010764 000003 000000 000000 177720 177716 004300] [013646 000014]
[pid 11] trap DONE 004274 read(3, 013646, 12) [000014 010764 000003 000000 000000 177720 177716 004300] [013646 000014]
[pid 11] read(3, 013646, 12) = "_binit\x00\x00\"\x00\xa4f"
004300 020027  cmp 000014 010764 000003 000000 000000 177720 177716   NZVC1 0000
# 004300 cmp r0, #14 (nextPC=004304)
[pid 11] TRAP
[pid 11] trap 004274 read(3, 013646, 12) [000003 010764 000003 000000 000000 177720 177716 004300] [013646 000014]
[pid 11] trap DONE 004274 read(3, 013646, 12) [000014 010764 000003 000000 000000 177720 177716 004300] [013646 000014]
[pid 11] read(3, 013646, 12) = "_iinit\x00\x00\"\x00d("
004300 020027  cmp 000014 010764 000003 000000 000000 177720 177716   NZVC1 0000
# 004300 cmp r0, #14 (nextPC=004304)
[pid 11] TRAP
[pid 11] trap 004274 read(3, 013646, 12) [000003 010764 000003 000000 000000 177720 177716 004300] [013646 000014]
[pid 11] trap DONE 004274 read(3, 013646, 12) [000014 010764 000003 000000 000000 177720 177716 004300] [013646 000014]
[pid 11] read(3, 013646, 12) = "_iget\x00\x00\x00\"\x00X-"
004300 020027  cmp 000014 010764 000003 000000 000000 177720 177716   NZVC1 0000
# 004300 cmp r0, #14 (nextPC=004304)
[pid 11] TRAP
[pid 11] trap 004274 read(3, 013646, 12) [000003 010764 000003 000000 000000 177720 177716 004300] [013646 000014]
[pid 11] trap DONE 004274 read(3, 013646, 12) [000014 010764 000003 000000 000000 177720 177716 004300] [013646 000014]
[pid 11] read(3, 013646, 12) = "_newproc\"\x00@9"
004300 020027  cmp 000014 010764 000003 000000 000000 177720 177716   NZVC1 0000
# 004300 cmp r0, #14 (nextPC=004304)
[pid 11] TRAP
[pid 11] trap 004274 read(3, 013646, 12) [000003 010764 000003 000000 000000 177720 177716 004300] [013646 000014]
[pid 11] trap DONE 004274 read(3, 013646, 12) [000014 010764 000003 000000 000000 177720 177716 004300] [013646 000014]
[pid 11] read(3, 013646, 12) = "_expand\x00\"\x00v:"
004300 020027  cmp 000014 010764 000003 000000 000000 177720 177716   NZVC1 0000
# 004300 cmp r0, #14 (nextPC=004304)
[pid 11] TRAP
[pid 11] trap 004274 read(3, 013646, 12) [000003 010764 000003 000000 000000 177720 177716 004300] [013646 000014]
[pid 11] trap DONE 004274 read(3, 013646, 12) [000014 010764 000003 000000 000000 177720 177716 004300] [013646 000014]
[pid 11] read(3, 013646, 12) = "_estabur\"\x00\xae&"
004300 020027  cmp 000014 010764 000003 000000 000000 177720 177716   NZVC1 0000
# 004300 cmp r0, #14 (nextPC=004304)
[pid 11] TRAP
[pid 11] trap 004274 read(3, 013646, 12) [000003 010764 000003 000000 000000 177720 177716 004300] [013646 000014]
[pid 11] trap DONE 004274 read(3, 013646, 12) [000014 010764 000003 000000 000000 177720 177716 004300] [013646 000014]
[pid 11] read(3, 013646, 12) = "_sched\x00\x00\"\x00\xee6"
004300 020027  cmp 000014 010764 000003 000000 000000 177720 177716   NZVC1 0000
# 004300 cmp r0, #14 (nextPC=004304)
[pid 11] TRAP
[pid 11] trap 004274 read(3, 013646, 12) [000003 010764 000003 000000 000000 177720 177716 004300] [013646 000014]
[pid 11] trap DONE 004274 read(3, 013646, 12) [000014 010764 000003 000000 000000 177720 177716 004300] [013646 000014]
[pid 11] read(3, 013646, 12) = "_sureg\x00\x00\"\x00>&"
004300 020027  cmp 000014 010764 000003 000000 000000 177720 177716   NZVC1 0000
# 004300 cmp r0, #14 (nextPC=004304)
[pid 11] TRAP
[pid 11] trap 004274 read(3, 013646, 12) [000003 010764 000003 000000 000000 177720 177716 004300] [013646 000014]
[pid 11] trap DONE 004274 read(3, 013646, 12) [000014 010764 000003 000000 000000 177720 177716 004300] [013646 000014]
[pid 11] read(3, 013646, 12) = "_nseg\x00\x00\x00\"\x00P("
004300 020027  cmp 000014 010764 000003 000000 000000 177720 177716   NZVC1 0000
# 004300 cmp r0, #14 (nextPC=004304)
[pid 11] TRAP
[pid 11] trap 004274 read(3, 013646, 12) [000003 010764 000003 000000 000000 177720 177716 004300] [013646 000014]
[pid 11] trap DONE 004274 read(3, 013646, 12) [000014 010764 000003 000000 000000 177720 177716 004300] [013646 000014]
[pid 11] read(3, 013646, 12) = "_nblkdev$\x00\xe2\x1c"
004300 020027  cmp 000014 010764 000003 000000 000000 177720 177716   NZVC1 0000
# 004300 cmp r0, #14 (nextPC=004304)
[pid 11] TRAP
[pid 11] trap 004274 read(3, 013646, 12) [000003 010764 000003 000000 000000 177720 177716 004300] [013646 000014]
[pid 11] trap DONE 004274 read(3, 013646, 12) [000014 010764 000003 000000 000000 177720 177716 004300] [013646 000014]
[pid 11] read(3, 013646, 12) = "_nchrdev$\x00\xe4\x1c"
004300 020027  cmp 000014 010764 000003 000000 000000 177720 177716   NZVC1 0000
# 004300 cmp r0, #14 (nextPC=004304)
[pid 11] TRAP
[pid 11] trap 004274 read(3, 013646, 12) [000003 010764 000003 000000 000000 177720 177716 004300] [013646 000014]
[pid 11] trap DONE 004274 read(3, 013646, 12) [000014 010764 000003 000000 000000 177720 177716 004300] [013646 000014]
[pid 11] read(3, 013646, 12) = "_buf\x00\x00\x00\x00$\x00\xe6\x1c"
004300 020027  cmp 000014 010764 000003 000000 000000 177720 177716   NZVC1 0000
# 004300 cmp r0, #14 (nextPC=004304)
[pid 11] TRAP
[pid 11] trap 004274 read(3, 013646, 12) [000003 010764 000003 000000 000000 177720 177716 004300] [013646 000014]
[pid 11] trap DONE 004274 read(3, 013646, 12) [000014 010764 000003 000000 000000 177720 177716 004300] [013646 000014]
[pid 11] read(3, 013646, 12) = "_bfreeli$\x00N\x1e"
004300 020027  cmp 000014 010764 000003 000000 000000 177720 177716   NZVC1 0000
# 004300 cmp r0, #14 (nextPC=004304)
[pid 11] TRAP
[pid 11] trap 004274 read(3, 013646, 12) [000003 010764 000003 000000 000000 177720 177716 004300] [013646 000014]
[pid 11] trap DONE 004274 read(3, 013646, 12) [000014 010764 000003 000000 000000 177720 177716 004300] [013646 000014]
[pid 11] read(3, 013646, 12) = "_bread\x00\x00\"\x00\xdcb"
004300 020027  cmp 000014 010764 000003 000000 000000 177720 177716   NZVC1 0000
# 004300 cmp r0, #14 (nextPC=004304)
[pid 11] TRAP
[pid 11] trap 004274 read(3, 013646, 12) [000003 010764 000003 000000 000000 177720 177716 004300] [013646 000014]
[pid 11] trap DONE 004274 read(3, 013646, 12) [000014 010764 000003 000000 000000 177720 177716 004300] [013646 000014]
[pid 11] read(3, 013646, 12) = "_getblk\x00\"\x00\xfed"
004300 020027  cmp 000014 010764 000003 000000 000000 177720 177716   NZVC1 0000
# 004300 cmp r0, #14 (nextPC=004304)
[pid 11] TRAP
[pid 11] trap 004274 read(3, 013646, 12) [000003 010764 000003 000000 000000 177720 177716 004300] [013646 000014]
[pid 11] trap DONE 004274 read(3, 013646, 12) [000014 010764 000003 000000 000000 177720 177716 004300] [013646 000014]
[pid 11] read(3, 013646, 12) = "_bcopy\x00\x00\"\x00\x04>"
004300 020027  cmp 000014 010764 000003 000000 000000 177720 177716   NZVC1 0000
# 004300 cmp r0, #14 (nextPC=004304)
[pid 11] TRAP
[pid 11] trap 004274 read(3, 013646, 12) [000003 010764 000003 000000 000000 177720 177716 004300] [013646 000014]
[pid 11] trap DONE 004274 read(3, 013646, 12) [000014 010764 000003 000000 000000 177720 177716 004300] [013646 000014]
[pid 11] read(3, 013646, 12) = "_brelse\x00\"\x00dd"
004300 020027  cmp 000014 010764 000003 000000 000000 177720 177716   NZVC1 0000
# 004300 cmp r0, #14 (nextPC=004304)
[pid 11] TRAP
[pid 11] trap 004274 read(3, 013646, 12) [000003 010764 000003 000000 000000 177720 177716 004300] [013646 000014]
[pid 11] trap DONE 004274 read(3, 013646, 12) [000014 010764 000003 000000 000000 177720 177716 004300] [013646 000014]
[pid 11] read(3, 013646, 12) = "_alloc\x00\x00\"\x00\xe8("
004300 020027  cmp 000014 010764 000003 000000 000000 177720 177716   NZVC1 0000
# 004300 cmp r0, #14 (nextPC=004304)
[pid 11] TRAP
[pid 11] trap 004274 read(3, 013646, 12) [000003 010764 000003 000000 000000 177720 177716 004300] [013646 000014]
[pid 11] trap DONE 004274 read(3, 013646, 12) [000014 010764 000003 000000 000000 177720 177716 004300] [013646 000014]
[pid 11] read(3, 013646, 12) = "_getfs\x00\x00\"\x00H,"
004300 020027  cmp 000014 010764 000003 000000 000000 177720 177716   NZVC1 0000
# 004300 cmp r0, #14 (nextPC=004304)
[pid 11] TRAP
[pid 11] trap 004274 read(3, 013646, 12) [000003 010764 000003 000000 000000 177720 177716 004300] [013646 000014]
[pid 11] trap DONE 004274 read(3, 013646, 12) [000014 010764 000003 000000 000000 177720 177716 004300] [013646 000014]
[pid 11] read(3, 013646, 12) = "_sleep\x00\x00\"\x00\xd45"
004300 020027  cmp 000014 010764 000003 000000 000000 177720 177716   NZVC1 0000
# 004300 cmp r0, #14 (nextPC=004304)
[pid 11] TRAP
[pid 11] trap 004274 read(3, 013646, 12) [000003 010764 000003 000000 000000 177720 177716 004300] [013646 000014]
[pid 11] trap DONE 004274 read(3, 013646, 12) [000014 010764 000003 000000 000000 177720 177716 004300] [013646 000014]
[pid 11] read(3, 013646, 12) = "_badbloc\"\x00~*"
004300 020027  cmp 000014 010764 000003 000000 000000 177720 177716   NZVC1 0000
# 004300 cmp r0, #14 (nextPC=004304)
[pid 11] TRAP
[pid 11] trap 004274 read(3, 013646, 12) [000003 010764 000003 000000 000000 177720 177716 004300] [013646 000014]
[pid 11] trap DONE 004274 read(3, 013646, 12) [000014 010764 000003 000000 000000 177720 177716 004300] [013646 000014]
[pid 11] read(3, 013646, 12) = "_wakeup\x00\"\x00R6"
004300 020027  cmp 000014 010764 000003 000000 000000 177720 177716   NZVC1 0000
# 004300 cmp r0, #14 (nextPC=004304)
[pid 11] TRAP
[pid 11] trap 004274 read(3, 013646, 12) [000003 010764 000003 000000 000000 177720 177716 004300] [013646 000014]
[pid 11] trap DONE 004274 read(3, 013646, 12) [000014 010764 000003 000000 000000 177720 177716 004300] [013646 000014]
[pid 11] read(3, 013646, 12) = "_clrbuf\x00\"\x00\x8cf"
004300 020027  cmp 000014 010764 000003 000000 000000 177720 177716   NZVC1 0000
# 004300 cmp r0, #14 (nextPC=004304)
[pid 11] TRAP
[pid 11] trap 004274 read(3, 013646, 12) [000003 010764 000003 000000 000000 177720 177716 004300] [013646 000014]
[pid 11] trap DONE 004274 read(3, 013646, 12) [000014 010764 000003 000000 000000 177720 177716 004300] [013646 000014]
[pid 11] read(3, 013646, 12) = "_prdev\x00\x00\"\x0042"
004300 020027  cmp 000014 010764 000003 000000 000000 177720 177716   NZVC1 0000
# 004300 cmp r0, #14 (nextPC=004304)
[pid 11] TRAP
[pid 11] trap 004274 read(3, 013646, 12) [000003 010764 000003 000000 000000 177720 177716 004300] [013646 000014]
[pid 11] trap DONE 004274 read(3, 013646, 12) [000014 010764 000003 000000 000000 177720 177716 004300] [013646 000014]
[pid 11] read(3, 013646, 12) = "_free\x00\x00\x00\"\x00\xc4)"
004300 020027  cmp 000014 010764 000003 000000 000000 177720 177716   NZVC1 0000
# 004300 cmp r0, #14 (nextPC=004304)
[pid 11] TRAP
[pid 11] trap 004274 read(3, 013646, 12) [000003 010764 000003 000000 000000 177720 177716 004300] [013646 000014]
[pid 11] trap DONE 004274 read(3, 013646, 12) [000014 010764 000003 000000 000000 177720 177716 004300] [013646 000014]
[pid 11] read(3, 013646, 12) = "_bwrite\x00\"\x00\xd0c"
004300 020027  cmp 000014 010764 000003 000000 000000 177720 177716   NZVC1 0000
# 004300 cmp r0, #14 (nextPC=004304)
[pid 11] TRAP
[pid 11] trap 004274 read(3, 013646, 12) [000003 010764 000003 000000 000000 177720 177716 004300] [013646 000014]
[pid 11] trap DONE 004274 read(3, 013646, 12) [000014 010764 000003 000000 000000 177720 177716 004300] [013646 000014]
[pid 11] read(3, 013646, 12) = "_ialloc\x00\"\x00\xb4*"
004300 020027  cmp 000014 010764 000003 000000 000000 177720 177716   NZVC1 0000
# 004300 cmp r0, #14 (nextPC=004304)
[pid 11] TRAP
[pid 11] trap 004274 read(3, 013646, 12) [000003 010764 000003 000000 000000 177720 177716 004300] [013646 000014]
[pid 11] trap DONE 004274 read(3, 013646, 12) [000014 010764 000003 000000 000000 177720 177716 004300] [013646 000014]
[pid 11] read(3, 013646, 12) = "_iput\x00\x00\x00\"\x00\x84."
004300 020027  cmp 000014 010764 000003 000000 000000 177720 177716   NZVC1 0000
# 004300 cmp r0, #14 (nextPC=004304)
[pid 11] TRAP
[pid 11] trap 004274 read(3, 013646, 12) [000003 010764 000003 000000 000000 177720 177716 004300] [013646 000014]
[pid 11] trap DONE 004274 read(3, 013646, 12) [000014 010764 000003 000000 000000 177720 177716 004300] [013646 000014]
[pid 11] read(3, 013646, 12) = "_ifree\x00\x00\"\x00\x10,"
004300 020027  cmp 000014 010764 000003 000000 000000 177720 177716   NZVC1 0000
# 004300 cmp r0, #14 (nextPC=004304)
[pid 11] TRAP
[pid 11] trap 004274 read(3, 013646, 12) [000003 010764 000003 000000 000000 177720 177716 004300] [013646 000014]
[pid 11] trap DONE 004274 read(3, 013646, 12) [000014 010764 000003 000000 000000 177720 177716 004300] [013646 000014]
[pid 11] read(3, 013646, 12) = "_update\x00\"\x00\xa8,"
004300 020027  cmp 000014 010764 000003 000000 000000 177720 177716   NZVC1 0000
# 004300 cmp r0, #14 (nextPC=004304)
[pid 11] TRAP
[pid 11] trap 004274 read(3, 013646, 12) [000003 010764 000003 000000 000000 177720 177716 004300] [013646 000014]
[pid 11] trap DONE 004274 read(3, 013646, 12) [000014 010764 000003 000000 000000 177720 177716 004300] [013646 000014]
[pid 11] read(3, 013646, 12) = "_iupdat\x00\"\x00\xdc."
004300 020027  cmp 000014 010764 000003 000000 000000 177720 177716   NZVC1 0000
# 004300 cmp r0, #14 (nextPC=004304)
[pid 11] TRAP
[pid 11] trap 004274 read(3, 013646, 12) [000003 010764 000003 000000 000000 177720 177716 004300] [013646 000014]
[pid 11] trap DONE 004274 read(3, 013646, 12) [000014 010764 000003 000000 000000 177720 177716 004300] [013646 000014]
[pid 11] read(3, 013646, 12) = "_prele\x00\x00\"\x00`Q"
004300 020027  cmp 000014 010764 000003 000000 000000 177720 177716   NZVC1 0000
# 004300 cmp r0, #14 (nextPC=004304)
[pid 11] TRAP
[pid 11] trap 004274 read(3, 013646, 12) [000003 010764 000003 000000 000000 177720 177716 004300] [013646 000014]
[pid 11] trap DONE 004274 read(3, 013646, 12) [000014 010764 000003 000000 000000 177720 177716 004300] [013646 000014]
[pid 11] read(3, 013646, 12) = "_bflush\x00\"\x00\x1ei"
004300 020027  cmp 000014 010764 000003 000000 000000 177720 177716   NZVC1 0000
# 004300 cmp r0, #14 (nextPC=004304)
[pid 11] TRAP
[pid 11] trap 004274 read(3, 013646, 12) [000003 010764 000003 000000 000000 177720 177716 004300] [013646 000014]
[pid 11] trap DONE 004274 read(3, 013646, 12) [000014 010764 000003 000000 000000 177720 177716 004300] [013646 000014]
[pid 11] read(3, 013646, 12) = "_itrunc\x00\"\x00\x8a/"
004300 020027  cmp 000014 010764 000003 000000 000000 177720 177716   NZVC1 0000
# 004300 cmp r0, #14 (nextPC=004304)
[pid 11] TRAP
[pid 11] trap 004274 read(3, 013646, 12) [000003 010764 000003 000000 000000 177720 177716 004300] [013646 000014]
[pid 11] trap DONE 004274 read(3, 013646, 12) [000014 010764 000003 000000 000000 177720 177716 004300] [013646 000014]
[pid 11] read(3, 013646, 12) = "_maknode\"\x00\x820"
004300 020027  cmp 000014 010764 000003 000000 000000 177720 177716   NZVC1 0000
# 004300 cmp r0, #14 (nextPC=004304)
[pid 11] TRAP
[pid 11] trap 004274 read(3, 013646, 12) [000003 010764 000003 000000 000000 177720 177716 004300] [013646 000014]
[pid 11] trap DONE 004274 read(3, 013646, 12) [000014 010764 000003 000000 000000 177720 177716 004300] [013646 000014]
[pid 11] read(3, 013646, 12) = "_wdir\x00\x00\x00\"\x00\xc80"
004300 020027  cmp 000014 010764 000003 000000 000000 177720 177716   NZVC1 0000
# 004300 cmp r0, #14 (nextPC=004304)
[pid 11] TRAP
[pid 11] trap 004274 read(3, 013646, 12) [000003 010764 000003 000000 000000 177720 177716 004300] [013646 000014]
[pid 11] trap DONE 004274 read(3, 013646, 12) [000014 010764 000003 000000 000000 177720 177716 004300] [013646 000014]
[pid 11] read(3, 013646, 12) = "_writei\x00\"\x00\xc23"
004300 020027  cmp 000014 010764 000003 000000 000000 177720 177716   NZVC1 0000
# 004300 cmp r0, #14 (nextPC=004304)
[pid 11] TRAP
[pid 11] trap 004274 read(3, 013646, 12) [000003 010764 000003 000000 000000 177720 177716 004300] [013646 000014]
[pid 11] trap DONE 004274 read(3, 013646, 12) [000014 010764 000003 000000 000000 177720 177716 004300] [013646 000014]
[pid 11] read(3, 013646, 12) = "_panicst$\x00f\x1e"
004300 020027  cmp 000014 010764 000003 000000 000000 177720 177716   NZVC1 0000
# 004300 cmp r0, #14 (nextPC=004304)
[pid 11] TRAP
[pid 11] trap 004274 read(3, 013646, 12) [000003 010764 000003 000000 000000 177720 177716 004300] [013646 000014]
[pid 11] trap DONE 004274 read(3, 013646, 12) [000014 010764 000003 000000 000000 177720 177716 004300] [013646 000014]
[pid 11] read(3, 013646, 12) = "_putchar\"\x00\xc01"
004300 020027  cmp 000014 010764 000003 000000 000000 177720 177716   NZVC1 0000
# 004300 cmp r0, #14 (nextPC=004304)
[pid 11] TRAP
[pid 11] trap 004274 read(3, 013646, 12) [000003 010764 000003 000000 000000 177720 177716 004300] [013646 000014]
[pid 11] trap DONE 004274 read(3, 013646, 12) [000014 010764 000003 000000 000000 177720 177716 004300] [013646 000014]
[pid 11] read(3, 013646, 12) = "_printn\x00\"\x00\x821"
004300 020027  cmp 000014 010764 000003 000000 000000 177720 177716   NZVC1 0000
# 004300 cmp r0, #14 (nextPC=004304)
[pid 11] TRAP
[pid 11] trap 004274 read(3, 013646, 12) [000003 010764 000003 000000 000000 177720 177716 004300] [013646 000014]
[pid 11] trap DONE 004274 read(3, 013646, 12) [000014 010764 000003 000000 000000 177720 177716 004300] [013646 000014]
[pid 11] read(3, 013646, 12) = "_deverro\"\x00X2"
004300 020027  cmp 000014 010764 000003 000000 000000 177720 177716   NZVC1 0000
# 004300 cmp r0, #14 (nextPC=004304)
[pid 11] TRAP
[pid 11] trap 004274 read(3, 013646, 12) [000003 010764 000003 000000 000000 177720 177716 004300] [013646 000014]
[pid 11] trap DONE 004274 read(3, 013646, 12) [000014 010764 000003 000000 000000 177720 177716 004300] [013646 000014]
[pid 11] read(3, 013646, 12) = "_readi\x00\x00\"\x00\x8a2"
004300 020027  cmp 000014 010764 000003 000000 000000 177720 177716   NZVC1 0000
# 004300 cmp r0, #14 (nextPC=004304)
[pid 11] TRAP
[pid 11] trap 004274 read(3, 013646, 12) [000003 010764 000003 000000 000000 177720 177716 004300] [013646 000014]
[pid 11] trap DONE 004274 read(3, 013646, 12) [000014 010764 000003 000000 000000 177720 177716 004300] [013646 000014]
[pid 11] read(3, 013646, 12) = "_bmap\x00\x00\x00\"\x006;"
004300 020027  cmp 000014 010764 000003 000000 000000 177720 177716   NZVC1 0000
# 004300 cmp r0, #14 (nextPC=004304)
[pid 11] TRAP
[pid 11] trap 004274 read(3, 013646, 12) [000003 010764 000003 000000 000000 177720 177716 004300] [013646 000014]
[pid 11] trap DONE 004274 read(3, 013646, 12) [000014 010764 000003 000000 000000 177720 177716 004300] [013646 000014]
[pid 11] read(3, 013646, 12) = "_breada\x00\"\x00\x1ec"
004300 020027  cmp 000014 010764 000003 000000 000000 177720 177716   NZVC1 0000
# 004300 cmp r0, #14 (nextPC=004304)
[pid 11] TRAP
[pid 11] trap 004274 read(3, 013646, 12) [000003 010764 000003 000000 000000 177720 177716 004300] [013646 000014]
[pid 11] trap DONE 004274 read(3, 013646, 12) [000014 010764 000003 000000 000000 177720 177716 004300] [013646 000014]
[pid 11] read(3, 013646, 12) = "_iomove\x00\"\x0065"
004300 020027  cmp 000014 010764 000003 000000 000000 177720 177716   NZVC1 0000
# 004300 cmp r0, #14 (nextPC=004304)
[pid 11] TRAP
[pid 11] trap 004274 read(3, 013646, 12) [000003 010764 000003 000000 000000 177720 177716 004300] [013646 000014]
[pid 11] trap DONE 004274 read(3, 013646, 12) [000014 010764 000003 000000 000000 177720 177716 004300] [013646 000014]
[pid 11] read(3, 013646, 12) = "_bawrite\"\x00Nd"
004300 020027  cmp 000014 010764 000003 000000 000000 177720 177716   NZVC1 0000
# 004300 cmp r0, #14 (nextPC=004304)
[pid 11] TRAP
[pid 11] trap 004274 read(3, 013646, 12) [000003 010764 000003 000000 000000 177720 177716 004300] [013646 000014]
[pid 11] trap DONE 004274 read(3, 013646, 12) [000014 010764 000003 000000 000000 177720 177716 004300] [013646 000014]
[pid 11] read(3, 013646, 12) = "_bdwrite\"\x00\x18d"
004300 020027  cmp 000014 010764 000003 000000 000000 177720 177716   NZVC1 0000
# 004300 cmp r0, #14 (nextPC=004304)
[pid 11] TRAP
[pid 11] trap 004274 read(3, 013646, 12) [000003 010764 000003 000000 000000 177720 177716 004300] [013646 000014]
[pid 11] trap DONE 004274 read(3, 013646, 12) [000014 010764 000003 000000 000000 177720 177716 004300] [013646 000014]
[pid 11] read(3, 013646, 12) = "_max\x00\x00\x00\x00\"\x00\x025"
004300 020027  cmp 000014 010764 000003 000000 000000 177720 177716   NZVC1 0000
# 004300 cmp r0, #14 (nextPC=004304)
[pid 11] TRAP
[pid 11] trap 004274 read(3, 013646, 12) [000003 010764 000003 000000 000000 177720 177716 004300] [013646 000014]
[pid 11] trap DONE 004274 read(3, 013646, 12) [000014 010764 000003 000000 000000 177720 177716 004300] [013646 000014]
[pid 11] read(3, 013646, 12) = "_cpass\x00\x00\"\x00\xa4="
004300 020027  cmp 000014 010764 000003 000000 000000 177720 177716   NZVC1 0000
# 004300 cmp r0, #14 (nextPC=004304)
[pid 11] TRAP
[pid 11] trap 004274 read(3, 013646, 12) [000003 010764 000003 000000 000000 177720 177716 004300] [013646 000014]
[pid 11] trap DONE 004274 read(3, 013646, 12) [000014 010764 000003 000000 000000 177720 177716 004300] [013646 000014]
[pid 11] read(3, 013646, 12) = "_passc\x00\x00\"\x00T="
004300 020027  cmp 000014 010764 000003 000000 000000 177720 177716   NZVC1 0000
# 004300 cmp r0, #14 (nextPC=004304)
[pid 11] TRAP
[pid 11] trap 004274 read(3, 013646, 12) [000003 010764 000003 000000 000000 177720 177716 004300] [013646 000014]
[pid 11] trap DONE 004274 read(3, 013646, 12) [000014 010764 000003 000000 000000 177720 177716 004300] [013646 000014]
[pid 11] read(3, 013646, 12) = "_file\x00\x00\x00$\x00h\x1e"
004300 020027  cmp 000014 010764 000003 000000 000000 177720 177716   NZVC1 0000
# 004300 cmp r0, #14 (nextPC=004304)
[pid 11] TRAP
[pid 11] trap 004274 read(3, 013646, 12) [000003 010764 000003 000000 000000 177720 177716 004300] [013646 000014]
[pid 11] trap DONE 004274 read(3, 013646, 12) [000014 010764 000003 000000 000000 177720 177716 004300] [013646 000014]
[pid 11] read(3, 013646, 12) = "_issig\x00\x00\"\x00\x06C"
004300 020027  cmp 000014 010764 000003 000000 000000 177720 177716   NZVC1 0000
# 004300 cmp r0, #14 (nextPC=004304)
[pid 11] TRAP
[pid 11] trap 004274 read(3, 013646, 12) [000003 010764 000003 000000 000000 177720 177716 004300] [013646 000014]
[pid 11] trap DONE 004274 read(3, 013646, 12) [000014 010764 000003 000000 000000 177720 177716 004300] [013646 000014]
[pid 11] read(3, 013646, 12) = "_setrun\x00\"\x00x6"
004300 020027  cmp 000014 010764 000003 000000 000000 177720 177716   NZVC1 0000
# 004300 cmp r0, #14 (nextPC=004304)
[pid 11] TRAP
[pid 11] trap 004274 read(3, 013646, 12) [000003 010764 000003 000000 000000 177720 177716 004300] [013646 000014]
[pid 11] trap DONE 004274 read(3, 013646, 12) [000014 010764 000003 000000 000000 177720 177716 004300] [013646 000014]
[pid 11] read(3, 013646, 12) = "_setpri\x00\"\x00\xb26"
004300 020027  cmp 000014 010764 000003 000000 000000 177720 177716   NZVC1 0000
# 004300 cmp r0, #14 (nextPC=004304)
[pid 11] TRAP
[pid 11] trap 004274 read(3, 013646, 12) [000003 010764 000003 000000 000000 177720 177716 004300] [013646 000014]
[pid 11] trap DONE 004274 read(3, 013646, 12) [000014 010764 000003 000000 000000 177720 177716 004300] [013646 000014]
[pid 11] read(3, 013646, 12) = "_malloc\x00\"\x00DL"
004300 020027  cmp 000014 010764 000003 000000 000000 177720 177716   NZVC1 0000
# 004300 cmp r0, #14 (nextPC=004304)
[pid 11] TRAP
[pid 11] trap 004274 read(3, 013646, 12) [000003 010764 000003 000000 000000 177720 177716 004300] [013646 000014]
[pid 11] trap DONE 004274 read(3, 013646, 12) [000014 010764 000003 000000 000000 177720 177716 004300] [013646 000014]
[pid 11] read(3, 013646, 12) = "_xswap\x00\x00\"\x00\x1c>"
004300 020027  cmp 000014 010764 000003 000000 000000 177720 177716   NZVC1 0000
# 004300 cmp r0, #14 (nextPC=004304)
[pid 11] TRAP
[pid 11] trap 004274 read(3, 013646, 12) [000003 010764 000003 000000 000000 177720 177716 004300] [013646 000014]
[pid 11] trap DONE 004274 read(3, 013646, 12) [000014 010764 000003 000000 000000 177720 177716 004300] [013646 000014]
[pid 11] read(3, 013646, 12) = "_swap\x00\x00\x00\"\x00nh"
004300 020027  cmp 000014 010764 000003 000000 000000 177720 177716   NZVC1 0000
# 004300 cmp r0, #14 (nextPC=004304)
[pid 11] TRAP
[pid 11] trap 004274 read(3, 013646, 12) [000003 010764 000003 000000 000000 177720 177716 004300] [013646 000014]
[pid 11] trap DONE 004274 read(3, 013646, 12) [000014 010764 000003 000000 000000 177720 177716 004300] [013646 000014]
[pid 11] read(3, 013646, 12) = "_xccdec\x00\"\x00X@"
004300 020027  cmp 000014 010764 000003 000000 000000 177720 177716   NZVC1 0000
# 004300 cmp r0, #14 (nextPC=004304)
[pid 11] TRAP
[pid 11] trap 004274 read(3, 013646, 12) [000003 010764 000003 000000 000000 177720 177716 004300] [013646 000014]
[pid 11] trap DONE 004274 read(3, 013646, 12) [000014 010764 000003 000000 000000 177720 177716 004300] [013646 000014]
[pid 11] read(3, 013646, 12) = "_xfree\x00\x00\"\x00\xbe>"
004300 020027  cmp 000014 010764 000003 000000 000000 177720 177716   NZVC1 0000
# 004300 cmp r0, #14 (nextPC=004304)
[pid 11] TRAP
[pid 11] trap 004274 read(3, 013646, 12) [000003 010764 000003 000000 000000 177720 177716 004300] [013646 000014]
[pid 11] trap DONE 004274 read(3, 013646, 12) [000014 010764 000003 000000 000000 177720 177716 004300] [013646 000014]
[pid 11] read(3, 013646, 12) = "_xalloc\x00\"\x00\x18?"
004300 020027  cmp 000014 010764 000003 000000 000000 177720 177716   NZVC1 0000
# 004300 cmp r0, #14 (nextPC=004304)
[pid 11] TRAP
[pid 11] trap 004274 read(3, 013646, 12) [000003 010764 000003 000000 000000 177720 177716 004300] [013646 000014]
[pid 11] trap DONE 004274 read(3, 013646, 12) [000014 010764 000003 000000 000000 177720 177716 004300] [013646 000014]
[pid 11] read(3, 013646, 12) = "_sysent\x00#\x00\x90\x04"
004300 020027  cmp 000014 010764 000003 000000 000000 177720 177716   NZVC1 0000
# 004300 cmp r0, #14 (nextPC=004304)
[pid 11] TRAP
[pid 11] trap 004274 read(3, 013646, 12) [000003 010764 000003 000000 000000 177720 177716 004300] [013646 000014]
[pid 11] trap DONE 004274 read(3, 013646, 12) [000014 010764 000003 000000 000000 177720 177716 004300] [013646 000014]
[pid 11] read(3, 013646, 12) = "_psignal\"\x00\xceB"
004300 020027  cmp 000014 010764 000003 000000 000000 177720 177716   NZVC1 0000
# 004300 cmp r0, #14 (nextPC=004304)
[pid 11] TRAP
[pid 11] trap 004274 read(3, 013646, 12) [000003 010764 000003 000000 000000 177720 177716 004300] [013646 000014]
[pid 11] trap DONE 004274 read(3, 013646, 12) [000014 010764 000003 000000 000000 177720 177716 004300] [013646 000014]
[pid 11] read(3, 013646, 12) = "_psig\x00\x00\x00\"\x00\x8eC"
004300 020027  cmp 000014 010764 000003 000000 000000 177720 177716   NZVC1 0000
# 004300 cmp r0, #14 (nextPC=004304)
[pid 11] TRAP
[pid 11] trap 004274 read(3, 013646, 12) [000003 010764 000003 000000 000000 177720 177716 004300] [013646 000014]
[pid 11] trap DONE 004274 read(3, 013646, 12) [000014 010764 000003 000000 000000 177720 177716 004300] [013646 000014]
[pid 11] read(3, 013646, 12) = "_trap1\x00\x00\"\x00pB"
004300 020027  cmp 000014 010764 000003 000000 000000 177720 177716   NZVC1 0000
# 004300 cmp r0, #14 (nextPC=004304)
[pid 11] TRAP
[pid 11] trap 004274 read(3, 013646, 12) [000003 010764 000003 000000 000000 177720 177716 004300] [013646 000014]
[pid 11] trap DONE 004274 read(3, 013646, 12) [000014 010764 000003 000000 000000 177720 177716 004300] [013646 000014]
[pid 11] read(3, 013646, 12) = "_grow\x00\x00\x00\"\x00\x0eE"
004300 020027  cmp 000014 010764 000003 000000 000000 177720 177716   NZVC1 0000
# 004300 cmp r0, #14 (nextPC=004304)
[pid 11] TRAP
[pid 11] trap 004274 read(3, 013646, 12) [000003 010764 000003 000000 000000 177720 177716 004300] [013646 000014]
[pid 11] trap DONE 004274 read(3, 013646, 12) [000014 010764 000003 000000 000000 177720 177716 004300] [013646 000014]
[pid 11] read(3, 013646, 12) = "_nosys\x00\x00\"\x00\x8eB"
004300 020027  cmp 000014 010764 000003 000000 000000 177720 177716   NZVC1 0000
# 004300 cmp r0, #14 (nextPC=004304)
[pid 11] TRAP
[pid 11] trap 004274 read(3, 013646, 12) [000003 010764 000003 000000 000000 177720 177716 004300] [013646 000014]
[pid 11] trap DONE 004274 read(3, 013646, 12) [000014 010764 000003 000000 000000 177720 177716 004300] [013646 000014]
[pid 11] read(3, 013646, 12) = "_nullsys\"\x00\x9cB"
004300 020027  cmp 000014 010764 000003 000000 000000 177720 177716   NZVC1 0000
# 004300 cmp r0, #14 (nextPC=004304)
[pid 11] TRAP
[pid 11] trap 004274 read(3, 013646, 12) [000003 010764 000003 000000 000000 177720 177716 004300] [013646 000014]
[pid 11] trap DONE 004274 read(3, 013646, 12) [000014 010764 000003 000000 000000 177720 177716 004300] [013646 000014]
[pid 11] read(3, 013646, 12) = "_ipc\x00\x00\x00\x00$\x00\x88!"
004300 020027  cmp 000014 010764 000003 000000 000000 177720 177716   NZVC1 0000
# 004300 cmp r0, #14 (nextPC=004304)
[pid 11] TRAP
[pid 11] trap 004274 read(3, 013646, 12) [000003 010764 000003 000000 000000 177720 177716 004300] [013646 000014]
[pid 11] trap DONE 004274 read(3, 013646, 12) [000014 010764 000003 000000 000000 177720 177716 004300] [013646 000014]
[pid 11] read(3, 013646, 12) = "_signal\x00\"\x00\xa4B"
004300 020027  cmp 000014 010764 000003 000000 000000 177720 177716   NZVC1 0000
# 004300 cmp r0, #14 (nextPC=004304)
[pid 11] TRAP
[pid 11] trap 004274 read(3, 013646, 12) [000003 010764 000003 000000 000000 177720 177716 004300] [013646 000014]
[pid 11] trap DONE 004274 read(3, 013646, 12) [000014 010764 000003 000000 000000 177720 177716 004300] [013646 000014]
[pid 11] read(3, 013646, 12) = "_stop\x00\x00\x00\"\x00@C"
004300 020027  cmp 000014 010764 000003 000000 000000 177720 177716   NZVC1 0000
# 004300 cmp r0, #14 (nextPC=004304)
[pid 11] TRAP
[pid 11] trap 004274 read(3, 013646, 12) [000003 010764 000003 000000 000000 177720 177716 004300] [013646 000014]
[pid 11] trap DONE 004274 read(3, 013646, 12) [000014 010764 000003 000000 000000 177720 177716 004300] [013646 000014]
[pid 11] read(3, 013646, 12) = "_procxmt\"\x00zF"
004300 020027  cmp 000014 010764 000003 000000 000000 177720 177716   NZVC1 0000
# 004300 cmp r0, #14 (nextPC=004304)
[pid 11] TRAP
[pid 11] trap 004274 read(3, 013646, 12) [000003 010764 000003 000000 000000 177720 177716 004300] [013646 000014]
[pid 11] trap DONE 004274 read(3, 013646, 12) [000014 010764 000003 000000 000000 177720 177716 004300] [013646 000014]
[pid 11] read(3, 013646, 12) = "_exit\x00\x00\x00\"\x00\xf4T"
004300 020027  cmp 000014 010764 000003 000000 000000 177720 177716   NZVC1 0000
# 004300 cmp r0, #14 (nextPC=004304)
[pid 11] TRAP
[pid 11] trap 004274 read(3, 013646, 12) [000003 010764 000003 000000 000000 177720 177716 004300] [013646 000014]
[pid 11] trap DONE 004274 read(3, 013646, 12) [000014 010764 000003 000000 000000 177720 177716 004300] [013646 000014]
[pid 11] read(3, 013646, 12) = "_core\x00\x00\x00\"\x00JD"
004300 020027  cmp 000014 010764 000003 000000 000000 177720 177716   NZVC1 0000
# 004300 cmp r0, #14 (nextPC=004304)
[pid 11] TRAP
[pid 11] trap 004274 read(3, 013646, 12) [000003 010764 000003 000000 000000 177720 177716 004300] [013646 000014]
[pid 11] trap DONE 004274 read(3, 013646, 12) [000014 010764 000003 000000 000000 177720 177716 004300] [013646 000014]
[pid 11] read(3, 013646, 12) = "_schar\x00\x00\"\x00PO"
004300 020027  cmp 000014 010764 000003 000000 000000 177720 177716   NZVC1 0000
# 004300 cmp r0, #14 (nextPC=004304)
[pid 11] TRAP
[pid 11] trap 004274 read(3, 013646, 12) [000003 010764 000003 000000 000000 177720 177716 004300] [013646 000014]
[pid 11] trap DONE 004274 read(3, 013646, 12) [000014 010764 000003 000000 000000 177720 177716 004300] [013646 000014]
[pid 11] read(3, 013646, 12) = "_namei\x00\x00\"\x00 M"
004300 020027  cmp 000014 010764 000003 000000 000000 177720 177716   NZVC1 0000
# 004300 cmp r0, #14 (nextPC=004304)
[pid 11] TRAP
[pid 11] trap 004274 read(3, 013646, 12) [000003 010764 000003 000000 000000 177720 177716 004300] [013646 000014]
[pid 11] trap DONE 004274 read(3, 013646, 12) [000014 010764 000003 000000 000000 177720 177716 004300] [013646 000014]
[pid 11] read(3, 013646, 12) = "_access\x00\"\x00\xfcJ"
004300 020027  cmp 000014 010764 000003 000000 000000 177720 177716   NZVC1 0000
# 004300 cmp r0, #14 (nextPC=004304)
[pid 11] TRAP
[pid 11] trap 004274 read(3, 013646, 12) [000003 010764 000003 000000 000000 177720 177716 004300] [013646 000014]
[pid 11] trap DONE 004274 read(3, 013646, 12) [000014 010764 000003 000000 000000 177720 177716 004300] [013646 000014]
[pid 11] read(3, 013646, 12) = "_ptrace\x00\"\x00\xbcE"
004300 020027  cmp 000014 010764 000003 000000 000000 177720 177716   NZVC1 0000
# 004300 cmp r0, #14 (nextPC=004304)
[pid 11] TRAP
[pid 11] trap 004274 read(3, 013646, 12) [000003 010764 000003 000000 000000 177720 177716 004300] [013646 000014]
[pid 11] trap DONE 004274 read(3, 013646, 12) [000014 010764 000003 000000 000000 177720 177716 004300] [013646 000014]
[pid 11] read(3, 013646, 12) = "_rexit\x00\x00\"\x00\xdcT"
004300 020027  cmp 000014 010764 000003 000000 000000 177720 177716   NZVC1 0000
# 004300 cmp r0, #14 (nextPC=004304)
[pid 11] TRAP
[pid 11] trap 004274 read(3, 013646, 12) [000003 010764 000003 000000 000000 177720 177716 004300] [013646 000014]
[pid 11] trap DONE 004274 read(3, 013646, 12) [000014 010764 000003 000000 000000 177720 177716 004300] [013646 000014]
[pid 11] read(3, 013646, 12) = "_fork\x00\x00\x00\"\x00\bW"
004300 020027  cmp 000014 010764 000003 000000 000000 177720 177716   NZVC1 0000
# 004300 cmp r0, #14 (nextPC=004304)
[pid 11] TRAP
[pid 11] trap 004274 read(3, 013646, 12) [000003 010764 000003 000000 000000 177720 177716 004300] [013646 000014]
[pid 11] trap DONE 004274 read(3, 013646, 12) [000014 010764 000003 000000 000000 177720 177716 004300] [013646 000014]
[pid 11] read(3, 013646, 12) = "_read\x00\x00\x00\"\x00FX"
004300 020027  cmp 000014 010764 000003 000000 000000 177720 177716   NZVC1 0000
# 004300 cmp r0, #14 (nextPC=004304)
[pid 11] TRAP
[pid 11] trap 004274 read(3, 013646, 12) [000003 010764 000003 000000 000000 177720 177716 004300] [013646 000014]
[pid 11] trap DONE 004274 read(3, 013646, 12) [000014 010764 000003 000000 000000 177720 177716 004300] [013646 000014]
[pid 11] read(3, 013646, 12) = "_write\x00\x00\"\x00VX"
004300 020027  cmp 000014 010764 000003 000000 000000 177720 177716   NZVC1 0000
# 004300 cmp r0, #14 (nextPC=004304)
[pid 11] TRAP
[pid 11] trap 004274 read(3, 013646, 12) [000003 010764 000003 000000 000000 177720 177716 004300] [013646 000014]
[pid 11] trap DONE 004274 read(3, 013646, 12) [000014 010764 000003 000000 000000 177720 177716 004300] [013646 000014]
[pid 11] read(3, 013646, 12) = "_open\x00\x00\x00\"\x00\xfaX"
004300 020027  cmp 000014 010764 000003 000000 000000 177720 177716   NZVC1 0000
# 004300 cmp r0, #14 (nextPC=004304)
[pid 11] TRAP
[pid 11] trap 004274 read(3, 013646, 12) [000003 010764 000003 000000 000000 177720 177716 004300] [013646 000014]
[pid 11] trap DONE 004274 read(3, 013646, 12) [000014 010764 000003 000000 000000 177720 177716 004300] [013646 000014]
[pid 11] read(3, 013646, 12) = "_close\x00\x00\"\x00\x16Z"
004300 020027  cmp 000014 010764 000003 000000 000000 177720 177716   NZVC1 0000
# 004300 cmp r0, #14 (nextPC=004304)
[pid 11] TRAP
[pid 11] trap 004274 read(3, 013646, 12) [000003 010764 000003 000000 000000 177720 177716 004300] [013646 000014]
[pid 11] trap DONE 004274 read(3, 013646, 12) [000014 010764 000003 000000 000000 177720 177716 004300] [013646 000014]
[pid 11] read(3, 013646, 12) = "_wait\x00\x00\x00\"\x00\xecU"
004300 020027  cmp 000014 010764 000003 000000 000000 177720 177716   NZVC1 0000
# 004300 cmp r0, #14 (nextPC=004304)
[pid 11] TRAP
[pid 11] trap 004274 read(3, 013646, 12) [000003 010764 000003 000000 000000 177720 177716 004300] [013646 000014]
[pid 11] trap DONE 004274 read(3, 013646, 12) [000014 010764 000003 000000 000000 177720 177716 004300] [013646 000014]
[pid 11] read(3, 013646, 12) = "_creat\x00\x00\"\x00$Y"
004300 020027  cmp 000014 010764 000003 000000 000000 177720 177716   NZVC1 0000
# 004300 cmp r0, #14 (nextPC=004304)
[pid 11] TRAP
[pid 11] trap 004274 read(3, 013646, 12) [000003 010764 000003 000000 000000 177720 177716 004300] [013646 000014]
[pid 11] trap DONE 004274 read(3, 013646, 12) [000014 010764 000003 000000 000000 177720 177716 004300] [013646 000014]
[pid 11] read(3, 013646, 12) = "_link\x00\x00\x00\"\x00\xf4Z"
004300 020027  cmp 000014 010764 000003 000000 000000 177720 177716   NZVC1 0000
# 004300 cmp r0, #14 (nextPC=004304)
[pid 11] TRAP
[pid 11] trap 004274 read(3, 013646, 12) [000003 010764 000003 000000 000000 177720 177716 004300] [013646 000014]
[pid 11] trap DONE 004274 read(3, 013646, 12) [000014 010764 000003 000000 000000 177720 177716 004300] [013646 000014]
[pid 11] read(3, 013646, 12) = "_unlink\x00\"\x00\x96`"
004300 020027  cmp 000014 010764 000003 000000 000000 177720 177716   NZVC1 0000
# 004300 cmp r0, #14 (nextPC=004304)
[pid 11] TRAP
[pid 11] trap 004274 read(3, 013646, 12) [000003 010764 000003 000000 000000 177720 177716 004300] [013646 000014]
[pid 11] trap DONE 004274 read(3, 013646, 12) [000014 010764 000003 000000 000000 177720 177716 004300] [013646 000014]
[pid 11] read(3, 013646, 12) = "_exec\x00\x00\x00\"\x00\x80Q"
004300 020027  cmp 000014 010764 000003 000000 000000 177720 177716   NZVC1 0000
# 004300 cmp r0, #14 (nextPC=004304)
[pid 11] TRAP
[pid 11] trap 004274 read(3, 013646, 12) [000003 010764 000003 000000 000000 177720 177716 004300] [013646 000014]
[pid 11] trap DONE 004274 read(3, 013646, 12) [000014 010764 000003 000000 000000 177720 177716 004300] [013646 000014]
[pid 11] read(3, 013646, 12) = "_chdir\x00\x00\"\x00\x16a"
004300 020027  cmp 000014 010764 000003 000000 000000 177720 177716   NZVC1 0000
# 004300 cmp r0, #14 (nextPC=004304)
[pid 11] TRAP
[pid 11] trap 004274 read(3, 013646, 12) [000003 010764 000003 000000 000000 177720 177716 004300] [013646 000014]
[pid 11] trap DONE 004274 read(3, 013646, 12) [000014 010764 000003 000000 000000 177720 177716 004300] [013646 000014]
[pid 11] read(3, 013646, 12) = "_gtime\x00\x00\"\x00\x90_"
004300 020027  cmp 000014 010764 000003 000000 000000 177720 177716   NZVC1 0000
# 004300 cmp r0, #14 (nextPC=004304)
[pid 11] TRAP
[pid 11] trap 004274 read(3, 013646, 12) [000003 010764 000003 000000 000000 177720 177716 004300] [013646 000014]
[pid 11] trap DONE 004274 read(3, 013646, 12) [000014 010764 000003 000000 000000 177720 177716 004300] [013646 000014]
[pid 11] read(3, 013646, 12) = "_mknod\x00\x00\"\x00\x8e["
004300 020027  cmp 000014 010764 000003 000000 000000 177720 177716   NZVC1 0000
# 004300 cmp r0, #14 (nextPC=004304)
[pid 11] TRAP
[pid 11] trap 004274 read(3, 013646, 12) [000003 010764 000003 000000 000000 177720 177716 004300] [013646 000014]
[pid 11] trap DONE 004274 read(3, 013646, 12) [000014 010764 000003 000000 000000 177720 177716 004300] [013646 000014]
[pid 11] read(3, 013646, 12) = "_chmod\x00\x00\"\x00la"
004300 020027  cmp 000014 010764 000003 000000 000000 177720 177716   NZVC1 0000
# 004300 cmp r0, #14 (nextPC=004304)
[pid 11] TRAP
[pid 11] trap 004274 read(3, 013646, 12) [000003 010764 000003 000000 000000 177720 177716 004300] [013646 000014]
[pid 11] trap DONE 004274 read(3, 013646, 12) [000014 010764 000003 000000 000000 177720 177716 004300] [013646 000014]
[pid 11] read(3, 013646, 12) = "_chown\x00\x00\"\x00\xa4a"
004300 020027  cmp 000014 010764 000003 000000 000000 177720 177716   NZVC1 0000
# 004300 cmp r0, #14 (nextPC=004304)
[pid 11] TRAP
[pid 11] trap 004274 read(3, 013646, 12) [000003 010764 000003 000000 000000 177720 177716 004300] [013646 000014]
[pid 11] trap DONE 004274 read(3, 013646, 12) [000014 010764 000003 000000 000000 177720 177716 004300] [013646 000014]
[pid 11] read(3, 013646, 12) = "_sbreak\x00\"\x00hW"
004300 020027  cmp 000014 010764 000003 000000 000000 177720 177716   NZVC1 0000
# 004300 cmp r0, #14 (nextPC=004304)
[pid 11] TRAP
[pid 11] trap 004274 read(3, 013646, 12) [000003 010764 000003 000000 000000 177720 177716 004300] [013646 000014]
[pid 11] trap DONE 004274 read(3, 013646, 12) [000014 010764 000003 000000 000000 177720 177716 004300] [013646 000014]
[pid 11] read(3, 013646, 12) = "_stat\x00\x00\x00\"\x00\x96\\"
004300 020027  cmp 000014 010764 000003 000000 000000 177720 177716   NZVC1 0000
# 004300 cmp r0, #14 (nextPC=004304)
[pid 11] TRAP
[pid 11] trap 004274 read(3, 013646, 12) [000003 010764 000003 000000 000000 177720 177716 004300] [013646 000014]
[pid 11] trap DONE 004274 read(3, 013646, 12) [000014 010764 000003 000000 000000 177720 177716 004300] [013646 000014]
[pid 11] read(3, 013646, 12) = "_seek\x00\x00\x00\"\x00:Z"
004300 020027  cmp 000014 010764 000003 000000 000000 177720 177716   NZVC1 0000
# 004300 cmp r0, #14 (nextPC=004304)
[pid 11] TRAP
[pid 11] trap 004274 read(3, 013646, 12) [000003 010764 000003 000000 000000 177720 177716 004300] [013646 000014]
[pid 11] trap DONE 004274 read(3, 013646, 12) [000014 010764 000003 000000 000000 177720 177716 004300] [013646 000014]
[pid 11] read(3, 013646, 12) = "_getpid\x00\"\x00L`"
004300 020027  cmp 000014 010764 000003 000000 000000 177720 177716   NZVC1 0000
# 004300 cmp r0, #14 (nextPC=004304)
[pid 11] TRAP
[pid 11] trap 004274 read(3, 013646, 12) [000003 010764 000003 000000 000000 177720 177716 004300] [013646 000014]
[pid 11] trap DONE 004274 read(3, 013646, 12) [000014 010764 000003 000000 000000 177720 177716 004300] [013646 000014]
[pid 11] read(3, 013646, 12) = "_smount\x00\"\x00\x9c]"
004300 020027  cmp 000014 010764 000003 000000 000000 177720 177716   NZVC1 0000
# 004300 cmp r0, #14 (nextPC=004304)
[pid 11] TRAP
[pid 11] trap 004274 read(3, 013646, 12) [000003 010764 000003 000000 000000 177720 177716 004300] [013646 000014]
[pid 11] trap DONE 004274 read(3, 013646, 12) [000014 010764 000003 000000 000000 177720 177716 004300] [013646 000014]
[pid 11] read(3, 013646, 12) = "_sumount\"\x00\xa8^"
004300 020027  cmp 000014 010764 000003 000000 000000 177720 177716   NZVC1 0000
# 004300 cmp r0, #14 (nextPC=004304)
[pid 11] TRAP
[pid 11] trap 004274 read(3, 013646, 12) [000003 010764 000003 000000 000000 177720 177716 004300] [013646 000014]
[pid 11] trap DONE 004274 read(3, 013646, 12) [000014 010764 000003 000000 000000 177720 177716 004300] [013646 000014]
[pid 11] read(3, 013646, 12) = "_setuid\x00\"\x00\xd0_"
004300 020027  cmp 000014 010764 000003 000000 000000 177720 177716   NZVC1 0000
# 004300 cmp r0, #14 (nextPC=004304)
[pid 11] TRAP
[pid 11] trap 004274 read(3, 013646, 12) [000003 010764 000003 000000 000000 177720 177716 004300] [013646 000014]
[pid 11] trap DONE 004274 read(3, 013646, 12) [000014 010764 000003 000000 000000 177720 177716 004300] [013646 000014]
[pid 11] read(3, 013646, 12) = "_getuid\x00\"\x00\xfa_"
004300 020027  cmp 000014 010764 000003 000000 000000 177720 177716   NZVC1 0000
# 004300 cmp r0, #14 (nextPC=004304)
[pid 11] TRAP
[pid 11] trap 004274 read(3, 013646, 12) [000003 010764 000003 000000 000000 177720 177716 004300] [013646 000014]
[pid 11] trap DONE 004274 read(3, 013646, 12) [000014 010764 000003 000000 000000 177720 177716 004300] [013646 000014]
[pid 11] read(3, 013646, 12) = "_stime\x00\x00\"\x00\xa8_"
004300 020027  cmp 000014 010764 000003 000000 000000 177720 177716   NZVC1 0000
# 004300 cmp r0, #14 (nextPC=004304)
[pid 11] TRAP
[pid 11] trap 004274 read(3, 013646, 12) [000003 010764 000003 000000 000000 177720 177716 004300] [013646 000014]
[pid 11] trap DONE 004274 read(3, 013646, 12) [000014 010764 000003 000000 000000 177720 177716 004300] [013646 000014]
[pid 11] read(3, 013646, 12) = "_fstat\x00\x00\"\x00t\\"
004300 020027  cmp 000014 010764 000003 000000 000000 177720 177716   NZVC1 0000
# 004300 cmp r0, #14 (nextPC=004304)
[pid 11] TRAP
[pid 11] trap 004274 read(3, 013646, 12) [000003 010764 000003 000000 000000 177720 177716 004300] [013646 000014]
[pid 11] trap DONE 004274 read(3, 013646, 12) [000014 010764 000003 000000 000000 177720 177716 004300] [013646 000014]
[pid 11] read(3, 013646, 12) = "_stty\x00\x00\x00\"\x00Xk"
004300 020027  cmp 000014 010764 000003 000000 000000 177720 177716   NZVC1 0000
# 004300 cmp r0, #14 (nextPC=004304)
[pid 11] TRAP
[pid 11] trap 004274 read(3, 013646, 12) [000003 010764 000003 000000 000000 177720 177716 004300] [013646 000014]
[pid 11] trap DONE 004274 read(3, 013646, 12) [000014 010764 000003 000000 000000 177720 177716 004300] [013646 000014]
[pid 11] read(3, 013646, 12) = "_gtty\x00\x00\x00\"\x00\x10k"
004300 020027  cmp 000014 010764 000003 000000 000000 177720 177716   NZVC1 0000
# 004300 cmp r0, #14 (nextPC=004304)
[pid 11] TRAP
[pid 11] trap 004274 read(3, 013646, 12) [000003 010764 000003 000000 000000 177720 177716 004300] [013646 000014]
[pid 11] trap DONE 004274 read(3, 013646, 12) [000014 010764 000003 000000 000000 177720 177716 004300] [013646 000014]
[pid 11] read(3, 013646, 12) = "_nice\x00\x00\x00\"\x00j`"
004300 020027  cmp 000014 010764 000003 000000 000000 177720 177716   NZVC1 0000
# 004300 cmp r0, #14 (nextPC=004304)
[pid 11] TRAP
[pid 11] trap 004274 read(3, 013646, 12) [000003 010764 000003 000000 000000 177720 177716 004300] [013646 000014]
[pid 11] trap DONE 004274 read(3, 013646, 12) [000014 010764 000003 000000 000000 177720 177716 004300] [013646 000014]
[pid 11] read(3, 013646, 12) = "_sslep\x00\x00\"\x00\xd6["
004300 020027  cmp 000014 010764 000003 000000 000000 177720 177716   NZVC1 0000
# 004300 cmp r0, #14 (nextPC=004304)
[pid 11] TRAP
[pid 11] trap 004274 read(3, 013646, 12) [000003 010764 000003 000000 000000 177720 177716 004300] [013646 000014]
[pid 11] trap DONE 004274 read(3, 013646, 12) [000014 010764 000003 000000 000000 177720 177716 004300] [013646 000014]
[pid 11] read(3, 013646, 12) = "_sync\x00\x00\x00\"\x00^`"
004300 020027  cmp 000014 010764 000003 000000 000000 177720 177716   NZVC1 0000
# 004300 cmp r0, #14 (nextPC=004304)
[pid 11] TRAP
[pid 11] trap 004274 read(3, 013646, 12) [000003 010764 000003 000000 000000 177720 177716 004300] [013646 000014]
[pid 11] trap DONE 004274 read(3, 013646, 12) [000014 010764 000003 000000 000000 177720 177716 004300] [013646 000014]
[pid 11] read(3, 013646, 12) = "_kill\x00\x00\x00\"\x00\x1cb"
004300 020027  cmp 000014 010764 000003 000000 000000 177720 177716   NZVC1 0000
# 004300 cmp r0, #14 (nextPC=004304)
[pid 11] TRAP
[pid 11] trap 004274 read(3, 013646, 12) [000003 010764 000003 000000 000000 177720 177716 004300] [013646 000014]
[pid 11] trap DONE 004274 read(3, 013646, 12) [000014 010764 000003 000000 000000 177720 177716 004300] [013646 000014]
[pid 11] read(3, 013646, 12) = "_getswit\"\x00\x82_"
004300 020027  cmp 000014 010764 000003 000000 000000 177720 177716   NZVC1 0000
# 004300 cmp r0, #14 (nextPC=004304)
[pid 11] TRAP
[pid 11] trap 004274 read(3, 013646, 12) [000003 010764 000003 000000 000000 177720 177716 004300] [013646 000014]
[pid 11] trap DONE 004274 read(3, 013646, 12) [000014 010764 000003 000000 000000 177720 177716 004300] [013646 000014]
[pid 11] read(3, 013646, 12) = "_dup\x00\x00\x00\x00\"\x00t]"
004300 020027  cmp 000014 010764 000003 000000 000000 177720 177716   NZVC1 0000
# 004300 cmp r0, #14 (nextPC=004304)
[pid 11] TRAP
[pid 11] trap 004274 read(3, 013646, 12) [000003 010764 000003 000000 000000 177720 177716 004300] [013646 000014]
[pid 11] trap DONE 004274 read(3, 013646, 12) [000014 010764 000003 000000 000000 177720 177716 004300] [013646 000014]
[pid 11] read(3, 013646, 12) = "_pipe\x00\x00\x00\"\x00\x88O"
004300 020027  cmp 000014 010764 000003 000000 000000 177720 177716   NZVC1 0000
# 004300 cmp r0, #14 (nextPC=004304)
[pid 11] TRAP
[pid 11] trap 004274 read(3, 013646, 12) [000003 010764 000003 000000 000000 177720 177716 004300] [013646 000014]
[pid 11] trap DONE 004274 read(3, 013646, 12) [000014 010764 000003 000000 000000 177720 177716 004300] [013646 000014]
[pid 11] read(3, 013646, 12) = "_times\x00\x00\"\x00\x8ab"
004300 020027  cmp 000014 010764 000003 000000 000000 177720 177716   NZVC1 0000
# 004300 cmp r0, #14 (nextPC=004304)
[pid 11] TRAP
[pid 11] trap 004274 read(3, 013646, 12) [000003 010764 000003 000000 000000 177720 177716 004300] [013646 000014]
[pid 11] trap DONE 004274 read(3, 013646, 12) [000014 010764 000003 000000 000000 177720 177716 004300] [013646 000014]
[pid 11] read(3, 013646, 12) = "_profil\x00\"\x00\xaeb"
004300 020027  cmp 000014 010764 000003 000000 000000 177720 177716   NZVC1 0000
# 004300 cmp r0, #14 (nextPC=004304)
[pid 11] TRAP
[pid 11] trap 004274 read(3, 013646, 12) [000003 010764 000003 000000 000000 177720 177716 004300] [013646 000014]
[pid 11] trap DONE 004274 read(3, 013646, 12) [000014 010764 000003 000000 000000 177720 177716 004300] [013646 000014]
[pid 11] read(3, 013646, 12) = "_setgid\x00\"\x00\x12`"
004300 020027  cmp 000014 010764 000003 000000 000000 177720 177716   NZVC1 0000
# 004300 cmp r0, #14 (nextPC=004304)
[pid 11] TRAP
[pid 11] trap 004274 read(3, 013646, 12) [000003 010764 000003 000000 000000 177720 177716 004300] [013646 000014]
[pid 11] trap DONE 004274 read(3, 013646, 12) [000014 010764 000003 000000 000000 177720 177716 004300] [013646 000014]
[pid 11] read(3, 013646, 12) = "_getgid\x00\"\x004`"
004300 020027  cmp 000014 010764 000003 000000 000000 177720 177716   NZVC1 0000
# 004300 cmp r0, #14 (nextPC=004304)
[pid 11] TRAP
[pid 11] trap 004274 read(3, 013646, 12) [000003 010764 000003 000000 000000 177720 177716 004300] [013646 000014]
[pid 11] trap DONE 004274 read(3, 013646, 12) [000014 010764 000003 000000 000000 177720 177716 004300] [013646 000014]
[pid 11] read(3, 013646, 12) = "_ssig\x00\x00\x00\"\x00\xd2a"
004300 020027  cmp 000014 010764 000003 000000 000000 177720 177716   NZVC1 0000
# 004300 cmp r0, #14 (nextPC=004304)
[pid 11] TRAP
[pid 11] trap 004274 read(3, 013646, 12) [000003 010764 000003 000000 000000 177720 177716 004300] [013646 000014]
[pid 11] trap DONE 004274 read(3, 013646, 12) [000014 010764 000003 000000 000000 177720 177716 004300] [013646 000014]
[pid 11] read(3, 013646, 12) = "_timeout\"\x00VI"
004300 020027  cmp 000014 010764 000003 000000 000000 177720 177716   NZVC1 0000
# 004300 cmp r0, #14 (nextPC=004304)
[pid 11] TRAP
[pid 11] trap 004274 read(3, 013646, 12) [000003 010764 000003 000000 000000 177720 177716 004300] [013646 000014]
[pid 11] trap DONE 004274 read(3, 013646, 12) [000014 010764 000003 000000 000000 177720 177716 004300] [013646 000014]
[pid 11] read(3, 013646, 12) = "_getf\x00\x00\x00\"\x00\xc2I"
004300 020027  cmp 000014 010764 000003 000000 000000 177720 177716   NZVC1 0000
# 004300 cmp r0, #14 (nextPC=004304)
[pid 11] TRAP
[pid 11] trap 004274 read(3, 013646, 12) [000003 010764 000003 000000 000000 177720 177716 004300] [013646 000014]
[pid 11] trap DONE 004274 read(3, 013646, 12) [000014 010764 000003 000000 000000 177720 177716 004300] [013646 000014]
[pid 11] read(3, 013646, 12) = "_closef\x00\"\x00\xecI"
004300 020027  cmp 000014 010764 000003 000000 000000 177720 177716   NZVC1 0000
# 004300 cmp r0, #14 (nextPC=004304)
[pid 11] TRAP
[pid 11] trap 004274 read(3, 013646, 12) [000003 010764 000003 000000 000000 177720 177716 004300] [013646 000014]
[pid 11] trap DONE 004274 read(3, 013646, 12) [000014 010764 000003 000000 000000 177720 177716 004300] [013646 000014]
[pid 11] read(3, 013646, 12) = "_closei\x00\"\x00:J"
004300 020027  cmp 000014 010764 000003 000000 000000 177720 177716   NZVC1 0000
# 004300 cmp r0, #14 (nextPC=004304)
[pid 11] TRAP
[pid 11] trap 004274 read(3, 013646, 12) [000003 010764 000003 000000 000000 177720 177716 004300] [013646 000014]
[pid 11] trap DONE 004274 read(3, 013646, 12) [000014 010764 000003 000000 000000 177720 177716 004300] [013646 000014]
[pid 11] read(3, 013646, 12) = "_openi\x00\x00\"\x00\x98J"
004300 020027  cmp 000014 010764 000003 000000 000000 177720 177716   NZVC1 0000
# 004300 cmp r0, #14 (nextPC=004304)
[pid 11] TRAP
[pid 11] trap 004274 read(3, 013646, 12) [000003 010764 000003 000000 000000 177720 177716 004300] [013646 000014]
[pid 11] trap DONE 004274 read(3, 013646, 12) [000014 010764 000003 000000 000000 177720 177716 004300] [013646 000014]
[pid 11] read(3, 013646, 12) = "_owner\x00\x00\"\x00vK"
004300 020027  cmp 000014 010764 000003 000000 000000 177720 177716   NZVC1 0000
# 004300 cmp r0, #14 (nextPC=004304)
[pid 11] TRAP
[pid 11] trap 004274 read(3, 013646, 12) [000003 010764 000003 000000 000000 177720 177716 004300] [013646 000014]
[pid 11] trap DONE 004274 read(3, 013646, 12) [000014 010764 000003 000000 000000 177720 177716 004300] [013646 000014]
[pid 11] read(3, 013646, 12) = "_uchar\x00\x00\"\x00dO"
004300 020027  cmp 000014 010764 000003 000000 000000 177720 177716   NZVC1 0000
# 004300 cmp r0, #14 (nextPC=004304)
[pid 11] TRAP
[pid 11] trap 004274 read(3, 013646, 12) [000003 010764 000003 000000 000000 177720 177716 004300] [013646 000014]
[pid 11] trap DONE 004274 read(3, 013646, 12) [000014 010764 000003 000000 000000 177720 177716 004300] [013646 000014]
[pid 11] read(3, 013646, 12) = "_suser\x00\x00\"\x00\xacK"
004300 020027  cmp 000014 010764 000003 000000 000000 177720 177716   NZVC1 0000
# 004300 cmp r0, #14 (nextPC=004304)
[pid 11] TRAP
[pid 11] trap 004274 read(3, 013646, 12) [000003 010764 000003 000000 000000 177720 177716 004300] [013646 000014]
[pid 11] trap DONE 004274 read(3, 013646, 12) [000014 010764 000003 000000 000000 177720 177716 004300] [013646 000014]
[pid 11] read(3, 013646, 12) = "_ufalloc\"\x00\xc8K"
004300 020027  cmp 000014 010764 000003 000000 000000 177720 177716   NZVC1 0000
# 004300 cmp r0, #14 (nextPC=004304)
[pid 11] TRAP
[pid 11] trap 004274 read(3, 013646, 12) [000003 010764 000003 000000 000000 177720 177716 004300] [013646 000014]
[pid 11] trap DONE 004274 read(3, 013646, 12) [000014 010764 000003 000000 000000 177720 177716 004300] [013646 000014]
[pid 11] read(3, 013646, 12) = "_falloc\x00\"\x00\xf6K"
004300 020027  cmp 000014 010764 000003 000000 000000 177720 177716   NZVC1 0000
# 004300 cmp r0, #14 (nextPC=004304)
[pid 11] TRAP
[pid 11] trap 004274 read(3, 013646, 12) [000003 010764 000003 000000 000000 177720 177716 004300] [013646 000014]
[pid 11] trap DONE 004274 read(3, 013646, 12) [000014 010764 000003 000000 000000 177720 177716 004300] [013646 000014]
[pid 11] read(3, 013646, 12) = "_readp\x00\x00\"\x00\xfaO"
004300 020027  cmp 000014 010764 000003 000000 000000 177720 177716   NZVC1 0000
# 004300 cmp r0, #14 (nextPC=004304)
[pid 11] TRAP
[pid 11] trap 004274 read(3, 013646, 12) [000003 010764 000003 000000 000000 177720 177716 004300] [013646 000014]
[pid 11] trap DONE 004274 read(3, 013646, 12) [000014 010764 000003 000000 000000 177720 177716 004300] [013646 000014]
[pid 11] read(3, 013646, 12) = "_plock\x00\x00\"\x008Q"
004300 020027  cmp 000014 010764 000003 000000 000000 177720 177716   NZVC1 0000
# 004300 cmp r0, #14 (nextPC=004304)
[pid 11] TRAP
[pid 11] trap 004274 read(3, 013646, 12) [000003 010764 000003 000000 000000 177720 177716 004300] [013646 000014]
[pid 11] trap DONE 004274 read(3, 013646, 12) [000014 010764 000003 000000 000000 177720 177716 004300] [013646 000014]
[pid 11] read(3, 013646, 12) = "_writep\x00\"\x00\x80P"
004300 020027  cmp 000014 010764 000003 000000 000000 177720 177716   NZVC1 0000
# 004300 cmp r0, #14 (nextPC=004304)
[pid 11] TRAP
[pid 11] trap 004274 read(3, 013646, 12) [000003 010764 000003 000000 000000 177720 177716 004300] [013646 000014]
[pid 11] trap DONE 004274 read(3, 013646, 12) [000014 010764 000003 000000 000000 177720 177716 004300] [013646 000014]
[pid 11] read(3, 013646, 12) = "_rdwr\x00\x00\x00\"\x00fX"
004300 020027  cmp 000014 010764 000003 000000 000000 177720 177716   NZVC1 0000
# 004300 cmp r0, #14 (nextPC=004304)
[pid 11] TRAP
[pid 11] trap 004274 read(3, 013646, 12) [000003 010764 000003 000000 000000 177720 177716 004300] [013646 000014]
[pid 11] trap DONE 004274 read(3, 013646, 12) [000014 010764 000003 000000 000000 177720 177716 004300] [013646 000014]
[pid 11] read(3, 013646, 12) = "_open1\x00\x00\"\x00jY"
004300 020027  cmp 000014 010764 000003 000000 000000 177720 177716   NZVC1 0000
# 004300 cmp r0, #14 (nextPC=004304)
[pid 11] TRAP
[pid 11] trap 004274 read(3, 013646, 12) [000003 010764 000003 000000 000000 177720 177716 004300] [013646 000014]
[pid 11] trap DONE 004274 read(3, 013646, 12) [000014 010764 000003 000000 000000 177720 177716 004300] [013646 000014]
[pid 11] read(3, 013646, 12) = "_stat1\x00\x00\"\x00\xc0\\"
004300 020027  cmp 000014 010764 000003 000000 000000 177720 177716   NZVC1 0000
# 004300 cmp r0, #14 (nextPC=004304)
[pid 11] TRAP
[pid 11] trap 004274 read(3, 013646, 12) [000003 010764 000003 000000 000000 177720 177716 004300] [013646 000014]
[pid 11] trap DONE 004274 read(3, 013646, 12) [000014 010764 000003 000000 000000 177720 177716 004300] [013646 000014]
[pid 11] read(3, 013646, 12) = "_getmdev\"\x00:_"
004300 020027  cmp 000014 010764 000003 000000 000000 177720 177716   NZVC1 0000
# 004300 cmp r0, #14 (nextPC=004304)
[pid 11] TRAP
[pid 11] trap 004274 read(3, 013646, 12) [000003 010764 000003 000000 000000 177720 177716 004300] [013646 000014]
[pid 11] trap DONE 004274 read(3, 013646, 12) [000014 010764 000003 000000 000000 177720 177716 004300] [013646 000014]
[pid 11] read(3, 013646, 12) = "_buffers$\x00\x90!"
004300 020027  cmp 000014 010764 000003 000000 000000 177720 177716   NZVC1 0000
# 004300 cmp r0, #14 (nextPC=004304)
[pid 11] TRAP
[pid 11] trap 004274 read(3, 013646, 12) [000003 010764 000003 000000 000000 177720 177716 004300] [013646 000014]
[pid 11] trap DONE 004274 read(3, 013646, 12) [000014 010764 000003 000000 000000 177720 177716 004300] [013646 000014]
[pid 11] read(3, 013646, 12) = "_swbuf\x00\x00$\x00\xae?"
004300 020027  cmp 000014 010764 000003 000000 000000 177720 177716   NZVC1 0000
# 004300 cmp r0, #14 (nextPC=004304)
[pid 11] TRAP
[pid 11] trap 004274 read(3, 013646, 12) [000003 010764 000003 000000 000000 177720 177716 004300] [013646 000014]
[pid 11] trap DONE 004274 read(3, 013646, 12) [000014 010764 000003 000000 000000 177720 177716 004300] [013646 000014]
[pid 11] read(3, 013646, 12) = "_tmtab\x00\x00$\x00\xc6?"
004300 020027  cmp 000014 010764 000003 000000 000000 177720 177716   NZVC1 0000
# 004300 cmp r0, #14 (nextPC=004304)
[pid 11] TRAP
[pid 11] trap 004274 read(3, 013646, 12) [000003 010764 000003 000000 000000 177720 177716 004300] [013646 000014]
[pid 11] trap DONE 004274 read(3, 013646, 12) [000014 010764 000003 000000 000000 177720 177716 004300] [013646 000014]
[pid 11] read(3, 013646, 12) = "_iowait\x00\"\x00\xfae"
004300 020027  cmp 000014 010764 000003 000000 000000 177720 177716   NZVC1 0000
# 004300 cmp r0, #14 (nextPC=004304)
[pid 11] TRAP
[pid 11] trap 004274 read(3, 013646, 12) [000003 010764 000003 000000 000000 177720 177716 004300] [013646 000014]
[pid 11] trap DONE 004274 read(3, 013646, 12) [000014 010764 000003 000000 000000 177720 177716 004300] [013646 000014]
[pid 11] read(3, 013646, 12) = "_incore\x00\"\x00\xc4d"
004300 020027  cmp 000014 010764 000003 000000 000000 177720 177716   NZVC1 0000
# 004300 cmp r0, #14 (nextPC=004304)
[pid 11] TRAP
[pid 11] trap 004274 read(3, 013646, 12) [000003 010764 000003 000000 000000 177720 177716 004300] [013646 000014]
[pid 11] trap DONE 004274 read(3, 013646, 12) [000014 010764 000003 000000 000000 177720 177716 004300] [013646 000014]
[pid 11] read(3, 013646, 12) = "_geterro\"\x00\xf0j"
004300 020027  cmp 000014 010764 000003 000000 000000 177720 177716   NZVC1 0000
# 004300 cmp r0, #14 (nextPC=004304)
[pid 11] TRAP
[pid 11] trap 004274 read(3, 013646, 12) [000003 010764 000003 000000 000000 177720 177716 004300] [013646 000014]
[pid 11] trap DONE 004274 read(3, 013646, 12) [000014 010764 000003 000000 000000 177720 177716 004300] [013646 000014]
[pid 11] read(3, 013646, 12) = "_notavai\"\x00(f"
004300 020027  cmp 000014 010764 000003 000000 000000 177720 177716   NZVC1 0000
# 004300 cmp r0, #14 (nextPC=004304)
[pid 11] TRAP
[pid 11] trap 004274 read(3, 013646, 12) [000003 010764 000003 000000 000000 177720 177716 004300] [013646 000014]
[pid 11] trap DONE 004274 read(3, 013646, 12) [000014 010764 000003 000000 000000 177720 177716 004300] [013646 000014]
[pid 11] read(3, 013646, 12) = "_iodone\x00\"\x00Xf"
004300 020027  cmp 000014 010764 000003 000000 000000 177720 177716   NZVC1 0000
# 004300 cmp r0, #14 (nextPC=004304)
[pid 11] TRAP
[pid 11] trap 004274 read(3, 013646, 12) [000003 010764 000003 000000 000000 177720 177716 004300] [013646 000014]
[pid 11] trap DONE 004274 read(3, 013646, 12) [000014 010764 000003 000000 000000 177720 177716 004300] [013646 000014]
[pid 11] read(3, 013646, 12) = "_mapfree\"\x00Lh"
004300 020027  cmp 000014 010764 000003 000000 000000 177720 177716   NZVC1 0000
# 004300 cmp r0, #14 (nextPC=004304)
[pid 11] TRAP
[pid 11] trap 004274 read(3, 013646, 12) [000003 010764 000003 000000 000000 177720 177716 004300] [013646 000014]
[pid 11] trap DONE 004274 read(3, 013646, 12) [000014 010764 000003 000000 000000 177720 177716 004300] [013646 000014]
[pid 11] read(3, 013646, 12) = "_devstar\"\x00<g"
004300 020027  cmp 000014 010764 000003 000000 000000 177720 177716   NZVC1 0000
# 004300 cmp r0, #14 (nextPC=004304)
[pid 11] TRAP
[pid 11] trap 004274 read(3, 013646, 12) [000003 010764 000003 000000 000000 177720 177716 004300] [013646 000014]
[pid 11] trap DONE 004274 read(3, 013646, 12) [000014 010764 000003 000000 000000 177720 177716 004300] [013646 000014]
[pid 11] read(3, 013646, 12) = "_rhstart\"\x00\x86g"
004300 020027  cmp 000014 010764 000003 000000 000000 177720 177716   NZVC1 0000
# 004300 cmp r0, #14 (nextPC=004304)
[pid 11] TRAP
[pid 11] trap 004274 read(3, 013646, 12) [000003 010764 000003 000000 000000 177720 177716 004300] [013646 000014]
[pid 11] trap DONE 004274 read(3, 013646, 12) [000014 010764 000003 000000 000000 177720 177716 004300] [013646 000014]
[pid 11] read(3, 013646, 12) = "_maplock$\x00\xd0?"
004300 020027  cmp 000014 010764 000003 000000 000000 177720 177716   NZVC1 0000
# 004300 cmp r0, #14 (nextPC=004304)
[pid 11] TRAP
[pid 11] trap 004274 read(3, 013646, 12) [000003 010764 000003 000000 000000 177720 177716 004300] [013646 000014]
[pid 11] trap DONE 004274 read(3, 013646, 12) [000014 010764 000003 000000 000000 177720 177716 004300] [013646 000014]
[pid 11] read(3, 013646, 12) = "_mapallo\"\x00\xd2g"
004300 020027  cmp 000014 010764 000003 000000 000000 177720 177716   NZVC1 0000
# 004300 cmp r0, #14 (nextPC=004304)
[pid 11] TRAP
[pid 11] trap 004274 read(3, 013646, 12) [000003 010764 000003 000000 000000 177720 177716 004300] [013646 000014]
[pid 11] trap DONE 004274 read(3, 013646, 12) [000014 010764 000003 000000 000000 177720 177716 004300] [013646 000014]
[pid 11] read(3, 013646, 12) = "_physio\x00\"\x00fi"
004300 020027  cmp 000014 010764 000003 000000 000000 177720 177716   NZVC1 0000
# 004300 cmp r0, #14 (nextPC=004304)
[pid 11] TRAP
[pid 11] trap 004274 read(3, 013646, 12) [000003 010764 000003 000000 000000 177720 177716 004300] [013646 000014]
[pid 11] trap DONE 004274 read(3, 013646, 12) [000014 010764 000003 000000 000000 177720 177716 004300] [013646 000014]
[pid 11] read(3, 013646, 12) = "_partab\x00#\x00\x80\x06"
004300 020027  cmp 000014 010764 000003 000000 000000 177720 177716   NZVC1 0000
# 004300 cmp r0, #14 (nextPC=004304)
[pid 11] TRAP
[pid 11] trap 004274 read(3, 013646, 12) [000003 010764 000003 000000 000000 177720 177716 004300] [013646 000014]
[pid 11] trap DONE 004274 read(3, 013646, 12) [000014 010764 000003 000000 000000 177720 177716 004300] [013646 000014]
[pid 11] read(3, 013646, 12) = "_maptab\x00#\x00\xe6\x05"
004300 020027  cmp 000014 010764 000003 000000 000000 177720 177716   NZVC1 0000
# 004300 cmp r0, #14 (nextPC=004304)
[pid 11] TRAP
[pid 11] trap 004274 read(3, 013646, 12) [000003 010764 000003 000000 000000 177720 177716 004300] [013646 000014]
[pid 11] trap DONE 004274 read(3, 013646, 12) [000014 010764 000003 000000 000000 177720 177716 004300] [013646 000014]
[pid 11] read(3, 013646, 12) = "_cfree\x00\x00$\x00\xd2?"
004300 020027  cmp 000014 010764 000003 000000 000000 177720 177716   NZVC1 0000
# 004300 cmp r0, #14 (nextPC=004304)
[pid 11] TRAP
[pid 11] trap 004274 read(3, 013646, 12) [000003 010764 000003 000000 000000 177720 177716 004300] [013646 000014]
[pid 11] trap DONE 004274 read(3, 013646, 12) [000014 010764 000003 000000 000000 177720 177716 004300] [013646 000014]
[pid 11] read(3, 013646, 12) = "_sgtty\x00\x00\"\x00\x90k"
004300 020027  cmp 000014 010764 000003 000000 000000 177720 177716   NZVC1 0000
# 004300 cmp r0, #14 (nextPC=004304)
[pid 11] TRAP
[pid 11] trap 004274 read(3, 013646, 12) [000003 010764 000003 000000 000000 177720 177716 004300] [013646 000014]
[pid 11] trap DONE 004274 read(3, 013646, 12) [000014 010764 000003 000000 000000 177720 177716 004300] [013646 000014]
[pid 11] read(3, 013646, 12) = "_wflusht\"\x00\xd4k"
004300 020027  cmp 000014 010764 000003 000000 000000 177720 177716   NZVC1 0000
# 004300 cmp r0, #14 (nextPC=004304)
[pid 11] TRAP
[pid 11] trap 004274 read(3, 013646, 12) [000003 010764 000003 000000 000000 177720 177716 004300] [013646 000014]
[pid 11] trap DONE 004274 read(3, 013646, 12) [000014 010764 000003 000000 000000 177720 177716 004300] [013646 000014]
[pid 11] read(3, 013646, 12) = "_flushtt\"\x00Ll"
004300 020027  cmp 000014 010764 000003 000000 000000 177720 177716   NZVC1 0000
# 004300 cmp r0, #14 (nextPC=004304)
[pid 11] TRAP
[pid 11] trap 004274 read(3, 013646, 12) [000003 010764 000003 000000 000000 177720 177716 004300] [013646 000014]
[pid 11] trap DONE 004274 read(3, 013646, 12) [000014 010764 000003 000000 000000 177720 177716 004300] [013646 000014]
[pid 11] read(3, 013646, 12) = "_canon\x00\x00\"\x00\x9el"
004300 020027  cmp 000014 010764 000003 000000 000000 177720 177716   NZVC1 0000
# 004300 cmp r0, #14 (nextPC=004304)
[pid 11] TRAP
[pid 11] trap 004274 read(3, 013646, 12) [000003 010764 000003 000000 000000 177720 177716 004300] [013646 000014]
[pid 11] trap DONE 004274 read(3, 013646, 12) [000014 010764 000003 000000 000000 177720 177716 004300] [013646 000014]
[pid 11] read(3, 013646, 12) = "_ttyinpu\"\x00rm"
004300 020027  cmp 000014 010764 000003 000000 000000 177720 177716   NZVC1 0000
# 004300 cmp r0, #14 (nextPC=004304)
[pid 11] TRAP
[pid 11] trap 004274 read(3, 013646, 12) [000003 010764 000003 000000 000000 177720 177716 004300] [013646 000014]
[pid 11] trap DONE 004274 read(3, 013646, 12) [000014 010764 000003 000000 000000 177720 177716 004300] [013646 000014]
[pid 11] read(3, 013646, 12) = "_ttyoutp\"\x004n"
004300 020027  cmp 000014 010764 000003 000000 000000 177720 177716   NZVC1 0000
# 004300 cmp r0, #14 (nextPC=004304)
[pid 11] TRAP
[pid 11] trap 004274 read(3, 013646, 12) [000003 010764 000003 000000 000000 177720 177716 004300] [013646 000014]
[pid 11] trap DONE 004274 read(3, 013646, 12) [000014 010764 000003 000000 000000 177720 177716 004300] [013646 000014]
[pid 11] read(3, 013646, 12) = "_ttstart\"\x00\xe8o"
004300 020027  cmp 000014 010764 000003 000000 000000 177720 177716   NZVC1 0000
# 004300 cmp r0, #14 (nextPC=004304)
[pid 11] TRAP
[pid 11] trap 004274 read(3, 013646, 12) [000003 010764 000003 000000 000000 177720 177716 004300] [013646 000014]
[pid 11] trap DONE 004274 read(3, 013646, 12) [000014 010764 000003 000000 000000 177720 177716 004300] [013646 000014]
[pid 11] read(3, 013646, 12) = "_ttrstrt\"\x00\xd0o"
004300 020027  cmp 000014 010764 000003 000000 000000 177720 177716   NZVC1 0000
# 004300 cmp r0, #14 (nextPC=004304)
[pid 11] TRAP
[pid 11] trap 004274 read(3, 013646, 12) [000003 010764 000003 000000 000000 177720 177716 004300] [013646 000014]
[pid 11] trap DONE 004274 read(3, 013646, 12) [000014 010764 000003 000000 000000 177720 177716 004300] [013646 000014]
[pid 11] read(3, 013646, 12) = "_ttread\x00\"\x00Rp"
004300 020027  cmp 000014 010764 000003 000000 000000 177720 177716   NZVC1 0000
# 004300 cmp r0, #14 (nextPC=004304)
[pid 11] TRAP
[pid 11] trap 004274 read(3, 013646, 12) [000003 010764 000003 000000 000000 177720 177716 004300] [013646 000014]
[pid 11] trap DONE 004274 read(3, 013646, 12) [000014 010764 000003 000000 000000 177720 177716 004300] [013646 000014]
[pid 11] read(3, 013646, 12) = "_ttwrite\"\x00\x90p"
004300 020027  cmp 000014 010764 000003 000000 000000 177720 177716   NZVC1 0000
# 004300 cmp r0, #14 (nextPC=004304)
[pid 11] TRAP
[pid 11] trap 004274 read(3, 013646, 12) [000003 010764 000003 000000 000000 177720 177716 004300] [013646 000014]
[pid 11] trap DONE 004274 read(3, 013646, 12) [000014 010764 000003 000000 000000 177720 177716 004300] [013646 000014]
[pid 11] read(3, 013646, 12) = "_ttystty\"\x00\xecp"
004300 020027  cmp 000014 010764 000003 000000 000000 177720 177716   NZVC1 0000
# 004300 cmp r0, #14 (nextPC=004304)
[pid 11] TRAP
[pid 11] trap 004274 read(3, 013646, 12) [000003 010764 000003 000000 000000 177720 177716 004300] [013646 000014]
[pid 11] trap DONE 004274 read(3, 013646, 12) [000014 010764 000003 000000 000000 177720 177716 004300] [013646 000014]
[pid 11] read(3, 013646, 12) = "_kl11\x00\x00\x00$\x00\xf2B"
004300 020027  cmp 000014 010764 000003 000000 000000 177720 177716   NZVC1 0000
# 004300 cmp r0, #14 (nextPC=004304)
[pid 11] TRAP
[pid 11] trap 004274 read(3, 013646, 12) [000003 010764 000003 000000 000000 177720 177716 004300] [013646 000014]
[pid 11] trap DONE 004274 read(3, 013646, 12) [000014 010764 000003 000000 000000 177720 177716 004300] [013646 000014]
[pid 11] read(3, 013646, 12) = "_hp_size#\x00\x00\a"
004300 020027  cmp 000014 010764 000003 000000 000000 177720 177716   NZVC1 0000
# 004300 cmp r0, #14 (nextPC=004304)
[pid 11] TRAP
[pid 11] trap 004274 read(3, 013646, 12) [000003 010764 000003 000000 000000 177720 177716 004300] [013646 000014]
[pid 11] trap DONE 004274 read(3, 013646, 12) [000014 010764 000003 000000 000000 177720 177716 004300] [013646 000014]
[pid 11] read(3, 013646, 12) = "_hpbuf\x00\x00$\x00\x12C"
004300 020027  cmp 000014 010764 000003 000000 000000 177720 177716   NZVC1 0000
# 004300 cmp r0, #14 (nextPC=004304)
[pid 11] TRAP
[pid 11] trap 004274 read(3, 013646, 12) [000003 010764 000003 000000 000000 177720 177716 004300] [013646 000014]
[pid 11] trap DONE 004274 read(3, 013646, 12) [000014 010764 000003 000000 000000 177720 177716 004300] [013646 000014]
[pid 11] read(3, 013646, 12) = "_hp_open$\x00*C"
004300 020027  cmp 000014 010764 000003 000000 000000 177720 177716   NZVC1 0000
# 004300 cmp r0, #14 (nextPC=004304)
[pid 11] TRAP
[pid 11] trap 004274 read(3, 013646, 12) [000003 010764 000003 000000 000000 177720 177716 004300] [013646 000014]
[pid 11] trap DONE 004274 read(3, 013646, 12) [000014 010764 000003 000000 000000 177720 177716 004300] [013646 000014]
[pid 11] read(3, 013646, 12) = "_hpstart\"\x00\xd6t"
004300 020027  cmp 000014 010764 000003 000000 000000 177720 177716   NZVC1 0000
# 004300 cmp r0, #14 (nextPC=004304)
[pid 11] TRAP
[pid 11] trap 004274 read(3, 013646, 12) [000003 010764 000003 000000 000000 177720 177716 004300] [013646 000014]
[pid 11] trap DONE 004274 read(3, 013646, 12) [000014 010764 000003 000000 000000 177720 177716 004300] [013646 000014]
[pid 11] read(3, 013646, 12) = "_hpphys\x00\"\x00\xe2u"
004300 020027  cmp 000014 010764 000003 000000 000000 177720 177716   NZVC1 0000
# 004300 cmp r0, #14 (nextPC=004304)
[pid 11] TRAP
[pid 11] trap 004274 read(3, 013646, 12) [000003 010764 000003 000000 000000 177720 177716 004300] [013646 000014]
[pid 11] trap DONE 004274 read(3, 013646, 12) [000014 010764 000003 000000 000000 177720 177716 004300] [013646 000014]
[pid 11] read(3, 013646, 12) = "_rhtbuf\x00$\x00,C"
004300 020027  cmp 000014 010764 000003 000000 000000 177720 177716   NZVC1 0000
# 004300 cmp r0, #14 (nextPC=004304)
[pid 11] TRAP
[pid 11] trap 004274 read(3, 013646, 12) [000003 010764 000003 000000 000000 177720 177716 004300] [013646 000014]
[pid 11] trap DONE 004274 read(3, 013646, 12) [000014 010764 000003 000000 000000 177720 177716 004300] [013646 000014]
[pid 11] read(3, 013646, 12) = "_h_openf$\x00DC"
004300 020027  cmp 000014 010764 000003 000000 000000 177720 177716   NZVC1 0000
# 004300 cmp r0, #14 (nextPC=004304)
[pid 11] TRAP
[pid 11] trap 004274 read(3, 013646, 12) [000003 010764 000003 000000 000000 177720 177716 004300] [013646 000014]
[pid 11] trap DONE 004274 read(3, 013646, 12) [000014 010764 000003 000000 000000 177720 177716 004300] [013646 000014]
[pid 11] read(3, 013646, 12) = "_h_blkno$\x00LC"
004300 020027  cmp 000014 010764 000003 000000 000000 177720 177716   NZVC1 0000
# 004300 cmp r0, #14 (nextPC=004304)
[pid 11] TRAP
[pid 11] trap 004274 read(3, 013646, 12) [000003 010764 000003 000000 000000 177720 177716 004300] [013646 000014]
[pid 11] trap DONE 004274 read(3, 013646, 12) [000014 010764 000003 000000 000000 177720 177716 004300] [013646 000014]
[pid 11] read(3, 013646, 12) = "_h_nxrec$\x00\\C"
004300 020027  cmp 000014 010764 000003 000000 000000 177720 177716   NZVC1 0000
# 004300 cmp r0, #14 (nextPC=004304)
[pid 11] TRAP
[pid 11] trap 004274 read(3, 013646, 12) [000003 010764 000003 000000 000000 177720 177716 004300] [013646 000014]
[pid 11] trap DONE 004274 read(3, 013646, 12) [000014 010764 000003 000000 000000 177720 177716 004300] [013646 000014]
[pid 11] read(3, 013646, 12) = "_hcomman\"\x00\xb8v"
004300 020027  cmp 000014 010764 000003 000000 000000 177720 177716   NZVC1 0000
# 004300 cmp r0, #14 (nextPC=004304)
[pid 11] TRAP
[pid 11] trap 004274 read(3, 013646, 12) [000003 010764 000003 000000 000000 177720 177716 004300] [013646 000014]
[pid 11] trap DONE 004274 read(3, 013646, 12) [000014 010764 000003 000000 000000 177720 177716 004300] [013646 000014]
[pid 11] read(3, 013646, 12) = "_htstart\"\x00\xcew"
004300 020027  cmp 000014 010764 000003 000000 000000 177720 177716   NZVC1 0000
# 004300 cmp r0, #14 (nextPC=004304)
[pid 11] TRAP
[pid 11] trap 004274 read(3, 013646, 12) [000003 010764 000003 000000 000000 177720 177716 004300] [013646 000014]
[pid 11] trap DONE 004274 read(3, 013646, 12) [000014 010764 000003 000000 000000 177720 177716 004300] [013646 000014]
[pid 11] read(3, 013646, 12) = "_htphys\x00\"\x00\xa6y"
004300 020027  cmp 000014 010764 000003 000000 000000 177720 177716   NZVC1 0000
# 004300 cmp r0, #14 (nextPC=004304)
[pid 11] TRAP
[pid 11] trap 004274 read(3, 013646, 12) [000003 010764 000003 000000 000000 177720 177716 004300] [013646 000014]
[pid 11] trap DONE 004274 read(3, 013646, 12) [000014 010764 000003 000000 000000 177720 177716 004300] [013646 000014]
[pid 11] read(3, 013646, 12) = "_rhsbuf\x00$\x00lC"
004300 020027  cmp 000014 010764 000003 000000 000000 177720 177716   NZVC1 0000
# 004300 cmp r0, #14 (nextPC=004304)
[pid 11] TRAP
[pid 11] trap 004274 read(3, 013646, 12) [000003 010764 000003 000000 000000 177720 177716 004300] [013646 000014]
[pid 11] trap DONE 004274 read(3, 013646, 12) [000014 010764 000003 000000 000000 177720 177716 004300] [013646 000014]
[pid 11] read(3, 013646, 12) = "_hsstart\"\x000z"
004300 020027  cmp 000014 010764 000003 000000 000000 177720 177716   NZVC1 0000
# 004300 cmp r0, #14 (nextPC=004304)
[pid 11] TRAP
[pid 11] trap 004400 close(3) [000003 010764 000003 000000 000000 177720 177716 004400] []
[pid 11] trap DONE 004400 close(3) [000003 010764 000003 000000 000000 177720 177716 004400] []
[pid 11] close(3)
004400 012602  mov 000003 010764 000003 000000 000000 177720 177716   NZVC1 0000
# 004400 mov (sp)+, r2 (nextPC=004402)
[pid 11] TRAP
[pid 11] trap 006134 open("/dev/mem", 0) [000003 010764 000000 000000 000000 177720 177720 004432] [005504 000000]
[pid 11] trap DONE 006134 open("/dev/mem", 0) [000003 010764 000000 000000 000000 177720 177720 004432] [005504 000000]
[pid 11] open("/dev/mem", 0) = 3
004432 103002  bcc 000003 010764 000000 000000 000000 177720 177720   NZVC1 0100
# 004432 bcc 4440 (nextPC=004434)
[pid 11] TRAP
[pid 11] trap 006164 seek(3, 780, 0) [000003 010764 000000 000000 000000 177716 177716 005042] [001414 000000]
[pid 11] trap DONE 006164 seek(3, 780, 0) [000003 010764 000000 000000 000000 177716 177716 005042] [001414 000000]
[pid 11] seek(3, 780, 0) = 3
005042 103002  bcc 000003 010764 000000 000000 000000 177716 177716   NZVC1 0100
# 005042 bcc 5050 (nextPC=005044)
[pid 11] TRAP
[pid 11] trap 006156 read(3, 011012, 2) [000003 010764 000000 000000 000000 177716 177716 005000] [011012 000002]
[pid 11] trap DONE 006156 read(3, 011012, 2) [000002 010764 000000 000000 000000 177716 177716 005000] [011012 000002]
[pid 11] read(3, 011012, 2) = "\x01\x03"
005000 103002  bcc 000002 010764 000000 000000 000000 177716 177716   NZVC1 0000
# 005000 bcc 5006 (nextPC=005002)
[pid 11] TRAP
[pid 11] trap 006164 seek(3, 2694, 0) [000003 010764 000000 000000 000000 177716 177716 005042] [005206 000000]
[pid 11] trap DONE 006164 seek(3, 2694, 0) [000003 010764 000000 000000 000000 177716 177716 005042] [005206 000000]
[pid 11] seek(3, 2694, 0) = 3
005042 103002  bcc 000003 010764 000000 000000 000000 177716 177716   NZVC1 0100
# 005042 bcc 5050 (nextPC=005044)
[pid 11] TRAP
[pid 11] trap 006156 read(3, 006204, 1100) [000003 010764 000000 000000 000000 177716 177716 005000] [006204 002114]
[pid 11] trap DONE 006156 read(3, 006204, 1100) [000260 010764 000000 000000 000000 177716 177716 005000] [006204 002114]
[pid 11] read(3, 006204, 1100) = "\x02\x01\x00\x00\x00\x00\x00\x00\x00\x05\x01\x00\x00\x00@\x00\b\x00w\x00\x00\x00\x02\x01\x00\x00\x00\x00\x00\x00\x00\x05\x05\x00\x01\x00A\x00\b\x00t\x00\x00\x00\x02\x01\x00\x00\x00\x00\x00\x00\x00\x05\x06\x00\x01\x00B\x00\b\x00i\x00\x00\x00\x02\x01\x00\x00\x00\x00\x00\x00\x00\x05\a\x00\x01\x00C\x00\b\x00i\x00\x00\x00\x02\x01\x00\x00\x00\x00\x00\x00\x00\x05\b\x00\x01\x00D\x00\b\x00i\x00\x00\x00\x02\x01\x00\x00\x00\x00\x00\x00\x00\x05\t\x00\x01\x00E\x00\b\x00i\x00\x00\x00\x02\x01\x00\x00\x06\x00\x00\x00\x00\x05\n\x00\x01\x00F\x00\b\x00w\x00\x00\x00\x03\x01\x00\x00\x06\x00\x00\x00\x00\x05\v\x00\n\x00G\x00\b\x00\x00\x00\x00\x00\x00\x00\x00\x00\x00\x00\x00\x00\x00\x00\x00\x00\x00\x00\x00\x00\x00\x00\x00\x00\x00\x00\x00\x00\x00\x00\x00\x00\x00\x00\x00\x00\x00\x00\x00\x00\x00\x00\x00\x00\x00\x00\x00\x00\x00\x00\x00\x00\x00\x00\x00\x00\x00\x00\x00\x00\x00\x00\x00\x00\x00\x00\x00\x00\x00\x00\x00\x00\x00\x00\x00\x00\x00\x00\x00\x00\x00\x00\x00\x00\x00\x00\x00\x00\x00\x00\x00\x00\x00\x00\x00\x00\x00\x00\x00\x00\x00\x00\x00\x00\x00\x00\x00\x00\x00\x00\x00\x00\x00\x00\x00\x00\x00\x00\x00\x00\x00\x00\x00\x00\x00\x00\x00\x00\x00\x00\x00\x00\x00\x00\x00\x00\x00\x00\x00\x00\x00\x00\x00\x00\x00\x00\x00\x00\x00\x00\x00\x00\x00\x00\x00\x00\x00\x00\x00\x00\x00\x00\x00\x00\x00\x00\x00\x00\x00\x00\x00\x00\x00\x00\x00\x00\x00\x00\x00\x00\x00\x00\x00\x00\x00\x00\x00\x00\x00\x00\x00\x00\x00\x00\x00\x00\x00\x00\x00\x00\x00\x00\x00\x00\x00\x00\x00\x00\x00\x00\x00\x00\x00\x00\x00\x00\x00\x00\x00\x00\x00\x00\x00\x00\x00\x00\x00\x00\x00\x00\x00\x00\x00\x00\x00\x00\x00\x00\x00\x00\x00\x00\x00\x00\x00\x00\x00\x00\x00\x00\x00\x00\x00\x00\x00\x00\x00\x00\x00\x00\x00\x00\x00\x00\x00\x00\x00\x00\x00\x00\x00\x00\x00\x00\x00\x00\x00\x00\x00\x00\x00\x00\x00\x00\x00\x00\x00\x00\x00\x00\x00\x00\x00\x00\x00\x00\x00\x00\x00\x00\x00\x00\x00\x00\x00\x00\x00\x00\x00\x00\x00\x00\x00\x00\x00\x00\x00\x00\x00\x00\x00\x00\x00\x00\x00\x00\x00\x00\x00\x00\x00\x00\x00\x00\x00\x00\x00\x00\x00\x00\x00\x00\x00\x00\x00\x00\x00\x00\x00\x00\x00\x00\x00\x00\x00\x00\x00\x00\x00\x00\x00\x00\x00\x00\x00\x00\x00\x00\x00\x00\x00\x00\x00\x00\x00\x00\x00\x00\x00\x00\x00\x00\x00\x00\x00\x00\x00\x00\x00\x00\x00\x00\x00\x00\x00\x00\x00\x00\x00\x00\x00\x00\x00\x00\x00\x00\x00\x00\x00\x00\x00\x00\x00\x00\x00\x00\x00\x00\x00\x00\x00\x00\x00\x00\x00\x00\x00\x00\x00\x00\x00\x00\x00\x00\x00\x00\x00\x00\x00\x00\x00\x00\x00\x00\x00\x00\x00\x00\x00\x00\x00\x00\x00\x00\x00\x00\x00\x00\x00\x00\x00\x00\x00\x00\x00\x00\x00\x00\x00\x00\x00\x00\x00\x00\x00\x00\x00\x00\x00\x00\x00\x00\x00\x00\x00\x00\x00\x00\x00\x00\x00\x00\x00\x00\x00\x00\x00\x00\x00\x00\x00\x00\x00\x00\x00\x00\x00\x00\x00\x00\x00\x00\x00\x00\x00\x00\x00\x00\x00\x00\x00\x00\x00\x00\x00\x00\x00\x00\x00\x00\x00\x00\x00\x00\x00\x00\x00\x00\x00\x00\x00\x00\x00\x00\x00\x00\x00\x00\x00\x00\x00\x00\x00\x00\x00\x00\x00\x00\x00\x00\x00\x00\x00\x00\x00\x00\x00\x00\x00\x00\x00\x00\x00\x00\x00\x00\x00\x00\x00\x00\x00\x00\x00\x00\x00\x00\x00\x00\x00\x00\x00\x00\x00\x00\x00\x00\x00\x00\x00\x00\x00\x00\x00\x00\x00\x00\x00\x00\x00\x00\x00\x00\x00\x00\x00\x00\x00\x00\x00\x00\x00\x00\x00\x00\x00\x00\x00\x00\x00\x00\x00\x00\x00\x00\x00\x00\x00\x00\x00\x00\x00\x00\x00\x00\x00\x00\x00\x00\x00\x00\x00\x00\x00\x00\x00\x00\x00\x00\x00\x00\x00\x00\x00\x00\x00\x00\x00\x00\x00\x00\x00\x00\x00\x00\x00\x00\x00\x00\x00\x00\x00\x00\x00\x00\x00\x00\x00\x00\x00\x00\x00\x00\x00\x00\x00\x00\x00\x00\x00\x00\x00\x00\x00\x00\x00\x00\x00\x00\x00\x00\x00\x00\x00\x00\x00\x00\x00\x00\x00\x00\x00\x00\x00\x00\x00\x00\x00\x00\x00\x00\x00\x00\x00\x00\x00\x00\x00\x00\x00\x00\x00\x00\x00\x00\x00\x00\x00\x00\x00\x00\x00\x00\x00\x00\x00\x00\x00\x00\x00\x00\x00\x00\x00\x00\x00\x00\x00\x00\x00\x00\x00\x00\x00\x00\x00\x00\x00\x00\x00\x00\x00\x00\x00\x00\x00\x00\x00\x00\x00\x00\x00\x00\x00\x00\x00\x00\x00\x00\x00\x00\x00\x00\x00\x00\x00\x00\x00\x00\x00\x00\x00\x00\x00\x00\x00\x00\x00\x00\x00\x00\x00\x00\x00\x00\x00\x00\x00\x00\x00\x00\x00\x00\x00\x00\x00\x00\x00\x00\x00\x00\x00\x00\x00\x00\x00\x00\x00\x00\x00\x00\x00\x00\x00\x00\x00\x00\x00\x00\x00\x00\x00\x00\x00\x00\x00\x00\x00\x00\x00\x00\x00\x00\x00\x00\x00\x00\x00\x00\x00\x00\x00\x00\x00\x00\x00\x00\x00\x00\x00\x00\x00\x00\x00\x00\x00\x00\x00\x00\x00\x00\x00\x00\x00\x00\x00\x00\x00\x00\x00\x00\x00\x00\x00\x00\x00\x00\x00\x00\x00\x00\x00\x00\x00\x00\x00\x00\x00\x00"
005000 103002  bcc 000260 010764 000000 000000 000000 177716 177716   NZVC1 0000
# 005000 bcc 5006 (nextPC=005002)
[pid 11] TRAP
[pid 11] trap 006134 open("/dev", 0) [001626 010764 000000 000000 000000 176634 176634 004432] [005744 000000]
[pid 11] trap DONE 006134 open("/dev", 0) [000004 010764 000000 000000 000000 176634 176634 004432] [005744 000000]
[pid 11] open("/dev", 0) = 4
004432 103002  bcc 000004 010764 000000 000000 000000 176634 176634   NZVC1 0100
# 004432 bcc 4440 (nextPC=004434)
[pid 11] TRAP
[pid 11] trap 006156 read(4, 176712, 512) [000004 010764 000000 000000 000000 176630 176630 005000] [176712 001000]
[pid 11] trap DONE 006156 read(4, 176712, 512) [000260 010764 000000 000000 000000 176630 176630 005000] [176712 001000]
[pid 11] read(4, 176712, 512) = "C\x00.\x00\x00\x00\x00\x00\x00\x00\x00\x00\x00\x00\x00\x00\x01\x00..\x00\x00\x00\x00\x00\x00\x00\x00\x00\x00\x00\x00D\x00kmem\x00\x00\x00\x00\x00\x00\x00\x00\x00\x00E\x00mem\x00\x00\x00\x00\x00\x00\x00\x00\x00\x00\x00F\x00null\x00\x00\x00\x00\x00\x00\x00\x00\x00\x00G\x00tty8\x00\x00\x00\x00\x00\x00\x00\x00\x00\x00\x1d\x05tty0\x00\x00\x00\x00\x00\x00\x00\x00\x00\x00\x1e\x05tty1\x00\x00\x00\x00\x00\x00\x00\x00\x00\x00\x1f\x05tty2\x00\x00\x00\x00\x00\x00\x00\x00\x00\x00 \x05tty3\x00\x00\x00\x00\x00\x00\x00\x00\x00\x00!\x05swap\x00\x00\x00\x00\x00\x00\x00\x00\x00\x00\x00\x00\x00\x00\x00\x00\x00\x00\x00\x00\x00\x00\x00\x00\x00\x00\x00\x00\x00\x00\x00\x00\x00\x00\x00\x00\x00\x00\x00\x00\x00\x00\x00\x00\x00\x00\x00\x00\x00\x00\x00\x00\x00\x00\x00\x00\x00\x00\x00\x00\x00\x00\x00\x00\x00\x00\x00\x00\x00\x00\x00\x00\x00\x00\x00\x00\x00\x00\x00\x00\x00\x00\x00\x00\x00\x00\x00\x00\x00\x00\x00\x00\x00\x00\x00\x00\x00\x00\x00\x00\x00\x00\x00\x00\x00\x00\x00\x00\x00\x00\x00\x00\x00\x00\x00\x00\x00\x00\x00\x00\x00\x00\x00\x00\x00\x00\x00\x00\x00\x00\x00\x00\x00\x00\x00\x00\x00\x00\x00\x00\x00\x00\x00\x00\x00\x00\x00\x00\x00\x00\x00\x00\x00\x00\x00\x00\x00\x00\x00\x00\x00\x00\x00\x00\x00\x00\x00\x00\x00\x00\x00\x00\x00\x00\x00\x00\x00\x00\x00\x00\x00\x00\x00\x00\x00\x00\x00\x00\x00\x00\x00\x00\x00\x00\x00\x00\x00\x00\x00\x00\x00\x00\x00\x00\x00\x00\x00\x00\x00\x00\x00\x00\x00\x00\x00\x00\x00\x00\x00\x00\x00\x00\x00\x00\x00\x00\x00\x00\x00\x00\x00\x00\x00\x00\x00\x00\x00\x00\x00\x00\x00\x00\x00\x00\x00\x00\x00\x00\x00\x00\x00\x00\x00\x00\x00\x00\x00\x00\x00\x00\x00\x00\x00\x00\x00\x00\x00\x00\x00\x00\x00\x00\x00\x00\x00\x00\x00\x00\x00\x00\x00\x00\x00\x00\x00\x00\x00\x00\x00\x00\x00\x00\x00\x00\x00\x00\x00\x00\x00\x00\x00\x00\x00\x00\x00\x00\x00\x00\x00\x00\x00\x00\x00\x00\x00\x00\x00\x00\x00\x00\x00\x00\x00\x00\x00\x00\x00\x00\x00\x00\x00\x00\x00\x00\x00\x00\x00\x00\x00\x00\x00\x00\x00\x00\x00\x00"
005000 103002  bcc 000260 010764 000000 000000 000000 176630 176630   NZVC1 0000
# 005000 bcc 5006 (nextPC=005002)
001776 060500  add 000275 010764 000000 000275 000000 177722 176640   NZVC1 0000
# 001776 add r5, r0 (nextPC=002000)
002004 005203  inc 000235 010764 000000 000313 000000 177722 176640   NZVC1 0100
# 002004 inc r3 (nextPC=002006)
001766 022703  cmp 000253 010764 000000 000332 000000 177722 176640   NZVC1 0000
# 001766 cmp #1000, r3 (nextPC=001772)
001774 010300  mov 000271 010764 000000 000350 000000 177722 176640   NZVC1 0000
# 001774 mov r3, r0 (nextPC=001776)
002000 105060 clrb 000310 010764 000000 000366 000000 177722 176640   NZVC1 0001
# 002000 clrb -1010(r0) (nextPC=002004)
002006 000767   br 000326 010764 000000 000405 000000 177722 176640   NZVC1 0000
# 002006 br 1766 (nextPC=002010)
001772 003406  ble 000344 010764 000000 000423 000000 177722 176640   NZVC1 0000
# 001772 ble 2010 (nextPC=001774)
001776 060500  add 000441 010764 000000 000441 000000 177722 176640   NZVC1 0000
# 001776 add r5, r0 (nextPC=002000)
002004 005203  inc 000401 010764 000000 000457 000000 177722 176640   NZVC1 0100
# 002004 inc r3 (nextPC=002006)
001766 022703  cmp 000417 010764 000000 000476 000000 177722 176640   NZVC1 0000
# 001766 cmp #1000, r3 (nextPC=001772)
001774 010300  mov 000435 010764 000000 000514 000000 177722 176640   NZVC1 0000
# 001774 mov r3, r0 (nextPC=001776)
002000 105060 clrb 000454 010764 000000 000532 000000 177722 176640   NZVC1 0001
# 002000 clrb -1010(r0) (nextPC=002004)
002006 000767   br 000472 010764 000000 000551 000000 177722 176640   NZVC1 0000
# 002006 br 1766 (nextPC=002010)
001772 003406  ble 000510 010764 000000 000567 000000 177722 176640   NZVC1 0000
# 001772 ble 2010 (nextPC=001774)
001776 060500  add 000605 010764 000000 000605 000000 177722 176640   NZVC1 0000
# 001776 add r5, r0 (nextPC=002000)
002004 005203  inc 000545 010764 000000 000623 000000 177722 176640   NZVC1 0100
# 002004 inc r3 (nextPC=002006)
001766 022703  cmp 000563 010764 000000 000642 000000 177722 176640   NZVC1 0000
# 001766 cmp #1000, r3 (nextPC=001772)
001774 010300  mov 000601 010764 000000 000660 000000 177722 176640   NZVC1 0000
# 001774 mov r3, r0 (nextPC=001776)
002000 105060 clrb 000620 010764 000000 000676 000000 177722 176640   NZVC1 0001
# 002000 clrb -1010(r0) (nextPC=002004)
002006 000767   br 000636 010764 000000 000715 000000 177722 176640   NZVC1 0000
# 002006 br 1766 (nextPC=002010)
001772 003406  ble 000654 010764 000000 000733 000000 177722 176640   NZVC1 0000
# 001772 ble 2010 (nextPC=001774)
001776 060500  add 000751 010764 000000 000751 000000 177722 176640   NZVC1 0000
# 001776 add r5, r0 (nextPC=002000)
002004 005203  inc 000711 010764 000000 000767 000000 177722 176640   NZVC1 0100
# 002004 inc r3 (nextPC=002006)
[pid 11] TRAP
[pid 11] trap 006172 stat(".", 176642) [177712 010764 000000 001000 176712 176632 176632 005102] [176714 176642]
[pid 11] trap DONE 006172 stat(".", 176642) [177712 010764 000000 001000 176712 176632 176632 005102] [176714 176642]
[pid 11] stat(".", 176642)
005102 103002  bcc 177712 010764 000000 001000 176712 176632 176632   NZVC1 1000
# 005102 bcc 5110 (nextPC=005104)
[pid 11] TRAP
[pid 11] trap 006172 stat("..", 176642) [177712 010764 000000 001000 176732 176632 176632 005102] [176734 176642]
[pid 11] trap DONE 006172 stat("..", 176642) [177712 010764 000000 001000 176732 176632 176632 005102] [176734 176642]
[pid 11] stat("..", 176642)
005102 103002  bcc 177712 010764 000000 001000 176732 176632 176632   NZVC1 1000
# 005102 bcc 5110 (nextPC=005104)
[pid 11] TRAP
[pid 11] trap 006172 stat("kmem", 176642) [177712 010764 000000 001000 176752 176632 176632 005102] [176754 176642]
[pid 11] trap DONE 006172 stat("kmem", 176642) [177712 010764 000000 001000 176752 176632 176632 005102] [176754 176642]
[pid 11] stat("kmem", 176642)
005102 103002  bcc 177712 010764 000000 001000 176752 176632 176632   NZVC1 1000
# 005102 bcc 5110 (nextPC=005104)
[pid 11] TRAP
[pid 11] trap 006172 stat("mem", 176642) [177712 010764 000000 001000 176772 176632 176632 005102] [176774 176642]
[pid 11] trap DONE 006172 stat("mem", 176642) [177712 010764 000000 001000 176772 176632 176632 005102] [176774 176642]
[pid 11] stat("mem", 176642)
005102 103002  bcc 177712 010764 000000 001000 176772 176632 176632   NZVC1 1000
# 005102 bcc 5110 (nextPC=005104)
[pid 11] TRAP
[pid 11] trap 006172 stat("null", 176642) [177712 010764 000000 001000 177012 176632 176632 005102] [177014 176642]
[pid 11] trap DONE 006172 stat("null", 176642) [177712 010764 000000 001000 177012 176632 176632 005102] [177014 176642]
[pid 11] stat("null", 176642)
005102 103002  bcc 177712 010764 000000 001000 177012 176632 176632   NZVC1 1000
# 005102 bcc 5110 (nextPC=005104)
[pid 11] TRAP
[pid 11] trap 006172 stat("tty8", 176642) [177712 010764 000000 001000 177032 176632 176632 005102] [177034 176642]
[pid 11] trap DONE 006172 stat("tty8", 176642) [177712 010764 000000 001000 177032 176632 176632 005102] [177034 176642]
[pid 11] stat("tty8", 176642)
005102 103002  bcc 177712 010764 000000 001000 177032 176632 176632   NZVC1 1000
# 005102 bcc 5110 (nextPC=005104)
[pid 11] TRAP
[pid 11] trap 006172 stat("tty0", 176642) [177712 010764 000001 001000 177052 176632 176632 005102] [177054 176642]
[pid 11] trap DONE 006172 stat("tty0", 176642) [177712 010764 000001 001000 177052 176632 176632 005102] [177054 176642]
[pid 11] stat("tty0", 176642)
005102 103002  bcc 177712 010764 000001 001000 177052 176632 176632   NZVC1 1000
# 005102 bcc 5110 (nextPC=005104)
[pid 11] TRAP
[pid 11] trap 006172 stat("tty1", 176642) [177712 010764 000002 001000 177072 176632 176632 005102] [177074 176642]
[pid 11] trap DONE 006172 stat("tty1", 176642) [177712 010764 000002 001000 177072 176632 176632 005102] [177074 176642]
[pid 11] stat("tty1", 176642)
005102 103002  bcc 177712 010764 000002 001000 177072 176632 176632   NZVC1 1000
# 005102 bcc 5110 (nextPC=005104)
[pid 11] TRAP
[pid 11] trap 006172 stat("tty2", 176642) [177712 010764 000003 001000 177112 176632 176632 005102] [177114 176642]
[pid 11] trap DONE 006172 stat("tty2", 176642) [177712 010764 000003 001000 177112 176632 176632 005102] [177114 176642]
[pid 11] stat("tty2", 176642)
005102 103002  bcc 177712 010764 000003 001000 177112 176632 176632   NZVC1 1000
# 005102 bcc 5110 (nextPC=005104)
[pid 11] TRAP
[pid 11] trap 006172 stat("tty3", 176642) [177712 010764 000004 001000 177132 176632 176632 005102] [177134 176642]
[pid 11] trap DONE 006172 stat("tty3", 176642) [177712 010764 000004 001000 177132 176632 176632 005102] [177134 176642]
[pid 11] stat("tty3", 176642)
005102 103002  bcc 177712 010764 000004 001000 177132 176632 176632   NZVC1 1000
# 005102 bcc 5110 (nextPC=005104)
[pid 11] TRAP
[pid 11] trap 006172 stat("swap", 176642) [177712 010764 000005 001000 177152 176632 176632 005102] [177154 176642]
[pid 11] trap DONE 006172 stat("swap", 176642) [177712 010764 000005 001000 177152 176632 176632 005102] [177154 176642]
[pid 11] stat("swap", 176642)
005102 103002  bcc 177712 010764 000005 001000 177152 176632 176632   NZVC1 1000
# 005102 bcc 5110 (nextPC=005104)
[pid 11] TRAP
[pid 11] trap 006134 open("swap", 0) [060000 010764 000005 001000 177152 176632 176632 004432] [177154 000000]
[pid 11] trap DONE 006134 open("swap", 0) [000005 010764 000005 001000 177152 176632 176632 004432] [177154 000000]
[pid 11] open("swap", 0) = 5
004432 103002  bcc 000005 010764 000005 001000 177152 176632 176632   NZVC1 0100
# 004432 bcc 4440 (nextPC=004434)
002032 001511  beq 177712 010764 000005 001000 177452 177722 176640   NZVC1 0100
# 002032 beq 2256 (nextPC=002034)
[pid 11] TRAP
[pid 11] trap 006156 read(4, 176712, 512) [000004 010764 000005 001000 177712 176630 176630 005000] [176712 001000]
[pid 11] trap DONE 006156 read(4, 176712, 512) [000000 010764 000005 001000 177712 176630 176630 005000] [176712 001000]
[pid 11] read(4, 176712, 512) = "C\x00.\x00\x00\x00\x00\x00\x00\x00\x00\x00\x00\x00\x00\x00\x01\x00..\x00\x00\x00\x00\x00\x00\x00\x00\x00\x00\x00\x00D\x00kmem\x00\x00\x00\x00\x00\x00\x00\x00\x00\x00E\x00mem\x00\x00\x00\x00\x00\x00\x00\x00\x00\x00\x00F\x00null\x00\x00\x00\x00\x00\x00\x00\x00\x00\x00G\x00tty8\x00\x00\x00\x00\x00\x00\x00\x00\x00\x00\x1d\x05tty0\x00\x00\x00\x00\x00\x00\x00\x00\x00\x00\x1e\x05tty1\x00\x00\x00\x00\x00\x00\x00\x00\x00\x00\x1f\x05tty2\x00\x00\x00\x00\x00\x00\x00\x00\x00\x00 \x05tty3\x00\x00\x00\x00\x00\x00\x00\x00\x00\x00!\x05swap\x00\x00\x00\x00\x00\x00\x00\x00\x00\x00\x00\x00\x00\x00\x00\x00\x00\x00\x00\x00\x00\x00\x00\x00\x00\x00\x00\x00\x00\x00\x00\x00\x00\x00\x00\x00\x00\x00\x00\x00\x00\x00\x00\x00\x00\x00\x00\x00\x00\x00\x00\x00\x00\x00\x00\x00\x00\x00\x00\x00\x00\x00\x00\x00\x00\x00\x00\x00\x00\x00\x00\x00\x00\x00\x00\x00\x00\x00\x00\x00\x00\x00\x00\x00\x00\x00\x00\x00\x00\x00\x00\x00\x00\x00\x00\x00\x00\x00\x00\x00\x00\x00\x00\x00\x00\x00\x00\x00\x00\x00\x00\x00\x00\x00\x00\x00\x00\x00\x00\x00\x00\x00\x00\x00\x00\x00\x00\x00\x00\x00\x00\x00\x00\x00\x00\x00\x00\x00\x00\x00\x00\x00\x00\x00\x00\x00\x00\x00\x00\x00\x00\x00\x00\x00\x00\x00\x00\x00\x00\x00\x00\x00\x00\x00\x00\x00\x00\x00\x00\x00\x00\x00\x00\x00\x00\x00\x00\x00\x00\x00\x00\x00\x00\x00\x00\x00\x00\x00\x00\x00\x00\x00\x00\x00\x00\x00\x00\x00\x00\x00\x00\x00\x00\x00\x00\x00\x00\x00\x00\x00\x00\x00\x00\x00\x00\x00\x00\x00\x00\x00\x00\x00\x00\x00\x00\x00\x00\x00\x00\x00\x00\x00\x00\x00\x00\x00\x00\x00\x00\x00\x00\x00\x00\x00\x00\x00\x00\x00\x00\x00\x00\x00\x00\x00\x00\x00\x00\x00\x00\x00\x00\x00\x00\x00\x00\x00\x00\x00\x00\x00\x00\x00\x00\x00\x00\x00\x00\x00\x00\x00\x00\x00\x00\x00\x00\x00\x00\x00\x00\x00\x00\x00\x00\x00\x00\x00\x00\x00\x00\x00\x00\x00\x00\x00\x00\x00\x00\x00\x00\x00\x00\x00\x00\x00\x00\x00\x00\x00\x00\x00\x00\x00\x00\x00\x00\x00\x00\x00\x00\x00\x00\x00\x00\x00\x00\x00\x00\x00\x00\x00\x00\x00\x00\x00\x00\x00"
005000 103002  bcc 000000 010764 000005 001000 177712 176630 176630   NZVC1 0000
# 005000 bcc 5006 (nextPC=005002)
[pid 11] TRAP
[pid 11] trap 004024 close(4) [000004 010764 000005 000000 177712 176634 176634 004024] []
[pid 11] trap DONE 004024 close(4) [000004 010764 000005 000000 177712 176634 176634 004024] []
[pid 11] close(4)
004024 103002  bcc 000004 010764 000005 000000 177712 176634 176634   NZVC1 0000
# 004024 bcc 4032 (nextPC=004026)
[pid 11] TRAP
[pid 11] trap 005236 fstat(6072, 001000) [000000 177714 000000 000000 000000 177722 177716 005240] [013670]
[pid 11] trap DONE 005236 fstat(6072, 001000) [000000 177714 000000 000000 000000 177722 177716 005240] [013670]
[pid 11] fstat(6072, 001000)
005240 103442  bcs 000000 177714 000000 000000 000000 177722 177716   NZVC1 0100
# 005240 bcs 5346 (nextPC=005242)
[pid 11] TRAP
[pid 11] trap 005250 open("/dev", 0) [000000 177714 000000 000000 000000 177722 177716 005254] [006176 000000]
[pid 11] trap DONE 005250 open("/dev", 0) [000004 177714 000000 000000 000000 177722 177716 005254] [006176 000000]
[pid 11] open("/dev", 0) = 4
005254 103434  bcs 000004 177714 000000 000000 000000 177722 177716   NZVC1 0000
# 005254 bcs 5346 (nextPC=005256)
[pid 11] TRAP
[pid 11] trap 005264 read(4, 013670, 16) [000004 000004 000000 000000 000000 177722 177716 005270] [013670 000020]
[pid 11] trap DONE 005264 read(4, 013670, 16) [000020 000004 000000 000000 000000 177722 177716 005270] [013670 000020]
[pid 11] read(4, 013670, 16) = "C\x00.\x00\x00\x00\x00\x00\x00\x00\x00\x00\x00\x00\x00\x00"
005270 103424  bcs 000020 000004 000000 000000 000000 177722 177716   NZVC1 0000
# 005270 bcs 5342 (nextPC=005272)
[pid 11] TRAP
[pid 11] trap 005264 read(4, 013670, 16) [000004 000004 000000 000000 000000 177722 177716 005270] [013670 000020]
[pid 11] trap DONE 005264 read(4, 013670, 16) [000020 000004 000000 000000 000000 177722 177716 005270] [013670 000020]
[pid 11] read(4, 013670, 16) = "\x01\x00..\x00\x00\x00\x00\x00\x00\x00\x00\x00\x00\x00\x00"
005270 103424  bcs 000020 000004 000000 000000 000000 177722 177716   NZVC1 0000
# 005270 bcs 5342 (nextPC=005272)
[pid 11] TRAP
[pid 11] trap 005264 read(4, 013670, 16) [000004 000004 000000 000000 000000 177722 177716 005270] [013670 000020]
[pid 11] trap DONE 005264 read(4, 013670, 16) [000020 000004 000000 000000 000000 177722 177716 005270] [013670 000020]
[pid 11] read(4, 013670, 16) = "D\x00kmem\x00\x00\x00\x00\x00\x00\x00\x00\x00\x00"
005270 103424  bcs 000020 000004 000000 000000 000000 177722 177716   NZVC1 0000
# 005270 bcs 5342 (nextPC=005272)
[pid 11] TRAP
[pid 11] trap 005264 read(4, 013670, 16) [000004 000004 000000 000000 000000 177722 177716 005270] [013670 000020]
[pid 11] trap DONE 005264 read(4, 013670, 16) [000020 000004 000000 000000 000000 177722 177716 005270] [013670 000020]
[pid 11] read(4, 013670, 16) = "E\x00mem\x00\x00\x00\x00\x00\x00\x00\x00\x00\x00\x00"
005270 103424  bcs 000020 000004 000000 000000 000000 177722 177716   NZVC1 0000
# 005270 bcs 5342 (nextPC=005272)
[pid 11] TRAP
[pid 11] trap 005264 read(4, 013670, 16) [000004 000004 000000 000000 000000 177722 177716 005270] [013670 000020]
[pid 11] trap DONE 005264 read(4, 013670, 16) [000020 000004 000000 000000 000000 177722 177716 005270] [013670 000020]
[pid 11] read(4, 013670, 16) = "F\x00null\x00\x00\x00\x00\x00\x00\x00\x00\x00\x00"
005270 103424  bcs 000020 000004 000000 000000 000000 177722 177716   NZVC1 0000
# 005270 bcs 5342 (nextPC=005272)
[pid 11] TRAP
[pid 11] trap 005264 read(4, 013670, 16) [000004 000004 000000 000000 000000 177722 177716 005270] [013670 000020]
[pid 11] trap DONE 005264 read(4, 013670, 16) [000020 000004 000000 000000 000000 177722 177716 005270] [013670 000020]
[pid 11] read(4, 013670, 16) = "G\x00tty8\x00\x00\x00\x00\x00\x00\x00\x00\x00\x00"
005270 103424  bcs 000020 000004 000000 000000 000000 177722 177716   NZVC1 0000
# 005270 bcs 5342 (nextPC=005272)
[pid 11] TRAP
[pid 11] trap 005346 close(4) [000004 000004 000000 000000 000000 177722 177716 005346] []
[pid 11] trap DONE 005346 close(4) [000004 000004 000000 000000 000000 177722 177716 005346] []
[pid 11] close(4)
005346 005726  tst 000004 000004 000000 000000 000000 177722 177716   NZVC1 0000
# 005346 tst (sp)+ (nextPC=005350)
[pid 11] TRAP
[pid 11] trap 004046 getuid() [000070 000004 000000 000000 000000 177722 177722 004046] []
[pid 11] trap DONE 004046 getuid() [003006 000004 000000 000000 000000 177722 177722 004046] []
[pid 11] getuid() = 1542
004046 012605  mov 003006 000004 000000 000000 000000 177722 177722   NZVC1 1000
# 004046 mov (sp)+, r5 (nextPC=004050)
004746 000207  rts 000124 012622 000000 000000 177730 177510 177474   NZVC1 1000
# 004746 rts pc (nextPC=004750)
005132 010605  mov 003054 177502 000000 000000 177730 003054 177510   NZVC1 0001
# 005132 mov sp, r5 (nextPC=005134)
004746 000207  rts 000111 012622 000000 000000 177730 177510 177474   NZVC1 1000
# 004746 rts pc (nextPC=004750)
005132 010605  mov 003054 177502 000000 000000 177730 003054 177510   NZVC1 0000
# 005132 mov sp, r5 (nextPC=005134)
004746 000207  rts 000115 012622 000000 000000 177730 177510 177474   NZVC1 1000
# 004746 rts pc (nextPC=004750)
005132 010605  mov 003054 177502 000000 000000 177730 003054 177510   NZVC1 0000
# 005132 mov sp, r5 (nextPC=005134)
004746 000207  rts 000012 012622 000000 000000 177730 177510 177474   NZVC1 1000
# 004746 rts pc (nextPC=004750)
[pid 11] TRAP
[pid 11] trap 006164 seek(3, 1280, 0) [000003 000000 000010 000000 000000 177716 177716 005042] [002400 000000]
[pid 11] trap DONE 006164 seek(3, 1280, 0) [000003 000000 000010 000000 000000 177716 177716 005042] [002400 000000]
[pid 11] seek(3, 1280, 0) = 3
005042 103002  bcc 000003 000000 000010 000000 000000 177716 177716   NZVC1 0100
# 005042 bcc 5050 (nextPC=005044)
[pid 11] TRAP
[pid 11] trap 006156 read(3, 011030, 32) [000003 000000 000010 000000 000000 177716 177716 005000] [011030 000040]
[pid 11] trap DONE 006156 read(3, 011030, 32) [000040 000000 000010 000000 000000 177716 177716 005000] [011030 000040]
[pid 11] read(3, 011030, 32) = "\x00\x00\x00\x00\x00\x00\x00\x00\x00\x00\x00\x00\x00\x00\x00\x00\x00\x00\xda\x10\x00\x00\x00\x00#@\x14\x00\x03\x03\b\x04"
005000 103002  bcc 000040 000000 000010 000000 000000 177716 177716   NZVC1 0000
# 005000 bcc 5006 (nextPC=005002)
001130 010165  mov 000070 000000 000000 000000 000000 177760 177726   NZVC1 0100
# 001130 mov r1, -30(r5) (nextPC=001134)
000676 006302  asl 000156 000156 000000 000000 000000 177760 177726   NZVC1 0100
# 000676 asl r2 (nextPC=000700)
003072 000167  jmp 000040 012622 000000 000000 177730 177510 177500   NZVC1 0000
# 003072 jmp 5146 (nextPC=003076)
003736 000754   br 000006 000006 000000 003212 177726 177720 177510   NZVC1 0000
# 003736 br 3670 (nextPC=003740)
004626 016500  mov 003054 012622 177516 000004 000002 177464 177464   NZVC1 0000
# 004626 mov 4(r5), r0 (nextPC=004632)
004610 005361  dec 003054 012622 177516 000001 000002 177464 177464   NZVC1 0000
# 004610 dec 2(r1) (nextPC=004614)
005150 014104  mov 000000 177720 177520 000000 177730 177720 177512   NZVC1 1000
# 005150 mov -(r1), r4 (nextPC=005152)
[pid 11] TRAP
[pid 11] trap 006164 seek(3, 8, 3) [000003 000000 000000 000000 000000 177670 177670 005042] [000010 000003]
[pid 11] trap DONE 006164 seek(3, 8, 3) [000003 000000 000000 000000 000000 177670 177670 005042] [000010 000003]
[pid 11] seek(3, 8, 3) = 3
005042 103002  bcc 000003 000000 000000 000000 000000 177670 177670   NZVC1 0000
# 005042 bcc 5050 (nextPC=005044)
[pid 11] TRAP
[pid 11] trap 006164 seek(3, 384, 1) [000003 000000 000000 000000 000000 177670 177670 005042] [000600 000001]
[pid 11] trap DONE 006164 seek(3, 384, 1) [000003 000000 000000 000000 000000 177670 177670 005042] [000600 000001]
[pid 11] seek(3, 384, 1) = 3
005042 103002  bcc 000003 000000 000000 000000 000000 177670 177670   NZVC1 0000
# 005042 bcc 5050 (nextPC=005044)
[pid 11] TRAP
[pid 11] trap 006156 read(3, 011106, 512) [000003 000000 000000 000000 000000 177670 177670 005000] [011106 001000]
[pid 11] trap DONE 006156 read(3, 011106, 512) [001000 000000 000000 000000 000000 177670 177670 005000] [011106 001000]
[pid 11] read(3, 011106, 512) = "\x00\x00\x00\x00\x00\x00\x00\x00\x00\x00\x00\x00\x00\x00\x00\x00\x00\x00\x00\x00\x00\x00\x00\x00\x00\x00\x00\x00\x00\x00\x00\x00\x00\x00\x00\x00\x00\x00\x00\x00\x00\x00\x00\x00\x00\x00\x00\x00\x00\x00\x00\x00\x00\x00\x00\x00\x00\x00\x00\x00\x00\x00\x00\x00\x00\x00\x00\x00\x00\x00\x00\x00\x00\x00\x00\x00\x00\x00\x00\x00\x00\x00\x00\x00\x00\x00\x00\x00\x00\x00\x00\x00\x00\x00\x00\x00\x00\x00\x00\x00\x00\x00\x00\x00\x00\x00\x00\x00\x00\x00\x00\x00\x00\x00\x00\x00\x00\x00\x00\x00\x00\x00\x00\x00\x00\x00\x00\x00\x00\x00\x00\x00\x00\x00\x00\x00\x00\x00\x00\x00\x00\x00\x00\x00\x00\x00\x00\x00\x00\x00\x00\x00\x00\x00\x00\x00\x00\x00\x00\x00\x00\x00\x00\x00\x00\x00\x00\x00\x00\x00\x00\x00\x00\x00\x00\x00\x00\x00\x00\x00\x00\x00\x00\x00\x00\x00\x00\x00\x00\x00\x00\x00\x00\x00\x00\x00\x00\x00\x00\x00\x00\x00\x00\x00\x00\x00\x00\x00\x00\x00\x00\x00\x00\x00\x00\x00\x00\x00\x00\x00\x00\x00\x00\x00\x00\x00\x00\x00\x00\x00\x00\x00\x00\x00\x00\x00\x00\x00\x00\x00\x00\x00\x00\x00\x00\x00\x00\x00\x00\x00\x00\x00\x00\x00\x00\x00\x00\x00\x00\x00\x00\x00\x00\x00\x00\x00\x00\x00\x00\x00\x00\x00\x00\x00\x00\x00\x00\x00\x00\x00\x00\x00\x00\x00\x00\x00\x00\x00\x00\x00\x00\x00\x00\x00\x00\x00\x00\x00\x00\x00\x00\x00\x00\x00\x00\x00\x00\x00\x00\x00\x00\x00\x00\x00\x00\x00\x00\x00\x00\x00\x00\x00\x00\x00\x00\x00\x00\x00\x00\x00\x00\x00\x00\x00\x00\x00\x00\x00\x00\x00\x00\x00\x00\x00\x00\x00\x00\x00\x00\x00\x00\x00\x00\x00\x00\x00\x00\x00\x00\x00\x00\x00\x00\x00\x00\x00\x00\x00\x00\x00\x00\x00\x00\x00\x00\x00\x00\x00\x00\x00\x00\x00\x00\x00\x00\x00\x00\x00\x00\x00\x00\x00\x00\x00\xfa\xff\x00\x00\x90'\xac\xff.\a\a\x00\x00\x00p\x00\x00\x00\x00\x00\xa2\xff\x01\x00\xb0\xff\xf6\r\xa8\xff\x00\x00\xf2'\xa6#\xfa'\xc6\xff\xda\b\v\x00\xfa'\x90'\xca\xff\x00\x00\v\x00\xf2'\xa9#\xfa'\xda\xfff\f\xfa'h\x04\x8e'\x00\x00\xfa\xff\xf2'\xa9#\xff\xff\xe6\xff\xe8\x01\xf2'\xfa\xffd!\xff\xff\xf2\xffl\x01q!\x00\x00\x00\x00\x00\x00\x00\x00\x10\x00\x01\x00\xfa\xff\xfe\xff\xff\xff-\x00"
005000 103002  bcc 001000 000000 000000 000000 000000 177670 177670   NZVC1 0000
# 005000 bcc 5006 (nextPC=005002)
005152 014103  mov 000040 177456 012104 012104 177700 177460 177450   NZVC1 1000
# 005152 mov -(r1), r3 (nextPC=005154)
003366 011402  mov 000163 000100 003360 000000 177700 177672 177464   NZVC1 0100
# 003366 mov (r4), r2 (nextPC=003370)
005132 010605  mov 003054 177714 000000 000000 177730 003054 177510   NZVC1 0001
# 005132 mov sp, r5 (nextPC=005134)
003050 004567  jsr 000040 000006 000000 000000 177730 177722 177512   NZVC1 0001
# 003050 jsr r5, 5130 (nextPC=003054)
003114 010504  mov 003102 000232 000000 000000 000000 177720 177512   NZVC1 0000
# 003114 mov r5, r4 (nextPC=003116)
003566 012746  mov 000061 000000 177516 000002 177730 177720 177510   NZVC1 1000
# 003566 mov #40, -(sp) (nextPC=003572)
003072 000167  jmp 000040 012622 177516 000002 000002 177502 177472   NZVC1 0000
# 003072 jmp 5146 (nextPC=003076)
004636 005261  inc 000061 012622 177520 000000 000001 177464 177464   NZVC1 0000
# 004636 inc 4(r1) (nextPC=004642)
[pid 11] TRAP
[pid 11] trap 006164 seek(3, 8, 3) [000003 000000 000000 000000 000000 177670 177670 005042] [000010 000003]
[pid 11] trap DONE 006164 seek(3, 8, 3) [000003 000000 000000 000000 000000 177670 177670 005042] [000010 000003]
[pid 11] seek(3, 8, 3) = 3
005042 103002  bcc 000003 000000 000000 000000 000000 177670 177670   NZVC1 0000
# 005042 bcc 5050 (nextPC=005044)
[pid 11] TRAP
[pid 11] trap 006164 seek(3, 448, 1) [000003 000000 000000 000000 000000 177670 177670 005042] [000700 000001]
[pid 11] trap DONE 006164 seek(3, 448, 1) [000003 000000 000000 000000 000000 177670 177670 005042] [000700 000001]
[pid 11] seek(3, 448, 1) = 3
005042 103002  bcc 000003 000000 000000 000000 000000 177670 177670   NZVC1 0000
# 005042 bcc 5050 (nextPC=005044)
[pid 11] TRAP
[pid 11] trap 006156 read(3, 011106, 512) [000003 000000 000000 000000 000000 177670 177670 005000] [011106 001000]
[pid 11] trap DONE 006156 read(3, 011106, 512) [001000 000000 000000 000000 000000 177670 177670 005000] [011106 001000]
[pid 11] read(3, 011106, 512) = "\x00\x00\x00\x00\x00\x00\x00\x00\x00\x00F\x00null\x00\x00\x00\x00\x00\x00\x00\x00\x00\x00G\x00tty8\x00\x00\x00\x00\x00\x00\x00\x00\x00\x00\x1d\x05tty0\x00\x00\x00\x00\x00\x00\x00\x00\x00\x00\x1e\x05tty1\x00\x00\x00\x00\x00\x00\x00\x00\x00\x00\x1f\x05tty2\x00\x00\x00\x00\x00\x00\x00\x00\x00\x00 \x05tty3\x00\x00\x00\x00\x00\x00\x00\x00\x00\x00!\x05swap\x00\x00\x00\x00\x00\x00\x00\x00\x00\x00\x00\x00\x00\x00\x00\x00\x00\x00\x00\x00\x00\x00\x00\x00\x00\x00\x00\x00\x00\x00\x00\x00\x00\x00\x00\x00\x00\x00\x00\x00\x00\x00\x00\x00\x00\x00\x00\x00\x00\x00\x00\x00\x00\x00\x00\x00\x00\x00\x00\x00\x00\x00\x00\x00\x00\x00\x00\x00\x00\x00\x00\x00\x00\x00\x00\x00\x00\x00\x00\x00\x00\x00\x00\x00\x00\x00\x00\x00\x00\x00\x00\x00\x00\x00\x00\x00\x00\x00\x00\x00\x00\x00\x00\x00\x00\x00\x00\x00\x00\x00\x00\x00\x00\x00\x00\x00\x00\x00\x00\x00\x00\x00\x00\x00\x00\x00\x00\x00\x00\x00\x00\x00\x00\x00\x00\x00\x00\x00\x00\x00\x00\x00\x00\x00\x00\x00\x00\x00\x00\x00\x00\x00\x00\x00\x00\x00\x00\x00\x00\x00\x00\x00\x00\x00\x00\x00\x00\x00\x00\x00\x00\x00\x00\x00,\xff8\x06-\x00\x92\x15E\x14\xff\xff\x01\x00\xba\xff\x9a\a-\x00\xc2\xffB\xff8\x061\x00\x92\x15P\xff\x00\x00\x01\x00\xd0\xff\x9a\a1\x00\xd8\xffh\x06 \x0011\x00\x00\x00\x00\x00\x00\x00\x00\x00\x00\x00\x00\x00\x00\x00\x00\x00\x00\x00\x00\x00\x00\x00\x00\x00\x00\x00\x00\x00\x00\x00\x00\x00\x00\x00\x00\x00\x00\x00\x00\x00\x00\x00\x00\x00\x00\x00\x00\x00\x00\x00\x00\x00\x00\x00\x00\x00\x00\x00\x00\x00\x00\x00\x00\x00\x00\x00\x00\x00\x00\x00\x00\x00\x00\x00\x00\x00\x00\x00\x00\x00\x00\x00\x00\x00\x00\x00\x00\x00\x00\x00\x00\x00\x00\x00\x00\x00\x00\x00\x00D\x14D\x14\xd2\xff~\x05\x03\x00F\x12\x00\x02\x00\x00\x00\x00\x03\x00\xc0\x01\b\x00\x00\x00\x00\x00\x00\x00\xf0\xffr\x03\a\x00\x06\x00\x06\x00\x00\x008\x008\x00\a\x00\x00\x00\x00\x00\x00\x00\x00\x00\x00\x00\x00\x00\x00\x00\x10\x00\x01\x00\xf8\xff\xfd\xff\xff\xff\x00ps\x00"
005000 103002  bcc 001000 000000 000000 000000 000000 177670 177670   NZVC1 0000
# 005000 bcc 5006 (nextPC=005002)
004600 010546  mov 003054 000000 012104 012103 177700 177460 177444   NZVC1 0000
# 004600 mov r5, -(sp) (nextPC=004602)
003260 001374  bne 000163 006052 003506 177470 177700 177672 177464   NZVC1 0000
# 003260 bne 3252 (nextPC=003262)
005150 014104  mov 000163 177454 012105 177776 000001 177454 177444   NZVC1 1000
# 005150 mov -(r1), r4 (nextPC=005152)
000600 016501  mov 000000 177714 000000 000000 000000 177760 177726   NZVC1 0000
# 000600 mov -16(r5), r1 (nextPC=000604)
000600 016501  mov 000566 000566 000000 000000 000000 177760 177726   NZVC1 0000
# 000600 mov -16(r5), r1 (nextPC=000604)
000600 016501  mov 001122 001122 000000 000000 000000 177760 177726   NZVC1 0000
# 000600 mov -16(r5), r1 (nextPC=000604)
000600 016501  mov 001456 001456 000000 000000 000000 177760 177726   NZVC1 0000
# 000600 mov -16(r5), r1 (nextPC=000604)
000600 016501  mov 002012 002012 000000 000000 000000 177760 177726   NZVC1 0000
# 000600 mov -16(r5), r1 (nextPC=000604)
[pid 11] TRAP
[pid 11] trap 006150 write(1, "TTY  PID COMMAND\n      10 -\n      11 ps\n") [000001 012622 000000 000000 000000 177706 177702 004720] [012630 000050]
[pid 11] trap DONE 006150 write(1, "TTY  PID COMMAND\n      10 -\n      11 ps\n") [000050 012622 000000 000000 000000 177706 177702 004720] [012630 000050]
[pid 11] write(1, "TTY  PID COMMAND\n      10 -\n      11 ps\n") = 40
004720 012661  mov 000050 012622 000000 000000 000000 177706 177702   NZVC1 0000
# 004720 mov (sp)+, 4(r1) (nextPC=004724)
[pid 11] TRAP
[pid 11] trap 005130 exit(5522) [012622 012622 000000 000000 000000 177706 177706 005130] []
[pid 10] trap DONE 010734 wait() [000013 111000 023762 021646 023772 177642 177640 010734] []
[pid 10] wait() = 11, 111000
010734 103003  bcc 000013 111000 023762 021646 023772 177642 177640   NZVC1 0000
# 010734 bcc 10744 (nextPC=010736)
[pid 10] TRAP
[pid 10] trap 021526 times [007230 111000 021646 000000 000013 177536 177536 010714] [177604]
[pid 10] trap DONE 021526 times [007230 111000 021646 000000 000013 177536 177536 010714] [177604]
[pid 10] times
010714 012605  mov 007230 111000 021646 000000 000013 177536 177536   NZVC1 1000
# 010714 mov (sp)+, r5 (nextPC=010716)
[pid 10] TRAP
[pid 10] trap 010656 time() [007230 111000 021646 000000 000013 177536 177536 010656] []
[pid 10] trap DONE 010656 time() [005221 061503 021646 000000 000013 177536 177536 010656] []
[pid 10] time() = 2705, 25411
010656 010246  mov 005221 061503 021646 000000 000013 177536 177536   NZVC1 1000
# 010656 mov r2, -(sp) (nextPC=010660)
011410 014103  mov 000000 177530 177602 000000 000013 177532 177522   NZVC1 0000
# 011410 mov -(r1), r3 (nextPC=011412)
007424 105713 tstb 177637 177524 021651 021650 000011 177626 177542   NZVC1 0100
# 007424 tstb (r3) (nextPC=007426)
[pid 10] TRAP
[pid 10] trap 021512 seek(-1, 0, 2) [177777 177524 021651 021650 000016 177532 177532 010216] [000000 000002]
[pid 10] trap DONE 021512 seek(-1, 0, 2) [177777 177524 021651 021650 000016 177532 177532 010216] [000000 000002]
[pid 10] seek(-1, 0, 2): EBADF
010216 103002  bcc 000011 177524 021651 021650 000016 177532 177532   NZVC1 0001
# 010216 bcc 10224 (nextPC=010220)
[pid 10] TRAP
[pid 10] trap 021532 write(-1, "ps\x00\x00\x00\x00\x00\x00\x00\x00\x00\x00\x00\x00\x00\x06\x91\nCc\x00\x00\x00\x00\x00\x00\x00\x00\x00\x00\x00\x00") [177777 177524 021651 021650 000016 177532 177532 011010] [177544 000040]
[pid 10] trap DONE 021532 write(-1, "ps\x00\x00\x00\x00\x00\x00\x00\x00\x00\x00\x00\x00\x00\x06\x91\nCc\x00\x00\x00\x00\x00\x00\x00\x00\x00\x00\x00\x00") [177777 177524 021651 021650 000016 177532 177532 011010] [177544 000040]
[pid 10] write(-1, "ps\x00\x00\x00\x00\x00\x00\x00\x00\x00\x00\x00\x00\x00\x06\x91\nCc\x00\x00\x00\x00\x00\x00\x00\x00\x00\x00\x00\x00"): EBADF
011010 103002  bcc 000011 177524 021651 021650 000016 177532 177532   NZVC1 0001
# 011010 bcc 11016 (nextPC=011012)
006450 112400 movb 006442 177740 177772 020544 020561 177746 177736   NZVC1 0000
# 006450 movb (r4)+, r0 (nextPC=006452)
[pid 10] TRAP
[pid 10] trap 021532 write(2, "%") [000002 177740 177772 020544 020562 177712 177712 011010] [177736 000001]
[pid 10] trap DONE 021532 write(2, "%") [000001 177740 177772 020544 020562 177712 177712 011010] [177736 000001]
[pid 10] write(2, "%") = 1
011010 103002  bcc 000001 177740 177772 020544 020562 177712 177712   NZVC1 0000
# 011010 bcc 11016 (nextPC=011012)
[pid 10] TRAP
[pid 10] trap 021532 write(2, " ") [000002 177724 177772 020544 020563 177712 177712 011010] [177736 000001]
[pid 10] trap DONE 021532 write(2, " ") [000001 177724 177772 020544 020563 177712 177712 011010] [177736 000001]
[pid 10] write(2, " ") = 1
011010 103002  bcc 000001 177724 177772 020544 020563 177712 177712   NZVC1 0000
# 011010 bcc 11016 (nextPC=011012)
[pid 10] TRAP
[pid 10] trap 021504 read(0, 177722, 1) [000000 177740 177772 020544 177777 177710 177710 010154] [177722 000001]
[pid 10] trap DONE 021504 read(0, 177722, 1) [000001 177740 177772 020544 177777 177710 177710 010154] [177722 000001]
[pid 10] read(0, 177722, 1) = "p"
010154 103002  bcc 000001 177740 177772 020544 177777 177710 177710   NZVC1 0000
# 010154 bcc 10162 (nextPC=010156)
001026 020041  cmp 000045 020076 177772 021646 000160 177732 177722   NZVC1 0000
# 001026 cmp r0, -(r1) (nextPC=001030)
006630 105714 tstb 000174 177710 177772 021646 020635 177714 177704   NZVC1 1001
# 006630 tstb (r4) (nextPC=006632)
[pid 10] TRAP
[pid 10] trap 021504 read(0, 177672, 1) [000000 177706 177772 021646 000160 177660 177660 010154] [177672 000001]
[pid 10] trap DONE 021504 read(0, 177672, 1) [000001 177706 177772 021646 000160 177660 177660 010154] [177672 000001]
[pid 10] read(0, 177672, 1) = "s"
010154 103002  bcc 000001 177706 177772 021646 000160 177660 177660   NZVC1 0000
# 010154 bcc 10162 (nextPC=010156)
006634 112400 movb 000051 177710 177772 021646 020634 177714 177704   NZVC1 0000
# 006634 movb (r4)+, r0 (nextPC=006636)
[pid 10] TRAP
[pid 10] trap 021504 read(0, 177672, 1) [000000 177706 177772 021646 000163 177660 177660 010154] [177672 000001]
[pid 10] trap DONE 021504 read(0, 177672, 1) [000001 177706 177772 021646 000163 177660 177660 010154] [177672 000001]
[pid 10] read(0, 177672, 1) = " "
010154 103002  bcc 000001 177706 177772 021646 000163 177660 177660   NZVC1 0000
# 010154 bcc 10162 (nextPC=010156)
011420 000207  rts 000000 177706 177772 021646 000040 177732 177716   NZVC1 1000
# 011420 rts pc (nextPC=011422)
001706 001425  beq 001700 020106 177772 021651 000040 177702 177670   NZVC1 0100
# 001706 beq 1762 (nextPC=001710)
[pid 10] TRAP
[pid 10] trap 021504 read(0, 177672, 1) [000000 020106 177772 021651 000040 177660 177660 010154] [177672 000001]
[pid 10] trap DONE 021504 read(0, 177672, 1) [000001 020106 177772 021651 000040 177660 177660 010154] [177672 000001]
[pid 10] read(0, 177672, 1) = "-"
010154 103002  bcc 000001 020106 177772 021651 000040 177660 177660   NZVC1 0000
# 010154 bcc 10162 (nextPC=010156)
006630 105714 tstb 000047 177710 177772 021651 020624 177714 177704   NZVC1 0000
# 006630 tstb (r4) (nextPC=006632)
001702 005767  tst 001700 177706 177772 021651 000055 177702 177670   NZVC1 0000
# 001702 tst 21626 (nextPC=001706)
[pid 10] TRAP
[pid 10] trap 021504 read(0, 177672, 1) [000000 177706 177772 021651 000055 177660 177660 010154] [177672 000001]
[pid 10] trap DONE 021504 read(0, 177672, 1) [000001 177706 177772 021651 000055 177660 177660 010154] [177672 000001]
[pid 10] read(0, 177672, 1) = "l"
010154 103002  bcc 000001 177706 177772 021651 000055 177660 177660   NZVC1 0000
# 010154 bcc 10162 (nextPC=010156)
006634 112400 movb 000051 177710 177772 021651 020634 177714 177704   NZVC1 0000
# 006634 movb (r4)+, r0 (nextPC=006636)
[pid 10] TRAP
[pid 10] trap 021504 read(0, 177672, 1) [000000 177706 177772 021651 000154 177660 177660 010154] [177672 000001]
[pid 10] trap DONE 021504 read(0, 177672, 1) [000001 177706 177772 021651 000154 177660 177660 010154] [177672 000001]
[pid 10] read(0, 177672, 1) = "a"
010154 103002  bcc 000001 177706 177772 021651 000154 177660 177660   NZVC1 0000
# 010154 bcc 10162 (nextPC=010156)
006634 112400 movb 000051 177710 177772 021651 020634 177714 177704   NZVC1 0000
# 006634 movb (r4)+, r0 (nextPC=006636)
[pid 10] TRAP
[pid 10] trap 021504 read(0, 177672, 1) [000000 177706 177772 021651 000141 177660 177660 010154] [177672 000001]
[pid 10] trap DONE 021504 read(0, 177672, 1) [000001 177706 177772 021651 000141 177660 177660 010154] [177672 000001]
[pid 10] read(0, 177672, 1) = "\n"
010154 103002  bcc 000001 177706 177772 021651 000141 177660 177660   NZVC1 0000
# 010154 bcc 10162 (nextPC=010156)
006630 105714 tstb 000051 177710 177772 021651 020634 177714 177704   NZVC1 1001
# 006630 tstb (r4) (nextPC=006632)
001320 105767 tstb 001320 177724 177772 021655 177777 177716 177706   NZVC1 1000
# 001320 tstb 21612 (nextPC=001324)
011374 010346  mov 006624 177724 177772 021655 177777 177712 177710   NZVC1 1000
# 011374 mov r3, -(sp) (nextPC=011376)
002272 010065  mov 000012 020162 177772 021655 023622 177712 177700   NZVC1 0000
# 002272 mov r0, -10(r5) (nextPC=002276)
002730 005065  clr 021655 020222 177772 000000 023622 177654 177624   NZVC1 0100
# 002730 clr -16(r5) (nextPC=002734)
003504 006300  asl 000000 177612 177772 023772 023622 177654 177624   NZVC1 0100
# 003504 asl r0 (nextPC=003506)
011410 014103  mov 023762 177726 177772 021655 177777 177730 177720   NZVC1 1000
# 011410 mov -(r1), r3 (nextPC=011412)
006714 005000  clr 006664 177652 023762 021024 021647 177660 177650   NZVC1 0000
# 006714 clr r0 (nextPC=006716)
006660 004567  jsr 000000 177652 023762 021646 023772 177706 177662   NZVC1 0000
# 006660 jsr r5, 11366 (nextPC=006664)
[pid 10] TRAP
[pid 10] trap 010000 fork() [023772 177652 023762 021646 023772 177662 177662 010000] []
[pid 10] fork -> 12
[pid 10] trap DONE 010000 fork() [000014 177652 023762 021646 023772 177662 177662 010002] []
[pid 10] fork() = 12
010002 103005  bcc 000014 177652 023762 021646 023772 177662 177662   NZVC1 1000
# 010002 bcc 10016 (nextPC=010004)
[pid 10] TRAP
[pid 10] trap 021526 times [006724 177652 023762 021646 023772 177642 177642 010714] [021632]
[pid 10] trap DONE 021526 times [006724 177652 023762 021646 023772 177642 177642 010714] [021632]
[pid 10] times
010714 012605  mov 006724 177652 023762 021646 023772 177642 177642   NZVC1 0000
# 010714 mov (sp)+, r5 (nextPC=010716)
[pid 10] TRAP
[pid 10] trap 010656 time() [006724 177652 023762 021646 023772 177642 177642 010656] []
[pid 10] trap DONE 010656 time() [005221 061505 023762 021646 023772 177642 177642 010656] []
[pid 10] time() = 2705, 25413
010656 010246  mov 005221 061505 023762 021646 023772 177642 177642   NZVC1 1000
# 010656 mov r2, -(sp) (nextPC=010660)
[pid 10] TRAP
[pid 10] trap 010734 wait() [000001 006766 023762 021646 023772 177642 177640 010734] []
010000 000403   br 000012 177652 023762 021646 023772 177662 177662   NZVC1 1000
# 010000 br 10010 (nextPC=010002)
[pid 12] TRAP
[pid 12] trap 021520 sig(2, 000000) [000000 000004 023762 021646 023772 177660 177656 010326] [000002 000000]
[pid 12] trap DONE 021520 sig(2, 000000) [000001 000004 023762 021646 023772 177660 177656 010326] [000002 000000]
[pid 12] sig(2, 000000)
010326 103412  bcs 000001 000004 023762 021646 023772 177660 177656   NZVC1 0100
# 010326 bcs 10354 (nextPC=010330)
[pid 12] TRAP
[pid 12] trap 021520 sig(3, 000000) [000000 000006 023762 021646 023772 177660 177656 010326] [000003 000000]
[pid 12] trap DONE 021520 sig(3, 000000) [000001 000006 023762 021646 023772 177660 177656 010326] [000003 000000]
[pid 12] sig(3, 000000)
010326 103412  bcs 000001 000006 023762 021646 023772 177660 177656   NZVC1 0100
# 010326 bcs 10354 (nextPC=010330)
[pid 12] TRAP
[pid 12] trap 007624 close(-1) [177777 000006 023762 021646 023772 177662 177662 007624] []
[pid 12] trap DONE 007624 close(-1) [177777 000006 023762 021646 023772 177662 177662 007624] []
[pid 12] close(-1): EBADF
007624 103002  bcc 000011 000006 023762 021646 023772 177662 177662   NZVC1 1001
# 007624 bcc 7632 (nextPC=007626)
011376 010246  mov 003606 177634 024006 000163 021647 177642 177636   NZVC1 0000
# 011376 mov r2, -(sp) (nextPC=011400)
006642 001372  bne 000052 177634 024010 000055 020747 177624 177614   NZVC1 0000
# 006642 bne 6630 (nextPC=006644)
003602 004567  jsr 000141 177634 024010 000141 021653 177660 177644   NZVC1 0000
# 003602 jsr r5, 11366 (nextPC=003606)
011372 010446  mov 003652 177652 024006 000160 021646 177642 177642   NZVC1 1000
# 011372 mov r4, -(sp) (nextPC=011374)
003554 111403 movb 000154 177634 024010 000154 021653 177660 177650   NZVC1 0000
# 003554 movb (r4), r3 (nextPC=003556)
[pid 12] TRAP
[pid 12] trap 021470 exec("ps", 024004) [006204 177652 023762 021646 023772 177642 177642 007766] [021646 024004]
[pid 12] trap DONE 021470 exec("ps", 024004) [006204 177652 023762 021646 023772 177642 177642 007766] [021646 024004]
[pid 12] exec("ps", 024004): ENOENT
007766 000167  jmp 000002 177652 023762 021646 023772 177642 177642   NZVC1 0101
# 007766 jmp 11422 (nextPC=007772)
[pid 12] TRAP
[pid 12] trap 021470 exec("/bin/ps", 024004) [006204 177652 021651 021673 023772 177642 177642 007766] [021663 024004]
[pid 12] trap DONE 021470 exec("/bin/ps", 024004) [000000 000000 000000 000000 000000 000000 177760 000000] [021663 024004]
[pid 12] exec("/bin/ps", 024004)
000000 170011 setd 000000 000000 000000 000000 000000 000000 177760   NZVC1 0100
# 000000 setd (nextPC=000002)
[pid 12] TRAP
[pid 12] trap 006114 chdir("/dev") [000141 005360 000000 000000 000000 177714 177714 003776] [005406]
[pid 12] trap DONE 006114 chdir("/dev") [000141 005360 000000 000000 000000 177714 177714 003776] [005406]
[pid 12] chdir("/dev")
003776 103002  bcc 000141 005360 000000 000000 000000 177714 177714   NZVC1 0000
# 003776 bcc 4004 (nextPC=004000)
002304 005265  inc 011004 005454 000000 000000 000000 177712 177702   NZVC1 0000
# 002304 inc 6(r5) (nextPC=002310)
[pid 12] TRAP
[pid 12] trap 006120 open("/unix", 0) [011014 010764 000000 000000 000000 177712 177710 004116] [005461 000000]
[pid 12] trap DONE 006120 open("/unix", 0) [000003 010764 000000 000000 000000 177712 177710 004116] [005461 000000]
[pid 12] open("/unix", 0) = 3
004116 103530  bcs 000003 010764 000000 000000 000000 177712 177710   NZVC1 0100
# 004116 bcs 4400 (nextPC=004120)
[pid 12] TRAP
[pid 12] trap 004124 read(3, 013646, 16) [000003 010764 000003 000000 000000 177712 177710 004130] [013646 000020]
[pid 12] trap DONE 004124 read(3, 013646, 16) [000020 010764 000003 000000 000000 177712 177710 004130] [013646 000020]
[pid 12] read(3, 013646, 16) = "\a\x01\b[ \ar<\xd4\r\x00\x00\x00\x00\x01\x00"
004130 020027  cmp 000020 010764 000003 000000 000000 177712 177710   NZVC1 0000
# 004130 cmp r0, #20 (nextPC=004134)
[pid 12] TRAP
[pid 12] trap 006126 seek(3, 25144, 0) [000003 010764 000003 000000 000000 177712 177710 004260] [061070 000000]
[pid 12] trap DONE 006126 seek(3, 25144, 0) [000003 010764 000003 000000 000000 177712 177710 004260] [061070 000000]
[pid 12] seek(3, 25144, 0) = 3
004260 162767  sub 000003 010764 000003 000000 000000 177712 177710   NZVC1 0000
# 004260 sub #14, 13666 (nextPC=004266)
[pid 12] TRAP
[pid 12] trap 004274 read(3, 013646, 12) [000003 010764 000003 000000 000000 177712 177710 004300] [013646 000014]
[pid 12] trap DONE 004274 read(3, 013646, 12) [000014 010764 000003 000000 000000 177712 177710 004300] [013646 000014]
[pid 12] read(3, 013646, 12) = "trap\x00\x00\x00\x00#\x00\xea\x01"
004300 020027  cmp 000014 010764 000003 000000 000000 177712 177710   NZVC1 0000
# 004300 cmp r0, #14 (nextPC=004304)
[pid 12] TRAP
[pid 12] trap 004274 read(3, 013646, 12) [000003 010764 000003 000000 000000 177712 177710 004300] [013646 000014]
[pid 12] trap DONE 004274 read(3, 013646, 12) [000014 010764 000003 000000 000000 177712 177710 004300] [013646 000014]
[pid 12] read(3, 013646, 12) = "start\x00\x00\x00#\x00\x16\x01"
004300 020027  cmp 000014 010764 000003 000000 000000 177712 177710   NZVC1 0000
# 004300 cmp r0, #14 (nextPC=004304)
[pid 12] TRAP
[pid 12] trap 004274 read(3, 013646, 12) [000003 010764 000003 000000 000000 177712 177710 004300] [013646 000014]
[pid 12] trap DONE 004274 read(3, 013646, 12) [000014 010764 000003 000000 000000 177712 177710 004300] [013646 000014]
[pid 12] read(3, 013646, 12) = "dump\x00\x00\x00\x00#\x00\xd4\x00"
004300 020027  cmp 000014 010764 000003 000000 000000 177712 177710   NZVC1 0000
# 004300 cmp r0, #14 (nextPC=004304)
[pid 12] TRAP
[pid 12] trap 004274 read(3, 013646, 12) [000003 010764 000003 000000 000000 177712 177710 004300] [013646 000014]
[pid 12] trap DONE 004274 read(3, 013646, 12) [000014 010764 000003 000000 000000 177712 177710 004300] [013646 000014]
[pid 12] read(3, 013646, 12) = "call\x00\x00\x00\x00\"\x00\b "
004300 020027  cmp 000014 010764 000003 000000 000000 177712 177710   NZVC1 0000
# 004300 cmp r0, #14 (nextPC=004304)
[pid 12] TRAP
[pid 12] trap 004274 read(3, 013646, 12) [000003 010764 000003 000000 000000 177712 177710 004300] [013646 000014]
[pid 12] trap DONE 004274 read(3, 013646, 12) [000014 010764 000003 000000 000000 177712 177710 004300] [013646 000014]
[pid 12] read(3, 013646, 12) = "_klrint\x00\"\x00Dr"
004300 020027  cmp 000014 010764 000003 000000 000000 177712 177710   NZVC1 0000
# 004300 cmp r0, #14 (nextPC=004304)
[pid 12] TRAP
[pid 12] trap 004274 read(3, 013646, 12) [000003 010764 000003 000000 000000 177712 177710 004300] [013646 000014]
[pid 12] trap DONE 004274 read(3, 013646, 12) [000014 010764 000003 000000 000000 177712 177710 004300] [013646 000014]
[pid 12] read(3, 013646, 12) = "_klxint\x00\"\x00\x12r"
004300 020027  cmp 000014 010764 000003 000000 000000 177712 177710   NZVC1 0000
# 004300 cmp r0, #14 (nextPC=004304)
[pid 12] TRAP
[pid 12] trap 004274 read(3, 013646, 12) [000003 010764 000003 000000 000000 177712 177710 004300] [013646 000014]
[pid 12] trap DONE 004274 read(3, 013646, 12) [000014 010764 000003 000000 000000 177712 177710 004300] [013646 000014]
[pid 12] read(3, 013646, 12) = "_clock\x00\x00\"\x00\xb8G"
004300 020027  cmp 000014 010764 000003 000000 000000 177712 177710   NZVC1 0000
# 004300 cmp r0, #14 (nextPC=004304)
[pid 12] TRAP
[pid 12] trap 004274 read(3, 013646, 12) [000003 010764 000003 000000 000000 177712 177710 004300] [013646 000014]
[pid 12] trap DONE 004274 read(3, 013646, 12) [000014 010764 000003 000000 000000 177712 177710 004300] [013646 000014]
[pid 12] read(3, 013646, 12) = "_hsintr\x00\"\x00tz"
004300 020027  cmp 000014 010764 000003 000000 000000 177712 177710   NZVC1 0000
# 004300 cmp r0, #14 (nextPC=004304)
[pid 12] TRAP
[pid 12] trap 004274 read(3, 013646, 12) [000003 010764 000003 000000 000000 177712 177710 004300] [013646 000014]
[pid 12] trap DONE 004274 read(3, 013646, 12) [000014 010764 000003 000000 000000 177712 177710 004300] [013646 000014]
[pid 12] read(3, 013646, 12) = "_htintr\x00\"\x00\x9ex"
004300 020027  cmp 000014 010764 000003 000000 000000 177712 177710   NZVC1 0000
# 004300 cmp r0, #14 (nextPC=004304)
[pid 12] TRAP
[pid 12] trap 004274 read(3, 013646, 12) [000003 010764 000003 000000 000000 177712 177710 004300] [013646 000014]
[pid 12] trap DONE 004274 read(3, 013646, 12) [000014 010764 000003 000000 000000 177712 177710 004300] [013646 000014]
[pid 12] read(3, 013646, 12) = "_hpintr\x00\"\x00\x10u"
004300 020027  cmp 000014 010764 000003 000000 000000 177712 177710   NZVC1 0000
# 004300 cmp r0, #14 (nextPC=004304)
[pid 12] TRAP
[pid 12] trap 004274 read(3, 013646, 12) [000003 010764 000003 000000 000000 177712 177710 004300] [013646 000014]
[pid 12] trap DONE 004274 read(3, 013646, 12) [000014 010764 000003 000000 000000 177712 177710 004300] [013646 000014]
[pid 12] read(3, 013646, 12) = "_end\x00\x00\x00\x00$\x00\x92C"
004300 020027  cmp 000014 010764 000003 000000 000000 177712 177710   NZVC1 0000
# 004300 cmp r0, #14 (nextPC=004304)
[pid 12] TRAP
[pid 12] trap 004274 read(3, 013646, 12) [000003 010764 000003 000000 000000 177712 177710 004300] [013646 000014]
[pid 12] trap DONE 004274 read(3, 013646, 12) [000014 010764 000003 000000 000000 177712 177710 004300] [013646 000014]
[pid 12] read(3, 013646, 12) = "_edata\x00\x00#\x00 \a"
004300 020027  cmp 000014 010764 000003 000000 000000 177712 177710   NZVC1 0000
# 004300 cmp r0, #14 (nextPC=004304)
[pid 12] TRAP
[pid 12] trap 004274 read(3, 013646, 12) [000003 010764 000003 000000 000000 177712 177710 004300] [013646 000014]
[pid 12] trap DONE 004274 read(3, 013646, 12) [000014 010764 000003 000000 000000 177712 177710 004300] [013646 000014]
[pid 12] read(3, 013646, 12) = "_etext\x00\x00\"\x00\b{"
004300 020027  cmp 000014 010764 000003 000000 000000 177712 177710   NZVC1 0000
# 004300 cmp r0, #14 (nextPC=004304)
[pid 12] TRAP
[pid 12] trap 004274 read(3, 013646, 12) [000003 010764 000003 000000 000000 177712 177710 004300] [013646 000014]
[pid 12] trap DONE 004274 read(3, 013646, 12) [000014 010764 000003 000000 000000 177712 177710 004300] [013646 000014]
[pid 12] read(3, 013646, 12) = "_main\x00\x00\x00\"\x00\xba$"
004300 020027  cmp 000014 010764 000003 000000 000000 177712 177710   NZVC1 0000
# 004300 cmp r0, #14 (nextPC=004304)
[pid 12] TRAP
[pid 12] trap 004274 read(3, 013646, 12) [000003 010764 000003 000000 000000 177712 177710 004300] [013646 000014]
[pid 12] trap DONE 004274 read(3, 013646, 12) [000014 010764 000003 000000 000000 177712 177710 004300] [013646 000014]
[pid 12] read(3, 013646, 12) = "_cputype#\x00\"\x02"
004300 020027  cmp 000014 010764 000003 000000 000000 177712 177710   NZVC1 0000
# 004300 cmp r0, #14 (nextPC=004304)
[pid 12] TRAP
[pid 12] trap 004274 read(3, 013646, 12) [000003 010764 000003 000000 000000 177712 177710 004300] [013646 000014]
[pid 12] trap DONE 004274 read(3, 013646, 12) [000014 010764 000003 000000 000000 177712 177710 004300] [013646 000014]
[pid 12] read(3, 013646, 12) = "_u\x00\x00\x00\x00\x00\x00!\x00\x00\xc0"
004300 020027  cmp 000014 010764 000003 000000 000000 177712 177710   NZVC1 0000
# 004300 cmp r0, #14 (nextPC=004304)
[pid 12] TRAP
[pid 12] trap 004274 read(3, 013646, 12) [000003 010764 000003 000000 000000 177712 177710 004300] [013646 000014]
[pid 12] trap DONE 004274 read(3, 013646, 12) [000014 010764 000003 000000 000000 177712 177710 004300] [013646 000014]
[pid 12] read(3, 013646, 12) = "_trap\x00\x00\x00\"\x00\x88@"
004300 020027  cmp 000014 010764 000003 000000 000000 177712 177710   NZVC1 0000
# 004300 cmp r0, #14 (nextPC=004304)
[pid 12] TRAP
[pid 12] trap 004274 read(3, 013646, 12) [000003 010764 000003 000000 000000 177712 177710 004300] [013646 000014]
[pid 12] trap DONE 004274 read(3, 013646, 12) [000014 010764 000003 000000 000000 177712 177710 004300] [013646 000014]
[pid 12] read(3, 013646, 12) = "nofault\x00$\x00\x84C"
004300 020027  cmp 000014 010764 000003 000000 000000 177712 177710   NZVC1 0000
# 004300 cmp r0, #14 (nextPC=004304)
[pid 12] TRAP
[pid 12] trap 004274 read(3, 013646, 12) [000003 010764 000003 000000 000000 177712 177710 004300] [013646 000014]
[pid 12] trap DONE 004274 read(3, 013646, 12) [000014 010764 000003 000000 000000 177712 177710 004300] [013646 000014]
[pid 12] read(3, 013646, 12) = "ssr\x00\x00\x00\x00\x00$\x00\x86C"
004300 020027  cmp 000014 010764 000003 000000 000000 177712 177710   NZVC1 0000
# 004300 cmp r0, #14 (nextPC=004304)
[pid 12] TRAP
[pid 12] trap 004274 read(3, 013646, 12) [000003 010764 000003 000000 000000 177712 177710 004300] [013646 000014]
[pid 12] trap DONE 004274 read(3, 013646, 12) [000014 010764 000003 000000 000000 177712 177710 004300] [013646 000014]
[pid 12] read(3, 013646, 12) = "_runrun\x00$\x00 \a"
004300 020027  cmp 000014 010764 000003 000000 000000 177712 177710   NZVC1 0000
# 004300 cmp r0, #14 (nextPC=004304)
[pid 12] TRAP
[pid 12] trap 004274 read(3, 013646, 12) [000003 010764 000003 000000 000000 177712 177710 004300] [013646 000014]
[pid 12] trap DONE 004274 read(3, 013646, 12) [000014 010764 000003 000000 000000 177712 177710 004300] [013646 000014]
[pid 12] read(3, 013646, 12) = "_swtch\x00\x00\"\x00\x9c8"
004300 020027  cmp 000014 010764 000003 000000 000000 177712 177710   NZVC1 0000
# 004300 cmp r0, #14 (nextPC=004304)
[pid 12] TRAP
[pid 12] trap 004274 read(3, 013646, 12) [000003 010764 000003 000000 000000 177712 177710 004300] [013646 000014]
[pid 12] trap DONE 004274 read(3, 013646, 12) [000014 010764 000003 000000 000000 177712 177710 004300] [013646 000014]
[pid 12] read(3, 013646, 12) = "_savfp\x00\x00\"\x00t "
004300 020027  cmp 000014 010764 000003 000000 000000 177712 177710   NZVC1 0000
# 004300 cmp r0, #14 (nextPC=004304)
[pid 12] TRAP
[pid 12] trap 004274 read(3, 013646, 12) [000003 010764 000003 000000 000000 177712 177710 004300] [013646 000014]
[pid 12] trap DONE 004274 read(3, 013646, 12) [000014 010764 000003 000000 000000 177712 177710 004300] [013646 000014]
[pid 12] read(3, 013646, 12) = "_incupc\x00\"\x00\x92 "
004300 020027  cmp 000014 010764 000003 000000 000000 177712 177710   NZVC1 0000
# 004300 cmp r0, #14 (nextPC=004304)
[pid 12] TRAP
[pid 12] trap 004274 read(3, 013646, 12) [000003 010764 000003 000000 000000 177712 177710 004300] [013646 000014]
[pid 12] trap DONE 004274 read(3, 013646, 12) [000014 010764 000003 000000 000000 177712 177710 004300] [013646 000014]
[pid 12] read(3, 013646, 12) = "_display\"\x00\xd8 "
004300 020027  cmp 000014 010764 000003 000000 000000 177712 177710   NZVC1 0000
# 004300 cmp r0, #14 (nextPC=004304)
[pid 12] TRAP
[pid 12] trap 004274 read(3, 013646, 12) [000003 010764 000003 000000 000000 177712 177710 004300] [013646 000014]
[pid 12] trap DONE 004274 read(3, 013646, 12) [000014 010764 000003 000000 000000 177712 177710 004300] [013646 000014]
[pid 12] read(3, 013646, 12) = "_getc\x00\x00\x00\"\x00\x18!"
004300 020027  cmp 000014 010764 000003 000000 000000 177712 177710   NZVC1 0000
# 004300 cmp r0, #14 (nextPC=004304)
[pid 12] TRAP
[pid 12] trap 004274 read(3, 013646, 12) [000003 010764 000003 000000 000000 177712 177710 004300] [013646 000014]
[pid 12] trap DONE 004274 read(3, 013646, 12) [000014 010764 000003 000000 000000 177712 177710 004300] [013646 000014]
[pid 12] read(3, 013646, 12) = "_putc\x00\x00\x00\"\x00r!"
004300 020027  cmp 000014 010764 000003 000000 000000 177712 177710   NZVC1 0000
# 004300 cmp r0, #14 (nextPC=004304)
[pid 12] TRAP
[pid 12] trap 004274 read(3, 013646, 12) [000003 010764 000003 000000 000000 177712 177710 004300] [013646 000014]
[pid 12] trap DONE 004274 read(3, 013646, 12) [000014 010764 000003 000000 000000 177712 177710 004300] [013646 000014]
[pid 12] read(3, 013646, 12) = "_cfreeli$\x00\"\a"
004300 020027  cmp 000014 010764 000003 000000 000000 177712 177710   NZVC1 0000
# 004300 cmp r0, #14 (nextPC=004304)
[pid 12] TRAP
[pid 12] trap 004274 read(3, 013646, 12) [000003 010764 000003 000000 000000 177712 177710 004300] [013646 000014]
[pid 12] trap DONE 004274 read(3, 013646, 12) [000014 010764 000003 000000 000000 177712 177710 004300] [013646 000014]
[pid 12] read(3, 013646, 12) = "_backup\x00\"\x00\xd4!"
004300 020027  cmp 000014 010764 000003 000000 000000 177712 177710   NZVC1 0000
# 004300 cmp r0, #14 (nextPC=004304)
[pid 12] TRAP
[pid 12] trap 004274 read(3, 013646, 12) [000003 010764 000003 000000 000000 177712 177710 004300] [013646 000014]
[pid 12] trap DONE 004274 read(3, 013646, 12) [000014 010764 000003 000000 000000 177712 177710 004300] [013646 000014]
[pid 12] read(3, 013646, 12) = "_regloc\x00#\x00\x10\x04"
004300 020027  cmp 000014 010764 000003 000000 000000 177712 177710   NZVC1 0000
# 004300 cmp r0, #14 (nextPC=004304)
[pid 12] TRAP
[pid 12] trap 004274 read(3, 013646, 12) [000003 010764 000003 000000 000000 177712 177710 004300] [013646 000014]
[pid 12] trap DONE 004274 read(3, 013646, 12) [000014 010764 000003 000000 000000 177712 177710 004300] [013646 000014]
[pid 12] read(3, 013646, 12) = "_fubyte\x00\"\x00\x1e\""
004300 020027  cmp 000014 010764 000003 000000 000000 177712 177710   NZVC1 0000
# 004300 cmp r0, #14 (nextPC=004304)
[pid 12] TRAP
[pid 12] trap 004274 read(3, 013646, 12) [000003 010764 000003 000000 000000 177712 177710 004300] [013646 000014]
[pid 12] trap DONE 004274 read(3, 013646, 12) [000014 010764 000003 000000 000000 177712 177710 004300] [013646 000014]
[pid 12] read(3, 013646, 12) = "_subyte\x00\"\x00b\""
004300 020027  cmp 000014 010764 000003 000000 000000 177712 177710   NZVC1 0000
# 004300 cmp r0, #14 (nextPC=004304)
[pid 12] TRAP
[pid 12] trap 004274 read(3, 013646, 12) [000003 010764 000003 000000 000000 177712 177710 004300] [013646 000014]
[pid 12] trap DONE 004274 read(3, 013646, 12) [000014 010764 000003 000000 000000 177712 177710 004300] [013646 000014]
[pid 12] read(3, 013646, 12) = "_fuword\x00\"\x00\x96\""
004300 020027  cmp 000014 010764 000003 000000 000000 177712 177710   NZVC1 0000
# 004300 cmp r0, #14 (nextPC=004304)
[pid 12] TRAP
[pid 12] trap 004274 read(3, 013646, 12) [000003 010764 000003 000000 000000 177712 177710 004300] [013646 000014]
[pid 12] trap DONE 004274 read(3, 013646, 12) [000014 010764 000003 000000 000000 177712 177710 004300] [013646 000014]
[pid 12] read(3, 013646, 12) = "_suword\x00\"\x00\xda\""
004300 020027  cmp 000014 010764 000003 000000 000000 177712 177710   NZVC1 0000
# 004300 cmp r0, #14 (nextPC=004304)
[pid 12] TRAP
[pid 12] trap 004274 read(3, 013646, 12) [000003 010764 000003 000000 000000 177712 177710 004300] [013646 000014]
[pid 12] trap DONE 004274 read(3, 013646, 12) [000014 010764 000003 000000 000000 177712 177710 004300] [013646 000014]
[pid 12] read(3, 013646, 12) = "_fuibyte\"\x00\x10\""
004300 020027  cmp 000014 010764 000003 000000 000000 177712 177710   NZVC1 0000
# 004300 cmp r0, #14 (nextPC=004304)
[pid 12] TRAP
[pid 12] trap 004274 read(3, 013646, 12) [000003 010764 000003 000000 000000 177712 177710 004300] [013646 000014]
[pid 12] trap DONE 004274 read(3, 013646, 12) [000014 010764 000003 000000 000000 177712 177710 004300] [013646 000014]
[pid 12] read(3, 013646, 12) = "_suibyte\"\x008\""
004300 020027  cmp 000014 010764 000003 000000 000000 177712 177710   NZVC1 0000
# 004300 cmp r0, #14 (nextPC=004304)
[pid 12] TRAP
[pid 12] trap 004274 read(3, 013646, 12) [000003 010764 000003 000000 000000 177712 177710 004300] [013646 000014]
[pid 12] trap DONE 004274 read(3, 013646, 12) [000014 010764 000003 000000 000000 177712 177710 004300] [013646 000014]
[pid 12] read(3, 013646, 12) = "_fuiword\"\x00\x8c\""
004300 020027  cmp 000014 010764 000003 000000 000000 177712 177710   NZVC1 0000
# 004300 cmp r0, #14 (nextPC=004304)
[pid 12] TRAP
[pid 12] trap 004274 read(3, 013646, 12) [000003 010764 000003 000000 000000 177712 177710 004300] [013646 000014]
[pid 12] trap DONE 004274 read(3, 013646, 12) [000014 010764 000003 000000 000000 177712 177710 004300] [013646 000014]
[pid 12] read(3, 013646, 12) = "_suiword\"\x00\xcc\""
004300 020027  cmp 000014 010764 000003 000000 000000 177712 177710   NZVC1 0000
# 004300 cmp r0, #14 (nextPC=004304)
[pid 12] TRAP
[pid 12] trap 004274 read(3, 013646, 12) [000003 010764 000003 000000 000000 177712 177710 004300] [013646 000014]
[pid 12] trap DONE 004274 read(3, 013646, 12) [000014 010764 000003 000000 000000 177712 177710 004300] [013646 000014]
[pid 12] read(3, 013646, 12) = "_copyin\x00\"\x008#"
004300 020027  cmp 000014 010764 000003 000000 000000 177712 177710   NZVC1 0000
# 004300 cmp r0, #14 (nextPC=004304)
[pid 12] TRAP
[pid 12] trap 004274 read(3, 013646, 12) [000003 010764 000003 000000 000000 177712 177710 004300] [013646 000014]
[pid 12] trap DONE 004274 read(3, 013646, 12) [000014 010764 000003 000000 000000 177712 177710 004300] [013646 000014]
[pid 12] read(3, 013646, 12) = "_copyout\"\x00P#"
004300 020027  cmp 000014 010764 000003 000000 000000 177712 177710   NZVC1 0000
# 004300 cmp r0, #14 (nextPC=004304)
[pid 12] TRAP
[pid 12] trap 004274 read(3, 013646, 12) [000003 010764 000003 000000 000000 177712 177710 004300] [013646 000014]
[pid 12] trap DONE 004274 read(3, 013646, 12) [000014 010764 000003 000000 000000 177712 177710 004300] [013646 000014]
[pid 12] read(3, 013646, 12) = "_copyiin\"\x00,#"
004300 020027  cmp 000014 010764 000003 000000 000000 177712 177710   NZVC1 0000
# 004300 cmp r0, #14 (nextPC=004304)
[pid 12] TRAP
[pid 12] trap 004274 read(3, 013646, 12) [000003 010764 000003 000000 000000 177712 177710 004300] [013646 000014]
[pid 12] trap DONE 004274 read(3, 013646, 12) [000014 010764 000003 000000 000000 177712 177710 004300] [013646 000014]
[pid 12] read(3, 013646, 12) = "_copyiou\"\x00D#"
004300 020027  cmp 000014 010764 000003 000000 000000 177712 177710   NZVC1 0000
# 004300 cmp r0, #14 (nextPC=004304)
[pid 12] TRAP
[pid 12] trap 004274 read(3, 013646, 12) [000003 010764 000003 000000 000000 177712 177710 004300] [013646 000014]
[pid 12] trap DONE 004274 read(3, 013646, 12) [000014 010764 000003 000000 000000 177712 177710 004300] [013646 000014]
[pid 12] read(3, 013646, 12) = "_idle\x00\x00\x00\"\x00\x90#"
004300 020027  cmp 000014 010764 000003 000000 000000 177712 177710   NZVC1 0000
# 004300 cmp r0, #14 (nextPC=004304)
[pid 12] TRAP
[pid 12] trap 004274 read(3, 013646, 12) [000003 010764 000003 000000 000000 177712 177710 004300] [013646 000014]
[pid 12] trap DONE 004274 read(3, 013646, 12) [000014 010764 000003 000000 000000 177712 177710 004300] [013646 000014]
[pid 12] read(3, 013646, 12) = "_savu\x00\x00\x00\"\x00\x9e#"
004300 020027  cmp 000014 010764 000003 000000 000000 177712 177710   NZVC1 0000
# 004300 cmp r0, #14 (nextPC=004304)
[pid 12] TRAP
[pid 12] trap 004274 read(3, 013646, 12) [000003 010764 000003 000000 000000 177712 177710 004300] [013646 000014]
[pid 12] trap DONE 004274 read(3, 013646, 12) [000014 010764 000003 000000 000000 177712 177710 004300] [013646 000014]
[pid 12] read(3, 013646, 12) = "_retu\x00\x00\x00\"\x00\xb4#"
004300 020027  cmp 000014 010764 000003 000000 000000 177712 177710   NZVC1 0000
# 004300 cmp r0, #14 (nextPC=004304)
[pid 12] TRAP
[pid 12] trap 004274 read(3, 013646, 12) [000003 010764 000003 000000 000000 177712 177710 004300] [013646 000014]
[pid 12] trap DONE 004274 read(3, 013646, 12) [000014 010764 000003 000000 000000 177712 177710 004300] [013646 000014]
[pid 12] read(3, 013646, 12) = "_aretu\x00\x00\"\x00\xac#"
004300 020027  cmp 000014 010764 000003 000000 000000 177712 177710   NZVC1 0000
# 004300 cmp r0, #14 (nextPC=004304)
[pid 12] TRAP
[pid 12] trap 004274 read(3, 013646, 12) [000003 010764 000003 000000 000000 177712 177710 004300] [013646 000014]
[pid 12] trap DONE 004274 read(3, 013646, 12) [000014 010764 000003 000000 000000 177712 177710 004300] [013646 000014]
[pid 12] read(3, 013646, 12) = "_spl0\x00\x00\x00\"\x00\xc8#"
004300 020027  cmp 000014 010764 000003 000000 000000 177712 177710   NZVC1 0000
# 004300 cmp r0, #14 (nextPC=004304)
[pid 12] TRAP
[pid 12] trap 004274 read(3, 013646, 12) [000003 010764 000003 000000 000000 177712 177710 004300] [013646 000014]
[pid 12] trap DONE 004274 read(3, 013646, 12) [000014 010764 000003 000000 000000 177712 177710 004300] [013646 000014]
[pid 12] read(3, 013646, 12) = "_spl1\x00\x00\x00\"\x00\xcc#"
004300 020027  cmp 000014 010764 000003 000000 000000 177712 177710   NZVC1 0000
# 004300 cmp r0, #14 (nextPC=004304)
[pid 12] TRAP
[pid 12] trap 004274 read(3, 013646, 12) [000003 010764 000003 000000 000000 177712 177710 004300] [013646 000014]
[pid 12] trap DONE 004274 read(3, 013646, 12) [000014 010764 000003 000000 000000 177712 177710 004300] [013646 000014]
[pid 12] read(3, 013646, 12) = "_spl4\x00\x00\x00\"\x00\xd0#"
004300 020027  cmp 000014 010764 000003 000000 000000 177712 177710   NZVC1 0000
# 004300 cmp r0, #14 (nextPC=004304)
[pid 12] TRAP
[pid 12] trap 004274 read(3, 013646, 12) [000003 010764 000003 000000 000000 177712 177710 004300] [013646 000014]
[pid 12] trap DONE 004274 read(3, 013646, 12) [000014 010764 000003 000000 000000 177712 177710 004300] [013646 000014]
[pid 12] read(3, 013646, 12) = "_spl5\x00\x00\x00\"\x00\xd4#"
004300 020027  cmp 000014 010764 000003 000000 000000 177712 177710   NZVC1 0000
# 004300 cmp r0, #14 (nextPC=004304)
[pid 12] TRAP
[pid 12] trap 004274 read(3, 013646, 12) [000003 010764 000003 000000 000000 177712 177710 004300] [013646 000014]
[pid 12] trap DONE 004274 read(3, 013646, 12) [000014 010764 000003 000000 000000 177712 177710 004300] [013646 000014]
[pid 12] read(3, 013646, 12) = "_spl6\x00\x00\x00\"\x00\xd8#"
004300 020027  cmp 000014 010764 000003 000000 000000 177712 177710   NZVC1 0000
# 004300 cmp r0, #14 (nextPC=004304)
[pid 12] TRAP
[pid 12] trap 004274 read(3, 013646, 12) [000003 010764 000003 000000 000000 177712 177710 004300] [013646 000014]
[pid 12] trap DONE 004274 read(3, 013646, 12) [000014 010764 000003 000000 000000 177712 177710 004300] [013646 000014]
[pid 12] read(3, 013646, 12) = "_spl7\x00\x00\x00\"\x00\xdc#"
004300 020027  cmp 000014 010764 000003 000000 000000 177712 177710   NZVC1 0000
# 004300 cmp r0, #14 (nextPC=004304)
[pid 12] TRAP
[pid 12] trap 004274 read(3, 013646, 12) [000003 010764 000003 000000 000000 177712 177710 004300] [013646 000014]
[pid 12] trap DONE 004274 read(3, 013646, 12) [000014 010764 000003 000000 000000 177712 177710 004300] [013646 000014]
[pid 12] read(3, 013646, 12) = "_copyseg\"\x00\xe0#"
004300 020027  cmp 000014 010764 000003 000000 000000 177712 177710   NZVC1 0000
# 004300 cmp r0, #14 (nextPC=004304)
[pid 12] TRAP
[pid 12] trap 004274 read(3, 013646, 12) [000003 010764 000003 000000 000000 177712 177710 004300] [013646 000014]
[pid 12] trap DONE 004274 read(3, 013646, 12) [000014 010764 000003 000000 000000 177712 177710 004300] [013646 000014]
[pid 12] read(3, 013646, 12) = "_clearse\"\x00\x10$"
004300 020027  cmp 000014 010764 000003 000000 000000 177712 177710   NZVC1 0000
# 004300 cmp r0, #14 (nextPC=004304)
[pid 12] TRAP
[pid 12] trap 004274 read(3, 013646, 12) [000003 010764 000003 000000 000000 177712 177710 004300] [013646 000014]
[pid 12] trap DONE 004274 read(3, 013646, 12) [000014 010764 000003 000000 000000 177712 177710 004300] [013646 000014]
[pid 12] read(3, 013646, 12) = "_dpadd\x00\x00\"\x002$"
004300 020027  cmp 000014 010764 000003 000000 000000 177712 177710   NZVC1 0000
# 004300 cmp r0, #14 (nextPC=004304)
[pid 12] TRAP
[pid 12] trap 004274 read(3, 013646, 12) [000003 010764 000003 000000 000000 177712 177710 004300] [013646 000014]
[pid 12] trap DONE 004274 read(3, 013646, 12) [000014 010764 000003 000000 000000 177712 177710 004300] [013646 000014]
[pid 12] read(3, 013646, 12) = "_dpcmp\x00\x00\"\x00@$"
004300 020027  cmp 000014 010764 000003 000000 000000 177712 177710   NZVC1 0000
# 004300 cmp r0, #14 (nextPC=004304)
[pid 12] TRAP
[pid 12] trap 004274 read(3, 013646, 12) [000003 010764 000003 000000 000000 177712 177710 004300] [013646 000014]
[pid 12] trap DONE 004274 read(3, 013646, 12) [000014 010764 000003 000000 000000 177712 177710 004300] [013646 000014]
[pid 12] read(3, 013646, 12) = "_ldiv\x00\x00\x00\"\x00v$"
004300 020027  cmp 000014 010764 000003 000000 000000 177712 177710   NZVC1 0000
# 004300 cmp r0, #14 (nextPC=004304)
[pid 12] TRAP
[pid 12] trap 004274 read(3, 013646, 12) [000003 010764 000003 000000 000000 177712 177710 004300] [013646 000014]
[pid 12] trap DONE 004274 read(3, 013646, 12) [000014 010764 000003 000000 000000 177712 177710 004300] [013646 000014]
[pid 12] read(3, 013646, 12) = "_lrem\x00\x00\x00\"\x00\x82$"
004300 020027  cmp 000014 010764 000003 000000 000000 177712 177710   NZVC1 0000
# 004300 cmp r0, #14 (nextPC=004304)
[pid 12] TRAP
[pid 12] trap 004274 read(3, 013646, 12) [000003 010764 000003 000000 000000 177712 177710 004300] [013646 000014]
[pid 12] trap DONE 004274 read(3, 013646, 12) [000014 010764 000003 000000 000000 177712 177710 004300] [013646 000014]
[pid 12] read(3, 013646, 12) = "_lshift\x00\"\x00\x90$"
004300 020027  cmp 000014 010764 000003 000000 000000 177712 177710   NZVC1 0000
# 004300 cmp r0, #14 (nextPC=004304)
[pid 12] TRAP
[pid 12] trap 004274 read(3, 013646, 12) [000003 010764 000003 000000 000000 177712 177710 004300] [013646 000014]
[pid 12] trap DONE 004274 read(3, 013646, 12) [000014 010764 000003 000000 000000 177712 177710 004300] [013646 000014]
[pid 12] read(3, 013646, 12) = "csv\x00\x00\x00\x00\x00\"\x00\xa0$"
004300 020027  cmp 000014 010764 000003 000000 000000 177712 177710   NZVC1 0000
# 004300 cmp r0, #14 (nextPC=004304)
[pid 12] TRAP
[pid 12] trap 004274 read(3, 013646, 12) [000003 010764 000003 000000 000000 177712 177710 004300] [013646 000014]
[pid 12] trap DONE 004274 read(3, 013646, 12) [000014 010764 000003 000000 000000 177712 177710 004300] [013646 000014]
[pid 12] read(3, 013646, 12) = "cret\x00\x00\x00\x00\"\x00\xac$"
004300 020027  cmp 000014 010764 000003 000000 000000 177712 177710   NZVC1 0000
# 004300 cmp r0, #14 (nextPC=004304)
[pid 12] TRAP
[pid 12] trap 004274 read(3, 013646, 12) [000003 010764 000003 000000 000000 177712 177710 004300] [013646 000014]
[pid 12] trap DONE 004274 read(3, 013646, 12) [000014 010764 000003 000000 000000 177712 177710 004300] [013646 000014]
[pid 12] read(3, 013646, 12) = "_ka6\x00\x00\x00\x00#\x00 \x02"
004300 020027  cmp 000014 010764 000003 000000 000000 177712 177710   NZVC1 0000
# 004300 cmp r0, #14 (nextPC=004304)
[pid 12] TRAP
[pid 12] trap 004274 read(3, 013646, 12) [000003 010764 000003 000000 000000 177712 177710 004300] [013646 000014]
[pid 12] trap DONE 004274 read(3, 013646, 12) [000014 010764 000003 000000 000000 177712 177710 004300] [013646 000014]
[pid 12] read(3, 013646, 12) = "_bdevsw\x00#\x00&\x02"
004300 020027  cmp 000014 010764 000003 000000 000000 177712 177710   NZVC1 0000
# 004300 cmp r0, #14 (nextPC=004304)
[pid 12] TRAP
[pid 12] trap 004274 read(3, 013646, 12) [000003 010764 000003 000000 000000 177712 177710 004300] [013646 000014]
[pid 12] trap DONE 004274 read(3, 013646, 12) [000014 010764 000003 000000 000000 177712 177710 004300] [013646 000014]
[pid 12] read(3, 013646, 12) = "_nodev\x00\x00\"\x00\xee="
004300 020027  cmp 000014 010764 000003 000000 000000 177712 177710   NZVC1 0000
# 004300 cmp r0, #14 (nextPC=004304)
[pid 12] TRAP
[pid 12] trap 004274 read(3, 013646, 12) [000003 010764 000003 000000 000000 177712 177710 004300] [013646 000014]
[pid 12] trap DONE 004274 read(3, 013646, 12) [000014 010764 000003 000000 000000 177712 177710 004300] [013646 000014]
[pid 12] read(3, 013646, 12) = "_nulldev\"\x00\xfc="
004300 020027  cmp 000014 010764 000003 000000 000000 177712 177710   NZVC1 0000
# 004300 cmp r0, #14 (nextPC=004304)
[pid 12] TRAP
[pid 12] trap 004274 read(3, 013646, 12) [000003 010764 000003 000000 000000 177712 177710 004300] [013646 000014]
[pid 12] trap DONE 004274 read(3, 013646, 12) [000014 010764 000003 000000 000000 177712 177710 004300] [013646 000014]
[pid 12] read(3, 013646, 12) = "_hsstrat\"\x00\xd4y"
004300 020027  cmp 000014 010764 000003 000000 000000 177712 177710   NZVC1 0000
# 004300 cmp r0, #14 (nextPC=004304)
[pid 12] TRAP
[pid 12] trap 004274 read(3, 013646, 12) [000003 010764 000003 000000 000000 177712 177710 004300] [013646 000014]
[pid 12] trap DONE 004274 read(3, 013646, 12) [000014 010764 000003 000000 000000 177712 177710 004300] [013646 000014]
[pid 12] read(3, 013646, 12) = "_hstab\x00\x00$\x00$\a"
004300 020027  cmp 000014 010764 000003 000000 000000 177712 177710   NZVC1 0000
# 004300 cmp r0, #14 (nextPC=004304)
[pid 12] TRAP
[pid 12] trap 004274 read(3, 013646, 12) [000003 010764 000003 000000 000000 177712 177710 004300] [013646 000014]
[pid 12] trap DONE 004274 read(3, 013646, 12) [000014 010764 000003 000000 000000 177712 177710 004300] [013646 000014]
[pid 12] read(3, 013646, 12) = "_hpopen\x00\"\x00\xdes"
004300 020027  cmp 000014 010764 000003 000000 000000 177712 177710   NZVC1 0000
# 004300 cmp r0, #14 (nextPC=004304)
[pid 12] TRAP
[pid 12] trap 004274 read(3, 013646, 12) [000003 010764 000003 000000 000000 177712 177710 004300] [013646 000014]
[pid 12] trap DONE 004274 read(3, 013646, 12) [000014 010764 000003 000000 000000 177712 177710 004300] [013646 000014]
[pid 12] read(3, 013646, 12) = "_hpstrat\"\x00\bt"
004300 020027  cmp 000014 010764 000003 000000 000000 177712 177710   NZVC1 0000
# 004300 cmp r0, #14 (nextPC=004304)
[pid 12] TRAP
[pid 12] trap 004274 read(3, 013646, 12) [000003 010764 000003 000000 000000 177712 177710 004300] [013646 000014]
[pid 12] trap DONE 004274 read(3, 013646, 12) [000014 010764 000003 000000 000000 177712 177710 004300] [013646 000014]
[pid 12] read(3, 013646, 12) = "_hptab\x00\x00$\x00.\a"
004300 020027  cmp 000014 010764 000003 000000 000000 177712 177710   NZVC1 0000
# 004300 cmp r0, #14 (nextPC=004304)
[pid 12] TRAP
[pid 12] trap 004274 read(3, 013646, 12) [000003 010764 000003 000000 000000 177712 177710 004300] [013646 000014]
[pid 12] trap DONE 004274 read(3, 013646, 12) [000014 010764 000003 000000 000000 177712 177710 004300] [013646 000014]
[pid 12] read(3, 013646, 12) = "_htopen\x00\"\x00.v"
004300 020027  cmp 000014 010764 000003 000000 000000 177712 177710   NZVC1 0000
# 004300 cmp r0, #14 (nextPC=004304)
[pid 12] TRAP
[pid 12] trap 004274 read(3, 013646, 12) [000003 010764 000003 000000 000000 177712 177710 004300] [013646 000014]
[pid 12] trap DONE 004274 read(3, 013646, 12) [000014 010764 000003 000000 000000 177712 177710 004300] [013646 000014]
[pid 12] read(3, 013646, 12) = "_htclose\"\x00tv"
004300 020027  cmp 000014 010764 000003 000000 000000 177712 177710   NZVC1 0000
# 004300 cmp r0, #14 (nextPC=004304)
[pid 12] TRAP
[pid 12] trap 004274 read(3, 013646, 12) [000003 010764 000003 000000 000000 177712 177710 004300] [013646 000014]
[pid 12] trap DONE 004274 read(3, 013646, 12) [000014 010764 000003 000000 000000 177712 177710 004300] [013646 000014]
[pid 12] read(3, 013646, 12) = "_htstrat\"\x00Rw"
004300 020027  cmp 000014 010764 000003 000000 000000 177712 177710   NZVC1 0000
# 004300 cmp r0, #14 (nextPC=004304)
[pid 12] TRAP
[pid 12] trap 004274 read(3, 013646, 12) [000003 010764 000003 000000 000000 177712 177710 004300] [013646 000014]
[pid 12] trap DONE 004274 read(3, 013646, 12) [000014 010764 000003 000000 000000 177712 177710 004300] [013646 000014]
[pid 12] read(3, 013646, 12) = "_httab\x00\x00$\x008\a"
004300 020027  cmp 000014 010764 000003 000000 000000 177712 177710   NZVC1 0000
# 004300 cmp r0, #14 (nextPC=004304)
[pid 12] TRAP
[pid 12] trap 004274 read(3, 013646, 12) [000003 010764 000003 000000 000000 177712 177710 004300] [013646 000014]
[pid 12] trap DONE 004274 read(3, 013646, 12) [000014 010764 000003 000000 000000 177712 177710 004300] [013646 000014]
[pid 12] read(3, 013646, 12) = "_cdevsw\x00#\x00h\x02"
004300 020027  cmp 000014 010764 000003 000000 000000 177712 177710   NZVC1 0000
# 004300 cmp r0, #14 (nextPC=004304)
[pid 12] TRAP
[pid 12] trap 004274 read(3, 013646, 12) [000003 010764 000003 000000 000000 177712 177710 004300] [013646 000014]
[pid 12] trap DONE 004274 read(3, 013646, 12) [000014 010764 000003 000000 000000 177712 177710 004300] [013646 000014]
[pid 12] read(3, 013646, 12) = "_klopen\x00\"\x008q"
004300 020027  cmp 000014 010764 000003 000000 000000 177712 177710   NZVC1 0000
# 004300 cmp r0, #14 (nextPC=004304)
[pid 12] TRAP
[pid 12] trap 004274 read(3, 013646, 12) [000003 010764 000003 000000 000000 177712 177710 004300] [013646 000014]
[pid 12] trap DONE 004274 read(3, 013646, 12) [000014 010764 000003 000000 000000 177712 177710 004300] [013646 000014]
[pid 12] read(3, 013646, 12) = "_klclose\"\x00\xc0q"
004300 020027  cmp 000014 010764 000003 000000 000000 177712 177710   NZVC1 0000
# 004300 cmp r0, #14 (nextPC=004304)
[pid 12] TRAP
[pid 12] trap 004274 read(3, 013646, 12) [000003 010764 000003 000000 000000 177712 177710 004300] [013646 000014]
[pid 12] trap DONE 004274 read(3, 013646, 12) [000014 010764 000003 000000 000000 177712 177710 004300] [013646 000014]
[pid 12] read(3, 013646, 12) = "_klread\x00\"\x00\xdeq"
004300 020027  cmp 000014 010764 000003 000000 000000 177712 177710   NZVC1 0000
# 004300 cmp r0, #14 (nextPC=004304)
[pid 12] TRAP
[pid 12] trap 004274 read(3, 013646, 12) [000003 010764 000003 000000 000000 177712 177710 004300] [013646 000014]
[pid 12] trap DONE 004274 read(3, 013646, 12) [000014 010764 000003 000000 000000 177712 177710 004300] [013646 000014]
[pid 12] read(3, 013646, 12) = "_klwrite\"\x00\xf8q"
004300 020027  cmp 000014 010764 000003 000000 000000 177712 177710   NZVC1 0000
# 004300 cmp r0, #14 (nextPC=004304)
[pid 12] TRAP
[pid 12] trap 004274 read(3, 013646, 12) [000003 010764 000003 000000 000000 177712 177710 004300] [013646 000014]
[pid 12] trap DONE 004274 read(3, 013646, 12) [000014 010764 000003 000000 000000 177712 177710 004300] [013646 000014]
[pid 12] read(3, 013646, 12) = "_klsgtty\"\x00xr"
004300 020027  cmp 000014 010764 000003 000000 000000 177712 177710   NZVC1 0000
# 004300 cmp r0, #14 (nextPC=004304)
[pid 12] TRAP
[pid 12] trap 004274 read(3, 013646, 12) [000003 010764 000003 000000 000000 177712 177710 004300] [013646 000014]
[pid 12] trap DONE 004274 read(3, 013646, 12) [000014 010764 000003 000000 000000 177712 177710 004300] [013646 000014]
[pid 12] read(3, 013646, 12) = "_mmread\x00\"\x00\x98r"
004300 020027  cmp 000014 010764 000003 000000 000000 177712 177710   NZVC1 0000
# 004300 cmp r0, #14 (nextPC=004304)
[pid 12] TRAP
[pid 12] trap 004274 read(3, 013646, 12) [000003 010764 000003 000000 000000 177712 177710 004300] [013646 000014]
[pid 12] trap DONE 004274 read(3, 013646, 12) [000014 010764 000003 000000 000000 177712 177710 004300] [013646 000014]
[pid 12] read(3, 013646, 12) = "_mmwrite\"\x00.s"
004300 020027  cmp 000014 010764 000003 000000 000000 177712 177710   NZVC1 0000
# 004300 cmp r0, #14 (nextPC=004304)
[pid 12] TRAP
[pid 12] trap 004274 read(3, 013646, 12) [000003 010764 000003 000000 000000 177712 177710 004300] [013646 000014]
[pid 12] trap DONE 004274 read(3, 013646, 12) [000014 010764 000003 000000 000000 177712 177710 004300] [013646 000014]
[pid 12] read(3, 013646, 12) = "_hsread\x00\"\x00\xcaz"
004300 020027  cmp 000014 010764 000003 000000 000000 177712 177710   NZVC1 0000
# 004300 cmp r0, #14 (nextPC=004304)
[pid 12] TRAP
[pid 12] trap 004274 read(3, 013646, 12) [000003 010764 000003 000000 000000 177712 177710 004300] [013646 000014]
[pid 12] trap DONE 004274 read(3, 013646, 12) [000014 010764 000003 000000 000000 177712 177710 004300] [013646 000014]
[pid 12] read(3, 013646, 12) = "_hswrite\"\x00\xeaz"
004300 020027  cmp 000014 010764 000003 000000 000000 177712 177710   NZVC1 0000
# 004300 cmp r0, #14 (nextPC=004304)
[pid 12] TRAP
[pid 12] trap 004274 read(3, 013646, 12) [000003 010764 000003 000000 000000 177712 177710 004300] [013646 000014]
[pid 12] trap DONE 004274 read(3, 013646, 12) [000014 010764 000003 000000 000000 177712 177710 004300] [013646 000014]
[pid 12] read(3, 013646, 12) = "_hpread\x00\"\x00\x8cu"
004300 020027  cmp 000014 010764 000003 000000 000000 177712 177710   NZVC1 0000
# 004300 cmp r0, #14 (nextPC=004304)
[pid 12] TRAP
[pid 12] trap 004274 read(3, 013646, 12) [000003 010764 000003 000000 000000 177712 177710 004300] [013646 000014]
[pid 12] trap DONE 004274 read(3, 013646, 12) [000014 010764 000003 000000 000000 177712 177710 004300] [013646 000014]
[pid 12] read(3, 013646, 12) = "_hpwrite\"\x00\xb8u"
004300 020027  cmp 000014 010764 000003 000000 000000 177712 177710   NZVC1 0000
# 004300 cmp r0, #14 (nextPC=004304)
[pid 12] TRAP
[pid 12] trap 004274 read(3, 013646, 12) [000003 010764 000003 000000 000000 177712 177710 004300] [013646 000014]
[pid 12] trap DONE 004274 read(3, 013646, 12) [000014 010764 000003 000000 000000 177712 177710 004300] [013646 000014]
[pid 12] read(3, 013646, 12) = "_htread\x00\"\x00Jy"
004300 020027  cmp 000014 010764 000003 000000 000000 177712 177710   NZVC1 0000
# 004300 cmp r0, #14 (nextPC=004304)
[pid 12] TRAP
[pid 12] trap 004274 read(3, 013646, 12) [000003 010764 000003 000000 000000 177712 177710 004300] [013646 000014]
[pid 12] trap DONE 004274 read(3, 013646, 12) [000014 010764 000003 000000 000000 177712 177710 004300] [013646 000014]
[pid 12] read(3, 013646, 12) = "_htwrite\"\x00|y"
004300 020027  cmp 000014 010764 000003 000000 000000 177712 177710   NZVC1 0000
# 004300 cmp r0, #14 (nextPC=004304)
[pid 12] TRAP
[pid 12] trap 004274 read(3, 013646, 12) [000003 010764 000003 000000 000000 177712 177710 004300] [013646 000014]
[pid 12] trap DONE 004274 read(3, 013646, 12) [000014 010764 000003 000000 000000 177712 177710 004300] [013646 000014]
[pid 12] read(3, 013646, 12) = "_rootdev#\x00\n\x03"
004300 020027  cmp 000014 010764 000003 000000 000000 177712 177710   NZVC1 0000
# 004300 cmp r0, #14 (nextPC=004304)
[pid 12] TRAP
[pid 12] trap 004274 read(3, 013646, 12) [000003 010764 000003 000000 000000 177712 177710 004300] [013646 000014]
[pid 12] trap DONE 004274 read(3, 013646, 12) [000014 010764 000003 000000 000000 177712 177710 004300] [013646 000014]
[pid 12] read(3, 013646, 12) = "_swapdev#\x00\f\x03"
004300 020027  cmp 000014 010764 000003 000000 000000 177712 177710   NZVC1 0000
# 004300 cmp r0, #14 (nextPC=004304)
[pid 12] TRAP
[pid 12] trap 004274 read(3, 013646, 12) [000003 010764 000003 000000 000000 177712 177710 004300] [013646 000014]
[pid 12] trap DONE 004274 read(3, 013646, 12) [000014 010764 000003 000000 000000 177712 177710 004300] [013646 000014]
[pid 12] read(3, 013646, 12) = "_swplo\x00\x00#\x00\x0e\x03"
004300 020027  cmp 000014 010764 000003 000000 000000 177712 177710   NZVC1 0000
# 004300 cmp r0, #14 (nextPC=004304)
[pid 12] TRAP
[pid 12] trap 004274 read(3, 013646, 12) [000003 010764 000003 000000 000000 177712 177710 004300] [013646 000014]
[pid 12] trap DONE 004274 read(3, 013646, 12) [000014 010764 000003 000000 000000 177712 177710 004300] [013646 000014]
[pid 12] read(3, 013646, 12) = "_nswap\x00\x00#\x00\x10\x03"
004300 020027  cmp 000014 010764 000003 000000 000000 177712 177710   NZVC1 0000
# 004300 cmp r0, #14 (nextPC=004304)
[pid 12] TRAP
[pid 12] trap 004274 read(3, 013646, 12) [000003 010764 000003 000000 000000 177712 177710 004300] [013646 000014]
[pid 12] trap DONE 004274 read(3, 013646, 12) [000014 010764 000003 000000 000000 177712 177710 004300] [013646 000014]
[pid 12] read(3, 013646, 12) = "_canonb\x00$\x00B\a"
004300 020027  cmp 000014 010764 000003 000000 000000 177712 177710   NZVC1 0000
# 004300 cmp r0, #14 (nextPC=004304)
[pid 12] TRAP
[pid 12] trap 004274 read(3, 013646, 12) [000003 010764 000003 000000 000000 177712 177710 004300] [013646 000014]
[pid 12] trap DONE 004274 read(3, 013646, 12) [000014 010764 000003 000000 000000 177712 177710 004300] [013646 000014]
[pid 12] read(3, 013646, 12) = "_coremap$\x00B\b"
004300 020027  cmp 000014 010764 000003 000000 000000 177712 177710   NZVC1 0000
# 004300 cmp r0, #14 (nextPC=004304)
[pid 12] TRAP
[pid 12] trap 004274 read(3, 013646, 12) [000003 010764 000003 000000 000000 177712 177710 004300] [013646 000014]
[pid 12] trap DONE 004274 read(3, 013646, 12) [000014 010764 000003 000000 000000 177712 177710 004300] [013646 000014]
[pid 12] read(3, 013646, 12) = "_swapmap$\x00\n\t"
004300 020027  cmp 000014 010764 000003 000000 000000 177712 177710   NZVC1 0000
# 004300 cmp r0, #14 (nextPC=004304)
[pid 12] TRAP
[pid 12] trap 004274 read(3, 013646, 12) [000003 010764 000003 000000 000000 177712 177710 004300] [013646 000014]
[pid 12] trap DONE 004274 read(3, 013646, 12) [000014 010764 000003 000000 000000 177712 177710 004300] [013646 000014]
[pid 12] read(3, 013646, 12) = "_rootdir$\x00\xd2\t"
004300 020027  cmp 000014 010764 000003 000000 000000 177712 177710   NZVC1 0000
# 004300 cmp r0, #14 (nextPC=004304)
[pid 12] TRAP
[pid 12] trap 004274 read(3, 013646, 12) [000003 010764 000003 000000 000000 177712 177710 004300] [013646 000014]
[pid 12] trap DONE 004274 read(3, 013646, 12) [000014 010764 000003 000000 000000 177712 177710 004300] [013646 000014]
[pid 12] read(3, 013646, 12) = "_execnt\x00$\x00\xd4\t"
004300 020027  cmp 000014 010764 000003 000000 000000 177712 177710   NZVC1 0000
# 004300 cmp r0, #14 (nextPC=004304)
[pid 12] TRAP
[pid 12] trap 004274 read(3, 013646, 12) [000003 010764 000003 000000 000000 177712 177710 004300] [013646 000014]
[pid 12] trap DONE 004274 read(3, 013646, 12) [000014 010764 000003 000000 000000 177712 177710 004300] [013646 000014]
[pid 12] read(3, 013646, 12) = "_lbolt\x00\x00$\x00\xd6\t"
004300 020027  cmp 000014 010764 000003 000000 000000 177712 177710   NZVC1 0000
# 004300 cmp r0, #14 (nextPC=004304)
[pid 12] TRAP
[pid 12] trap 004274 read(3, 013646, 12) [000003 010764 000003 000000 000000 177712 177710 004300] [013646 000014]
[pid 12] trap DONE 004274 read(3, 013646, 12) [000014 010764 000003 000000 000000 177712 177710 004300] [013646 000014]
[pid 12] read(3, 013646, 12) = "_time\x00\x00\x00$\x00\xd8\t"
004300 020027  cmp 000014 010764 000003 000000 000000 177712 177710   NZVC1 0000
# 004300 cmp r0, #14 (nextPC=004304)
[pid 12] TRAP
[pid 12] trap 004274 read(3, 013646, 12) [000003 010764 000003 000000 000000 177712 177710 004300] [013646 000014]
[pid 12] trap DONE 004274 read(3, 013646, 12) [000014 010764 000003 000000 000000 177712 177710 004300] [013646 000014]
[pid 12] read(3, 013646, 12) = "_tout\x00\x00\x00$\x00\xdc\t"
004300 020027  cmp 000014 010764 000003 000000 000000 177712 177710   NZVC1 0000
# 004300 cmp r0, #14 (nextPC=004304)
[pid 12] TRAP
[pid 12] trap 004274 read(3, 013646, 12) [000003 010764 000003 000000 000000 177712 177710 004300] [013646 000014]
[pid 12] trap DONE 004274 read(3, 013646, 12) [000014 010764 000003 000000 000000 177712 177710 004300] [013646 000014]
[pid 12] read(3, 013646, 12) = "_callout$\x00\xe0\t"
004300 020027  cmp 000014 010764 000003 000000 000000 177712 177710   NZVC1 0000
# 004300 cmp r0, #14 (nextPC=004304)
[pid 12] TRAP
[pid 12] trap 004274 read(3, 013646, 12) [000003 010764 000003 000000 000000 177712 177710 004300] [013646 000014]
[pid 12] trap DONE 004274 read(3, 013646, 12) [000014 010764 000003 000000 000000 177712 177710 004300] [013646 000014]
[pid 12] read(3, 013646, 12) = "_mount\x00\x00$\x00X\n"
004300 020027  cmp 000014 010764 000003 000000 000000 177712 177710   NZVC1 0000
# 004300 cmp r0, #14 (nextPC=004304)
[pid 12] TRAP
[pid 12] trap 004274 read(3, 013646, 12) [000003 010764 000003 000000 000000 177712 177710 004300] [013646 000014]
[pid 12] trap DONE 004274 read(3, 013646, 12) [000014 010764 000003 000000 000000 177712 177710 004300] [013646 000014]
[pid 12] read(3, 013646, 12) = "_mpid\x00\x00\x00$\x00v\n"
004300 020027  cmp 000014 010764 000003 000000 000000 177712 177710   NZVC1 0000
# 004300 cmp r0, #14 (nextPC=004304)
[pid 12] TRAP
[pid 12] trap 004274 read(3, 013646, 12) [000003 010764 000003 000000 000000 177712 177710 004300] [013646 000014]
[pid 12] trap DONE 004274 read(3, 013646, 12) [000014 010764 000003 000000 000000 177712 177710 004300] [013646 000014]
[pid 12] read(3, 013646, 12) = "_runin\x00\x00$\x00x\n"
004300 020027  cmp 000014 010764 000003 000000 000000 177712 177710   NZVC1 0000
# 004300 cmp r0, #14 (nextPC=004304)
[pid 12] TRAP
[pid 12] trap 004274 read(3, 013646, 12) [000003 010764 000003 000000 000000 177712 177710 004300] [013646 000014]
[pid 12] trap DONE 004274 read(3, 013646, 12) [000014 010764 000003 000000 000000 177712 177710 004300] [013646 000014]
[pid 12] read(3, 013646, 12) = "_runout\x00$\x00z\n"
004300 020027  cmp 000014 010764 000003 000000 000000 177712 177710   NZVC1 0000
# 004300 cmp r0, #14 (nextPC=004304)
[pid 12] TRAP
[pid 12] trap 004274 read(3, 013646, 12) [000003 010764 000003 000000 000000 177712 177710 004300] [013646 000014]
[pid 12] trap DONE 004274 read(3, 013646, 12) [000014 010764 000003 000000 000000 177712 177710 004300] [013646 000014]
[pid 12] read(3, 013646, 12) = "_curpri\x00$\x00|\n"
004300 020027  cmp 000014 010764 000003 000000 000000 177712 177710   NZVC1 0000
# 004300 cmp r0, #14 (nextPC=004304)
[pid 12] TRAP
[pid 12] trap 004274 read(3, 013646, 12) [000003 010764 000003 000000 000000 177712 177710 004300] [013646 000014]
[pid 12] trap DONE 004274 read(3, 013646, 12) [000014 010764 000003 000000 000000 177712 177710 004300] [013646 000014]
[pid 12] read(3, 013646, 12) = "_maxmem\x00$\x00~\n"
004300 020027  cmp 000014 010764 000003 000000 000000 177712 177710   NZVC1 0000
# 004300 cmp r0, #14 (nextPC=004304)
[pid 12] TRAP
[pid 12] trap 004274 read(3, 013646, 12) [000003 010764 000003 000000 000000 177712 177710 004300] [013646 000014]
[pid 12] trap DONE 004274 read(3, 013646, 12) [000014 010764 000003 000000 000000 177712 177710 004300] [013646 000014]
[pid 12] read(3, 013646, 12) = "_lks\x00\x00\x00\x00$\x00\x80\n"
004300 020027  cmp 000014 010764 000003 000000 000000 177712 177710   NZVC1 0000
# 004300 cmp r0, #14 (nextPC=004304)
[pid 12] TRAP
[pid 12] trap 004274 read(3, 013646, 12) [000003 010764 000003 000000 000000 177712 177710 004300] [013646 000014]
[pid 12] trap DONE 004274 read(3, 013646, 12) [000014 010764 000003 000000 000000 177712 177710 004300] [013646 000014]
[pid 12] read(3, 013646, 12) = "_updlock$\x00\x82\n"
004300 020027  cmp 000014 010764 000003 000000 000000 177712 177710   NZVC1 0000
# 004300 cmp r0, #14 (nextPC=004304)
[pid 12] TRAP
[pid 12] trap 004274 read(3, 013646, 12) [000003 010764 000003 000000 000000 177712 177710 004300] [013646 000014]
[pid 12] trap DONE 004274 read(3, 013646, 12) [000014 010764 000003 000000 000000 177712 177710 004300] [013646 000014]
[pid 12] read(3, 013646, 12) = "_rablock$\x00\x84\n"
004300 020027  cmp 000014 010764 000003 000000 000000 177712 177710   NZVC1 0000
# 004300 cmp r0, #14 (nextPC=004304)
[pid 12] TRAP
[pid 12] trap 004274 read(3, 013646, 12) [000003 010764 000003 000000 000000 177712 177710 004300] [013646 000014]
[pid 12] trap DONE 004274 read(3, 013646, 12) [000014 010764 000003 000000 000000 177712 177710 004300] [013646 000014]
[pid 12] read(3, 013646, 12) = "_proc\x00\x00\x00$\x00\x86\n"
004300 020027  cmp 000014 010764 000003 000000 000000 177712 177710   NZVC1 0000
# 004300 cmp r0, #14 (nextPC=004304)
[pid 12] TRAP
[pid 12] trap 004274 read(3, 013646, 12) [000003 010764 000003 000000 000000 177712 177710 004300] [013646 000014]
[pid 12] trap DONE 004274 read(3, 013646, 12) [000014 010764 000003 000000 000000 177712 177710 004300] [013646 000014]
[pid 12] read(3, 013646, 12) = "_text\x00\x00\x00$\x00\xd2\x0e"
004300 020027  cmp 000014 010764 000003 000000 000000 177712 177710   NZVC1 0000
# 004300 cmp r0, #14 (nextPC=004304)
[pid 12] TRAP
[pid 12] trap 004274 read(3, 013646, 12) [000003 010764 000003 000000 000000 177712 177710 004300] [013646 000014]
[pid 12] trap DONE 004274 read(3, 013646, 12) [000014 010764 000003 000000 000000 177712 177710 004300] [013646 000014]
[pid 12] read(3, 013646, 12) = "_inode\x00\x00$\x00b\x10"
004300 020027  cmp 000014 010764 000003 000000 000000 177712 177710   NZVC1 0000
# 004300 cmp r0, #14 (nextPC=004304)
[pid 12] TRAP
[pid 12] trap 004274 read(3, 013646, 12) [000003 010764 000003 000000 000000 177712 177710 004300] [013646 000014]
[pid 12] trap DONE 004274 read(3, 013646, 12) [000014 010764 000003 000000 000000 177712 177710 004300] [013646 000014]
[pid 12] read(3, 013646, 12) = "_icode\x00\x00#\x00\x12\x03"
004300 020027  cmp 000014 010764 000003 000000 000000 177712 177710   NZVC1 0000
# 004300 cmp r0, #14 (nextPC=004304)
[pid 12] TRAP
[pid 12] trap 004274 read(3, 013646, 12) [000003 010764 000003 000000 000000 177712 177710 004300] [013646 000014]
[pid 12] trap DONE 004274 read(3, 013646, 12) [000014 010764 000003 000000 000000 177712 177710 004300] [013646 000014]
[pid 12] read(3, 013646, 12) = "_mfree\x00\x00\"\x00\x88L"
004300 020027  cmp 000014 010764 000003 000000 000000 177712 177710   NZVC1 0000
# 004300 cmp r0, #14 (nextPC=004304)
[pid 12] TRAP
[pid 12] trap 004274 read(3, 013646, 12) [000003 010764 000003 000000 000000 177712 177710 004300] [013646 000014]
[pid 12] trap DONE 004274 read(3, 013646, 12) [000014 010764 000003 000000 000000 177712 177710 004300] [013646 000014]
[pid 12] read(3, 013646, 12) = "_printf\x00\"\x00\f1"
004300 020027  cmp 000014 010764 000003 000000 000000 177712 177710   NZVC1 0000
# 004300 cmp r0, #14 (nextPC=004304)
[pid 12] TRAP
[pid 12] trap 004274 read(3, 013646, 12) [000003 010764 000003 000000 000000 177712 177710 004300] [013646 000014]
[pid 12] trap DONE 004274 read(3, 013646, 12) [000014 010764 000003 000000 000000 177712 177710 004300] [013646 000014]
[pid 12] read(3, 013646, 12) = "_min\x00\x00\x00\x00\"\x00\x1c5"
004300 020027  cmp 000014 010764 000003 000000 000000 177712 177710   NZVC1 0000
# 004300 cmp r0, #14 (nextPC=004304)
[pid 12] TRAP
[pid 12] trap 004274 read(3, 013646, 12) [000003 010764 000003 000000 000000 177712 177710 004300] [013646 000014]
[pid 12] trap DONE 004274 read(3, 013646, 12) [000014 010764 000003 000000 000000 177712 177710 004300] [013646 000014]
[pid 12] read(3, 013646, 12) = "_panic\x00\x00\"\x00\x122"
004300 020027  cmp 000014 010764 000003 000000 000000 177712 177710   NZVC1 0000
# 004300 cmp r0, #14 (nextPC=004304)
[pid 12] TRAP
[pid 12] trap 004274 read(3, 013646, 12) [000003 010764 000003 000000 000000 177712 177710 004300] [013646 000014]
[pid 12] trap DONE 004274 read(3, 013646, 12) [000014 010764 000003 000000 000000 177712 177710 004300] [013646 000014]
[pid 12] read(3, 013646, 12) = "_cinit\x00\x00\"\x00\fl"
004300 020027  cmp 000014 010764 000003 000000 000000 177712 177710   NZVC1 0000
# 004300 cmp r0, #14 (nextPC=004304)
[pid 12] TRAP
[pid 12] trap 004274 read(3, 013646, 12) [000003 010764 000003 000000 000000 177712 177710 004300] [013646 000014]
[pid 12] trap DONE 004274 read(3, 013646, 12) [000014 010764 000003 000000 000000 177712 177710 004300] [013646 000014]
[pid 12] read(3, 013646, 12) = "_binit\x00\x00\"\x00\xa4f"
004300 020027  cmp 000014 010764 000003 000000 000000 177712 177710   NZVC1 0000
# 004300 cmp r0, #14 (nextPC=004304)
[pid 12] TRAP
[pid 12] trap 004274 read(3, 013646, 12) [000003 010764 000003 000000 000000 177712 177710 004300] [013646 000014]
[pid 12] trap DONE 004274 read(3, 013646, 12) [000014 010764 000003 000000 000000 177712 177710 004300] [013646 000014]
[pid 12] read(3, 013646, 12) = "_iinit\x00\x00\"\x00d("
004300 020027  cmp 000014 010764 000003 000000 000000 177712 177710   NZVC1 0000
# 004300 cmp r0, #14 (nextPC=004304)
[pid 12] TRAP
[pid 12] trap 004274 read(3, 013646, 12) [000003 010764 000003 000000 000000 177712 177710 004300] [013646 000014]
[pid 12] trap DONE 004274 read(3, 013646, 12) [000014 010764 000003 000000 000000 177712 177710 004300] [013646 000014]
[pid 12] read(3, 013646, 12) = "_iget\x00\x00\x00\"\x00X-"
004300 020027  cmp 000014 010764 000003 000000 000000 177712 177710   NZVC1 0000
# 004300 cmp r0, #14 (nextPC=004304)
[pid 12] TRAP
[pid 12] trap 004274 read(3, 013646, 12) [000003 010764 000003 000000 000000 177712 177710 004300] [013646 000014]
[pid 12] trap DONE 004274 read(3, 013646, 12) [000014 010764 000003 000000 000000 177712 177710 004300] [013646 000014]
[pid 12] read(3, 013646, 12) = "_newproc\"\x00@9"
004300 020027  cmp 000014 010764 000003 000000 000000 177712 177710   NZVC1 0000
# 004300 cmp r0, #14 (nextPC=004304)
[pid 12] TRAP
[pid 12] trap 004274 read(3, 013646, 12) [000003 010764 000003 000000 000000 177712 177710 004300] [013646 000014]
[pid 12] trap DONE 004274 read(3, 013646, 12) [000014 010764 000003 000000 000000 177712 177710 004300] [013646 000014]
[pid 12] read(3, 013646, 12) = "_expand\x00\"\x00v:"
004300 020027  cmp 000014 010764 000003 000000 000000 177712 177710   NZVC1 0000
# 004300 cmp r0, #14 (nextPC=004304)
[pid 12] TRAP
[pid 12] trap 004274 read(3, 013646, 12) [000003 010764 000003 000000 000000 177712 177710 004300] [013646 000014]
[pid 12] trap DONE 004274 read(3, 013646, 12) [000014 010764 000003 000000 000000 177712 177710 004300] [013646 000014]
[pid 12] read(3, 013646, 12) = "_estabur\"\x00\xae&"
004300 020027  cmp 000014 010764 000003 000000 000000 177712 177710   NZVC1 0000
# 004300 cmp r0, #14 (nextPC=004304)
[pid 12] TRAP
[pid 12] trap 004274 read(3, 013646, 12) [000003 010764 000003 000000 000000 177712 177710 004300] [013646 000014]
[pid 12] trap DONE 004274 read(3, 013646, 12) [000014 010764 000003 000000 000000 177712 177710 004300] [013646 000014]
[pid 12] read(3, 013646, 12) = "_sched\x00\x00\"\x00\xee6"
004300 020027  cmp 000014 010764 000003 000000 000000 177712 177710   NZVC1 0000
# 004300 cmp r0, #14 (nextPC=004304)
[pid 12] TRAP
[pid 12] trap 004274 read(3, 013646, 12) [000003 010764 000003 000000 000000 177712 177710 004300] [013646 000014]
[pid 12] trap DONE 004274 read(3, 013646, 12) [000014 010764 000003 000000 000000 177712 177710 004300] [013646 000014]
[pid 12] read(3, 013646, 12) = "_sureg\x00\x00\"\x00>&"
004300 020027  cmp 000014 010764 000003 000000 000000 177712 177710   NZVC1 0000
# 004300 cmp r0, #14 (nextPC=004304)
[pid 12] TRAP
[pid 12] trap 004274 read(3, 013646, 12) [000003 010764 000003 000000 000000 177712 177710 004300] [013646 000014]
[pid 12] trap DONE 004274 read(3, 013646, 12) [000014 010764 000003 000000 000000 177712 177710 004300] [013646 000014]
[pid 12] read(3, 013646, 12) = "_nseg\x00\x00\x00\"\x00P("
004300 020027  cmp 000014 010764 000003 000000 000000 177712 177710   NZVC1 0000
# 004300 cmp r0, #14 (nextPC=004304)
[pid 12] TRAP
[pid 12] trap 004274 read(3, 013646, 12) [000003 010764 000003 000000 000000 177712 177710 004300] [013646 000014]
[pid 12] trap DONE 004274 read(3, 013646, 12) [000014 010764 000003 000000 000000 177712 177710 004300] [013646 000014]
[pid 12] read(3, 013646, 12) = "_nblkdev$\x00\xe2\x1c"
004300 020027  cmp 000014 010764 000003 000000 000000 177712 177710   NZVC1 0000
# 004300 cmp r0, #14 (nextPC=004304)
[pid 12] TRAP
[pid 12] trap 004274 read(3, 013646, 12) [000003 010764 000003 000000 000000 177712 177710 004300] [013646 000014]
[pid 12] trap DONE 004274 read(3, 013646, 12) [000014 010764 000003 000000 000000 177712 177710 004300] [013646 000014]
[pid 12] read(3, 013646, 12) = "_nchrdev$\x00\xe4\x1c"
004300 020027  cmp 000014 010764 000003 000000 000000 177712 177710   NZVC1 0000
# 004300 cmp r0, #14 (nextPC=004304)
[pid 12] TRAP
[pid 12] trap 004274 read(3, 013646, 12) [000003 010764 000003 000000 000000 177712 177710 004300] [013646 000014]
[pid 12] trap DONE 004274 read(3, 013646, 12) [000014 010764 000003 000000 000000 177712 177710 004300] [013646 000014]
[pid 12] read(3, 013646, 12) = "_buf\x00\x00\x00\x00$\x00\xe6\x1c"
004300 020027  cmp 000014 010764 000003 000000 000000 177712 177710   NZVC1 0000
# 004300 cmp r0, #14 (nextPC=004304)
[pid 12] TRAP
[pid 12] trap 004274 read(3, 013646, 12) [000003 010764 000003 000000 000000 177712 177710 004300] [013646 000014]
[pid 12] trap DONE 004274 read(3, 013646, 12) [000014 010764 000003 000000 000000 177712 177710 004300] [013646 000014]
[pid 12] read(3, 013646, 12) = "_bfreeli$\x00N\x1e"
004300 020027  cmp 000014 010764 000003 000000 000000 177712 177710   NZVC1 0000
# 004300 cmp r0, #14 (nextPC=004304)
[pid 12] TRAP
[pid 12] trap 004274 read(3, 013646, 12) [000003 010764 000003 000000 000000 177712 177710 004300] [013646 000014]
[pid 12] trap DONE 004274 read(3, 013646, 12) [000014 010764 000003 000000 000000 177712 177710 004300] [013646 000014]
[pid 12] read(3, 013646, 12) = "_bread\x00\x00\"\x00\xdcb"
004300 020027  cmp 000014 010764 000003 000000 000000 177712 177710   NZVC1 0000
# 004300 cmp r0, #14 (nextPC=004304)
[pid 12] TRAP
[pid 12] trap 004274 read(3, 013646, 12) [000003 010764 000003 000000 000000 177712 177710 004300] [013646 000014]
[pid 12] trap DONE 004274 read(3, 013646, 12) [000014 010764 000003 000000 000000 177712 177710 004300] [013646 000014]
[pid 12] read(3, 013646, 12) = "_getblk\x00\"\x00\xfed"
004300 020027  cmp 000014 010764 000003 000000 000000 177712 177710   NZVC1 0000
# 004300 cmp r0, #14 (nextPC=004304)
[pid 12] TRAP
[pid 12] trap 004274 read(3, 013646, 12) [000003 010764 000003 000000 000000 177712 177710 004300] [013646 000014]
[pid 12] trap DONE 004274 read(3, 013646, 12) [000014 010764 000003 000000 000000 177712 177710 004300] [013646 000014]
[pid 12] read(3, 013646, 12) = "_bcopy\x00\x00\"\x00\x04>"
004300 020027  cmp 000014 010764 000003 000000 000000 177712 177710   NZVC1 0000
# 004300 cmp r0, #14 (nextPC=004304)
[pid 12] TRAP
[pid 12] trap 004274 read(3, 013646, 12) [000003 010764 000003 000000 000000 177712 177710 004300] [013646 000014]
[pid 12] trap DONE 004274 read(3, 013646, 12) [000014 010764 000003 000000 000000 177712 177710 004300] [013646 000014]
[pid 12] read(3, 013646, 12) = "_brelse\x00\"\x00dd"
004300 020027  cmp 000014 010764 000003 000000 000000 177712 177710   NZVC1 0000
# 004300 cmp r0, #14 (nextPC=004304)
[pid 12] TRAP
[pid 12] trap 004274 read(3, 013646, 12) [000003 010764 000003 000000 000000 177712 177710 004300] [013646 000014]
[pid 12] trap DONE 004274 read(3, 013646, 12) [000014 010764 000003 000000 000000 177712 177710 004300] [013646 000014]
[pid 12] read(3, 013646, 12) = "_alloc\x00\x00\"\x00\xe8("
004300 020027  cmp 000014 010764 000003 000000 000000 177712 177710   NZVC1 0000
# 004300 cmp r0, #14 (nextPC=004304)
[pid 12] TRAP
[pid 12] trap 004274 read(3, 013646, 12) [000003 010764 000003 000000 000000 177712 177710 004300] [013646 000014]
[pid 12] trap DONE 004274 read(3, 013646, 12) [000014 010764 000003 000000 000000 177712 177710 004300] [013646 000014]
[pid 12] read(3, 013646, 12) = "_getfs\x00\x00\"\x00H,"
004300 020027  cmp 000014 010764 000003 000000 000000 177712 177710   NZVC1 0000
# 004300 cmp r0, #14 (nextPC=004304)
[pid 12] TRAP
[pid 12] trap 004274 read(3, 013646, 12) [000003 010764 000003 000000 000000 177712 177710 004300] [013646 000014]
[pid 12] trap DONE 004274 read(3, 013646, 12) [000014 010764 000003 000000 000000 177712 177710 004300] [013646 000014]
[pid 12] read(3, 013646, 12) = "_sleep\x00\x00\"\x00\xd45"
004300 020027  cmp 000014 010764 000003 000000 000000 177712 177710   NZVC1 0000
# 004300 cmp r0, #14 (nextPC=004304)
[pid 12] TRAP
[pid 12] trap 004274 read(3, 013646, 12) [000003 010764 000003 000000 000000 177712 177710 004300] [013646 000014]
[pid 12] trap DONE 004274 read(3, 013646, 12) [000014 010764 000003 000000 000000 177712 177710 004300] [013646 000014]
[pid 12] read(3, 013646, 12) = "_badbloc\"\x00~*"
004300 020027  cmp 000014 010764 000003 000000 000000 177712 177710   NZVC1 0000
# 004300 cmp r0, #14 (nextPC=004304)
[pid 12] TRAP
[pid 12] trap 004274 read(3, 013646, 12) [000003 010764 000003 000000 000000 177712 177710 004300] [013646 000014]
[pid 12] trap DONE 004274 read(3, 013646, 12) [000014 010764 000003 000000 000000 177712 177710 004300] [013646 000014]
[pid 12] read(3, 013646, 12) = "_wakeup\x00\"\x00R6"
004300 020027  cmp 000014 010764 000003 000000 000000 177712 177710   NZVC1 0000
# 004300 cmp r0, #14 (nextPC=004304)
[pid 12] TRAP
[pid 12] trap 004274 read(3, 013646, 12) [000003 010764 000003 000000 000000 177712 177710 004300] [013646 000014]
[pid 12] trap DONE 004274 read(3, 013646, 12) [000014 010764 000003 000000 000000 177712 177710 004300] [013646 000014]
[pid 12] read(3, 013646, 12) = "_clrbuf\x00\"\x00\x8cf"
004300 020027  cmp 000014 010764 000003 000000 000000 177712 177710   NZVC1 0000
# 004300 cmp r0, #14 (nextPC=004304)
[pid 12] TRAP
[pid 12] trap 004274 read(3, 013646, 12) [000003 010764 000003 000000 000000 177712 177710 004300] [013646 000014]
[pid 12] trap DONE 004274 read(3, 013646, 12) [000014 010764 000003 000000 000000 177712 177710 004300] [013646 000014]
[pid 12] read(3, 013646, 12) = "_prdev\x00\x00\"\x0042"
004300 020027  cmp 000014 010764 000003 000000 000000 177712 177710   NZVC1 0000
# 004300 cmp r0, #14 (nextPC=004304)
[pid 12] TRAP
[pid 12] trap 004274 read(3, 013646, 12) [000003 010764 000003 000000 000000 177712 177710 004300] [013646 000014]
[pid 12] trap DONE 004274 read(3, 013646, 12) [000014 010764 000003 000000 000000 177712 177710 004300] [013646 000014]
[pid 12] read(3, 013646, 12) = "_free\x00\x00\x00\"\x00\xc4)"
004300 020027  cmp 000014 010764 000003 000000 000000 177712 177710   NZVC1 0000
# 004300 cmp r0, #14 (nextPC=004304)
[pid 12] TRAP
[pid 12] trap 004274 read(3, 013646, 12) [000003 010764 000003 000000 000000 177712 177710 004300] [013646 000014]
[pid 12] trap DONE 004274 read(3, 013646, 12) [000014 010764 000003 000000 000000 177712 177710 004300] [013646 000014]
[pid 12] read(3, 013646, 12) = "_bwrite\x00\"\x00\xd0c"
004300 020027  cmp 000014 010764 000003 000000 000000 177712 177710   NZVC1 0000
# 004300 cmp r0, #14 (nextPC=004304)
[pid 12] TRAP
[pid 12] trap 004274 read(3, 013646, 12) [000003 010764 000003 000000 000000 177712 177710 004300] [013646 000014]
[pid 12] trap DONE 004274 read(3, 013646, 12) [000014 010764 000003 000000 000000 177712 177710 004300] [013646 000014]
[pid 12] read(3, 013646, 12) = "_ialloc\x00\"\x00\xb4*"
004300 020027  cmp 000014 010764 000003 000000 000000 177712 177710   NZVC1 0000
# 004300 cmp r0, #14 (nextPC=004304)
[pid 12] TRAP
[pid 12] trap 004274 read(3, 013646, 12) [000003 010764 000003 000000 000000 177712 177710 004300] [013646 000014]
[pid 12] trap DONE 004274 read(3, 013646, 12) [000014 010764 000003 000000 000000 177712 177710 004300] [013646 000014]
[pid 12] read(3, 013646, 12) = "_iput\x00\x00\x00\"\x00\x84."
004300 020027  cmp 000014 010764 000003 000000 000000 177712 177710   NZVC1 0000
# 004300 cmp r0, #14 (nextPC=004304)
[pid 12] TRAP
[pid 12] trap 004274 read(3, 013646, 12) [000003 010764 000003 000000 000000 177712 177710 004300] [013646 000014]
[pid 12] trap DONE 004274 read(3, 013646, 12) [000014 010764 000003 000000 000000 177712 177710 004300] [013646 000014]
[pid 12] read(3, 013646, 12) = "_ifree\x00\x00\"\x00\x10,"
004300 020027  cmp 000014 010764 000003 000000 000000 177712 177710   NZVC1 0000
# 004300 cmp r0, #14 (nextPC=004304)
[pid 12] TRAP
[pid 12] trap 004274 read(3, 013646, 12) [000003 010764 000003 000000 000000 177712 177710 004300] [013646 000014]
[pid 12] trap DONE 004274 read(3, 013646, 12) [000014 010764 000003 000000 000000 177712 177710 004300] [013646 000014]
[pid 12] read(3, 013646, 12) = "_update\x00\"\x00\xa8,"
004300 020027  cmp 000014 010764 000003 000000 000000 177712 177710   NZVC1 0000
# 004300 cmp r0, #14 (nextPC=004304)
[pid 12] TRAP
[pid 12] trap 004274 read(3, 013646, 12) [000003 010764 000003 000000 000000 177712 177710 004300] [013646 000014]
[pid 12] trap DONE 004274 read(3, 013646, 12) [000014 010764 000003 000000 000000 177712 177710 004300] [013646 000014]
[pid 12] read(3, 013646, 12) = "_iupdat\x00\"\x00\xdc."
004300 020027  cmp 000014 010764 000003 000000 000000 177712 177710   NZVC1 0000
# 004300 cmp r0, #14 (nextPC=004304)
[pid 12] TRAP
[pid 12] trap 004274 read(3, 013646, 12) [000003 010764 000003 000000 000000 177712 177710 004300] [013646 000014]
[pid 12] trap DONE 004274 read(3, 013646, 12) [000014 010764 000003 000000 000000 177712 177710 004300] [013646 000014]
[pid 12] read(3, 013646, 12) = "_prele\x00\x00\"\x00`Q"
004300 020027  cmp 000014 010764 000003 000000 000000 177712 177710   NZVC1 0000
# 004300 cmp r0, #14 (nextPC=004304)
[pid 12] TRAP
[pid 12] trap 004274 read(3, 013646, 12) [000003 010764 000003 000000 000000 177712 177710 004300] [013646 000014]
[pid 12] trap DONE 004274 read(3, 013646, 12) [000014 010764 000003 000000 000000 177712 177710 004300] [013646 000014]
[pid 12] read(3, 013646, 12) = "_bflush\x00\"\x00\x1ei"
004300 020027  cmp 000014 010764 000003 000000 000000 177712 177710   NZVC1 0000
# 004300 cmp r0, #14 (nextPC=004304)
[pid 12] TRAP
[pid 12] trap 004274 read(3, 013646, 12) [000003 010764 000003 000000 000000 177712 177710 004300] [013646 000014]
[pid 12] trap DONE 004274 read(3, 013646, 12) [000014 010764 000003 000000 000000 177712 177710 004300] [013646 000014]
[pid 12] read(3, 013646, 12) = "_itrunc\x00\"\x00\x8a/"
004300 020027  cmp 000014 010764 000003 000000 000000 177712 177710   NZVC1 0000
# 004300 cmp r0, #14 (nextPC=004304)
[pid 12] TRAP
[pid 12] trap 004274 read(3, 013646, 12) [000003 010764 000003 000000 000000 177712 177710 004300] [013646 000014]
[pid 12] trap DONE 004274 read(3, 013646, 12) [000014 010764 000003 000000 000000 177712 177710 004300] [013646 000014]
[pid 12] read(3, 013646, 12) = "_maknode\"\x00\x820"
004300 020027  cmp 000014 010764 000003 000000 000000 177712 177710   NZVC1 0000
# 004300 cmp r0, #14 (nextPC=004304)
[pid 12] TRAP
[pid 12] trap 004274 read(3, 013646, 12) [000003 010764 000003 000000 000000 177712 177710 004300] [013646 000014]
[pid 12] trap DONE 004274 read(3, 013646, 12) [000014 010764 000003 000000 000000 177712 177710 004300] [013646 000014]
[pid 12] read(3, 013646, 12) = "_wdir\x00\x00\x00\"\x00\xc80"
004300 020027  cmp 000014 010764 000003 000000 000000 177712 177710   NZVC1 0000
# 004300 cmp r0, #14 (nextPC=004304)
[pid 12] TRAP
[pid 12] trap 004274 read(3, 013646, 12) [000003 010764 000003 000000 000000 177712 177710 004300] [013646 000014]
[pid 12] trap DONE 004274 read(3, 013646, 12) [000014 010764 000003 000000 000000 177712 177710 004300] [013646 000014]
[pid 12] read(3, 013646, 12) = "_writei\x00\"\x00\xc23"
004300 020027  cmp 000014 010764 000003 000000 000000 177712 177710   NZVC1 0000
# 004300 cmp r0, #14 (nextPC=004304)
[pid 12] TRAP
[pid 12] trap 004274 read(3, 013646, 12) [000003 010764 000003 000000 000000 177712 177710 004300] [013646 000014]
[pid 12] trap DONE 004274 read(3, 013646, 12) [000014 010764 000003 000000 000000 177712 177710 004300] [013646 000014]
[pid 12] read(3, 013646, 12) = "_panicst$\x00f\x1e"
004300 020027  cmp 000014 010764 000003 000000 000000 177712 177710   NZVC1 0000
# 004300 cmp r0, #14 (nextPC=004304)
[pid 12] TRAP
[pid 12] trap 004274 read(3, 013646, 12) [000003 010764 000003 000000 000000 177712 177710 004300] [013646 000014]
[pid 12] trap DONE 004274 read(3, 013646, 12) [000014 010764 000003 000000 000000 177712 177710 004300] [013646 000014]
[pid 12] read(3, 013646, 12) = "_putchar\"\x00\xc01"
004300 020027  cmp 000014 010764 000003 000000 000000 177712 177710   NZVC1 0000
# 004300 cmp r0, #14 (nextPC=004304)
[pid 12] TRAP
[pid 12] trap 004274 read(3, 013646, 12) [000003 010764 000003 000000 000000 177712 177710 004300] [013646 000014]
[pid 12] trap DONE 004274 read(3, 013646, 12) [000014 010764 000003 000000 000000 177712 177710 004300] [013646 000014]
[pid 12] read(3, 013646, 12) = "_printn\x00\"\x00\x821"
004300 020027  cmp 000014 010764 000003 000000 000000 177712 177710   NZVC1 0000
# 004300 cmp r0, #14 (nextPC=004304)
[pid 12] TRAP
[pid 12] trap 004274 read(3, 013646, 12) [000003 010764 000003 000000 000000 177712 177710 004300] [013646 000014]
[pid 12] trap DONE 004274 read(3, 013646, 12) [000014 010764 000003 000000 000000 177712 177710 004300] [013646 000014]
[pid 12] read(3, 013646, 12) = "_deverro\"\x00X2"
004300 020027  cmp 000014 010764 000003 000000 000000 177712 177710   NZVC1 0000
# 004300 cmp r0, #14 (nextPC=004304)
[pid 12] TRAP
[pid 12] trap 004274 read(3, 013646, 12) [000003 010764 000003 000000 000000 177712 177710 004300] [013646 000014]
[pid 12] trap DONE 004274 read(3, 013646, 12) [000014 010764 000003 000000 000000 177712 177710 004300] [013646 000014]
[pid 12] read(3, 013646, 12) = "_readi\x00\x00\"\x00\x8a2"
004300 020027  cmp 000014 010764 000003 000000 000000 177712 177710   NZVC1 0000
# 004300 cmp r0, #14 (nextPC=004304)
[pid 12] TRAP
[pid 12] trap 004274 read(3, 013646, 12) [000003 010764 000003 000000 000000 177712 177710 004300] [013646 000014]
[pid 12] trap DONE 004274 read(3, 013646, 12) [000014 010764 000003 000000 000000 177712 177710 004300] [013646 000014]
[pid 12] read(3, 013646, 12) = "_bmap\x00\x00\x00\"\x006;"
004300 020027  cmp 000014 010764 000003 000000 000000 177712 177710   NZVC1 0000
# 004300 cmp r0, #14 (nextPC=004304)
[pid 12] TRAP
[pid 12] trap 004274 read(3, 013646, 12) [000003 010764 000003 000000 000000 177712 177710 004300] [013646 000014]
[pid 12] trap DONE 004274 read(3, 013646, 12) [000014 010764 000003 000000 000000 177712 177710 004300] [013646 000014]
[pid 12] read(3, 013646, 12) = "_breada\x00\"\x00\x1ec"
004300 020027  cmp 000014 010764 000003 000000 000000 177712 177710   NZVC1 0000
# 004300 cmp r0, #14 (nextPC=004304)
[pid 12] TRAP
[pid 12] trap 004274 read(3, 013646, 12) [000003 010764 000003 000000 000000 177712 177710 004300] [013646 000014]
[pid 12] trap DONE 004274 read(3, 013646, 12) [000014 010764 000003 000000 000000 177712 177710 004300] [013646 000014]
[pid 12] read(3, 013646, 12) = "_iomove\x00\"\x0065"
004300 020027  cmp 000014 010764 000003 000000 000000 177712 177710   NZVC1 0000
# 004300 cmp r0, #14 (nextPC=004304)
[pid 12] TRAP
[pid 12] trap 004274 read(3, 013646, 12) [000003 010764 000003 000000 000000 177712 177710 004300] [013646 000014]
[pid 12] trap DONE 004274 read(3, 013646, 12) [000014 010764 000003 000000 000000 177712 177710 004300] [013646 000014]
[pid 12] read(3, 013646, 12) = "_bawrite\"\x00Nd"
004300 020027  cmp 000014 010764 000003 000000 000000 177712 177710   NZVC1 0000
# 004300 cmp r0, #14 (nextPC=004304)
[pid 12] TRAP
[pid 12] trap 004274 read(3, 013646, 12) [000003 010764 000003 000000 000000 177712 177710 004300] [013646 000014]
[pid 12] trap DONE 004274 read(3, 013646, 12) [000014 010764 000003 000000 000000 177712 177710 004300] [013646 000014]
[pid 12] read(3, 013646, 12) = "_bdwrite\"\x00\x18d"
004300 020027  cmp 000014 010764 000003 000000 000000 177712 177710   NZVC1 0000
# 004300 cmp r0, #14 (nextPC=004304)
[pid 12] TRAP
[pid 12] trap 004274 read(3, 013646, 12) [000003 010764 000003 000000 000000 177712 177710 004300] [013646 000014]
[pid 12] trap DONE 004274 read(3, 013646, 12) [000014 010764 000003 000000 000000 177712 177710 004300] [013646 000014]
[pid 12] read(3, 013646, 12) = "_max\x00\x00\x00\x00\"\x00\x025"
004300 020027  cmp 000014 010764 000003 000000 000000 177712 177710   NZVC1 0000
# 004300 cmp r0, #14 (nextPC=004304)
[pid 12] TRAP
[pid 12] trap 004274 read(3, 013646, 12) [000003 010764 000003 000000 000000 177712 177710 004300] [013646 000014]
[pid 12] trap DONE 004274 read(3, 013646, 12) [000014 010764 000003 000000 000000 177712 177710 004300] [013646 000014]
[pid 12] read(3, 013646, 12) = "_cpass\x00\x00\"\x00\xa4="
004300 020027  cmp 000014 010764 000003 000000 000000 177712 177710   NZVC1 0000
# 004300 cmp r0, #14 (nextPC=004304)
[pid 12] TRAP
[pid 12] trap 004274 read(3, 013646, 12) [000003 010764 000003 000000 000000 177712 177710 004300] [013646 000014]
[pid 12] trap DONE 004274 read(3, 013646, 12) [000014 010764 000003 000000 000000 177712 177710 004300] [013646 000014]
[pid 12] read(3, 013646, 12) = "_passc\x00\x00\"\x00T="
004300 020027  cmp 000014 010764 000003 000000 000000 177712 177710   NZVC1 0000
# 004300 cmp r0, #14 (nextPC=004304)
[pid 12] TRAP
[pid 12] trap 004274 read(3, 013646, 12) [000003 010764 000003 000000 000000 177712 177710 004300] [013646 000014]
[pid 12] trap DONE 004274 read(3, 013646, 12) [000014 010764 000003 000000 000000 177712 177710 004300] [013646 000014]
[pid 12] read(3, 013646, 12) = "_file\x00\x00\x00$\x00h\x1e"
004300 020027  cmp 000014 010764 000003 000000 000000 177712 177710   NZVC1 0000
# 004300 cmp r0, #14 (nextPC=004304)
[pid 12] TRAP
[pid 12] trap 004274 read(3, 013646, 12) [000003 010764 000003 000000 000000 177712 177710 004300] [013646 000014]
[pid 12] trap DONE 004274 read(3, 013646, 12) [000014 010764 000003 000000 000000 177712 177710 004300] [013646 000014]
[pid 12] read(3, 013646, 12) = "_issig\x00\x00\"\x00\x06C"
004300 020027  cmp 000014 010764 000003 000000 000000 177712 177710   NZVC1 0000
# 004300 cmp r0, #14 (nextPC=004304)
[pid 12] TRAP
[pid 12] trap 004274 read(3, 013646, 12) [000003 010764 000003 000000 000000 177712 177710 004300] [013646 000014]
[pid 12] trap DONE 004274 read(3, 013646, 12) [000014 010764 000003 000000 000000 177712 177710 004300] [013646 000014]
[pid 12] read(3, 013646, 12) = "_setrun\x00\"\x00x6"
004300 020027  cmp 000014 010764 000003 000000 000000 177712 177710   NZVC1 0000
# 004300 cmp r0, #14 (nextPC=004304)
[pid 12] TRAP
[pid 12] trap 004274 read(3, 013646, 12) [000003 010764 000003 000000 000000 177712 177710 004300] [013646 000014]
[pid 12] trap DONE 004274 read(3, 013646, 12) [000014 010764 000003 000000 000000 177712 177710 004300] [013646 000014]
[pid 12] read(3, 013646, 12) = "_setpri\x00\"\x00\xb26"
004300 020027  cmp 000014 010764 000003 000000 000000 177712 177710   NZVC1 0000
# 004300 cmp r0, #14 (nextPC=004304)
[pid 12] TRAP
[pid 12] trap 004274 read(3, 013646, 12) [000003 010764 000003 000000 000000 177712 177710 004300] [013646 000014]
[pid 12] trap DONE 004274 read(3, 013646, 12) [000014 010764 000003 000000 000000 177712 177710 004300] [013646 000014]
[pid 12] read(3, 013646, 12) = "_malloc\x00\"\x00DL"
004300 020027  cmp 000014 010764 000003 000000 000000 177712 177710   NZVC1 0000
# 004300 cmp r0, #14 (nextPC=004304)
[pid 12] TRAP
[pid 12] trap 004274 read(3, 013646, 12) [000003 010764 000003 000000 000000 177712 177710 004300] [013646 000014]
[pid 12] trap DONE 004274 read(3, 013646, 12) [000014 010764 000003 000000 000000 177712 177710 004300] [013646 000014]
[pid 12] read(3, 013646, 12) = "_xswap\x00\x00\"\x00\x1c>"
004300 020027  cmp 000014 010764 000003 000000 000000 177712 177710   NZVC1 0000
# 004300 cmp r0, #14 (nextPC=004304)
[pid 12] TRAP
[pid 12] trap 004274 read(3, 013646, 12) [000003 010764 000003 000000 000000 177712 177710 004300] [013646 000014]
[pid 12] trap DONE 004274 read(3, 013646, 12) [000014 010764 000003 000000 000000 177712 177710 004300] [013646 000014]
[pid 12] read(3, 013646, 12) = "_swap\x00\x00\x00\"\x00nh"
004300 020027  cmp 000014 010764 000003 000000 000000 177712 177710   NZVC1 0000
# 004300 cmp r0, #14 (nextPC=004304)
[pid 12] TRAP
[pid 12] trap 004274 read(3, 013646, 12) [000003 010764 000003 000000 000000 177712 177710 004300] [013646 000014]
[pid 12] trap DONE 004274 read(3, 013646, 12) [000014 010764 000003 000000 000000 177712 177710 004300] [013646 000014]
[pid 12] read(3, 013646, 12) = "_xccdec\x00\"\x00X@"
004300 020027  cmp 000014 010764 000003 000000 000000 177712 177710   NZVC1 0000
# 004300 cmp r0, #14 (nextPC=004304)
[pid 12] TRAP
[pid 12] trap 004274 read(3, 013646, 12) [000003 010764 000003 000000 000000 177712 177710 004300] [013646 000014]
[pid 12] trap DONE 004274 read(3, 013646, 12) [000014 010764 000003 000000 000000 177712 177710 004300] [013646 000014]
[pid 12] read(3, 013646, 12) = "_xfree\x00\x00\"\x00\xbe>"
004300 020027  cmp 000014 010764 000003 000000 000000 177712 177710   NZVC1 0000
# 004300 cmp r0, #14 (nextPC=004304)
[pid 12] TRAP
[pid 12] trap 004274 read(3, 013646, 12) [000003 010764 000003 000000 000000 177712 177710 004300] [013646 000014]
[pid 12] trap DONE 004274 read(3, 013646, 12) [000014 010764 000003 000000 000000 177712 177710 004300] [013646 000014]
[pid 12] read(3, 013646, 12) = "_xalloc\x00\"\x00\x18?"
004300 020027  cmp 000014 010764 000003 000000 000000 177712 177710   NZVC1 0000
# 004300 cmp r0, #14 (nextPC=004304)
[pid 12] TRAP
[pid 12] trap 004274 read(3, 013646, 12) [000003 010764 000003 000000 000000 177712 177710 004300] [013646 000014]
[pid 12] trap DONE 004274 read(3, 013646, 12) [000014 010764 000003 000000 000000 177712 177710 004300] [013646 000014]
[pid 12] read(3, 013646, 12) = "_sysent\x00#\x00\x90\x04"
004300 020027  cmp 000014 010764 000003 000000 000000 177712 177710   NZVC1 0000
# 004300 cmp r0, #14 (nextPC=004304)
[pid 12] TRAP
[pid 12] trap 004274 read(3, 013646, 12) [000003 010764 000003 000000 000000 177712 177710 004300] [013646 000014]
[pid 12] trap DONE 004274 read(3, 013646, 12) [000014 010764 000003 000000 000000 177712 177710 004300] [013646 000014]
[pid 12] read(3, 013646, 12) = "_psignal\"\x00\xceB"
004300 020027  cmp 000014 010764 000003 000000 000000 177712 177710   NZVC1 0000
# 004300 cmp r0, #14 (nextPC=004304)
[pid 12] TRAP
[pid 12] trap 004274 read(3, 013646, 12) [000003 010764 000003 000000 000000 177712 177710 004300] [013646 000014]
[pid 12] trap DONE 004274 read(3, 013646, 12) [000014 010764 000003 000000 000000 177712 177710 004300] [013646 000014]
[pid 12] read(3, 013646, 12) = "_psig\x00\x00\x00\"\x00\x8eC"
004300 020027  cmp 000014 010764 000003 000000 000000 177712 177710   NZVC1 0000
# 004300 cmp r0, #14 (nextPC=004304)
[pid 12] TRAP
[pid 12] trap 004274 read(3, 013646, 12) [000003 010764 000003 000000 000000 177712 177710 004300] [013646 000014]
[pid 12] trap DONE 004274 read(3, 013646, 12) [000014 010764 000003 000000 000000 177712 177710 004300] [013646 000014]
[pid 12] read(3, 013646, 12) = "_trap1\x00\x00\"\x00pB"
004300 020027  cmp 000014 010764 000003 000000 000000 177712 177710   NZVC1 0000
# 004300 cmp r0, #14 (nextPC=004304)
[pid 12] TRAP
[pid 12] trap 004274 read(3, 013646, 12) [000003 010764 000003 000000 000000 177712 177710 004300] [013646 000014]
[pid 12] trap DONE 004274 read(3, 013646, 12) [000014 010764 000003 000000 000000 177712 177710 004300] [013646 000014]
[pid 12] read(3, 013646, 12) = "_grow\x00\x00\x00\"\x00\x0eE"
004300 020027  cmp 000014 010764 000003 000000 000000 177712 177710   NZVC1 0000
# 004300 cmp r0, #14 (nextPC=004304)
[pid 12] TRAP
[pid 12] trap 004274 read(3, 013646, 12) [000003 010764 000003 000000 000000 177712 177710 004300] [013646 000014]
[pid 12] trap DONE 004274 read(3, 013646, 12) [000014 010764 000003 000000 000000 177712 177710 004300] [013646 000014]
[pid 12] read(3, 013646, 12) = "_nosys\x00\x00\"\x00\x8eB"
004300 020027  cmp 000014 010764 000003 000000 000000 177712 177710   NZVC1 0000
# 004300 cmp r0, #14 (nextPC=004304)
[pid 12] TRAP
[pid 12] trap 004274 read(3, 013646, 12) [000003 010764 000003 000000 000000 177712 177710 004300] [013646 000014]
[pid 12] trap DONE 004274 read(3, 013646, 12) [000014 010764 000003 000000 000000 177712 177710 004300] [013646 000014]
[pid 12] read(3, 013646, 12) = "_nullsys\"\x00\x9cB"
004300 020027  cmp 000014 010764 000003 000000 000000 177712 177710   NZVC1 0000
# 004300 cmp r0, #14 (nextPC=004304)
[pid 12] TRAP
[pid 12] trap 004274 read(3, 013646, 12) [000003 010764 000003 000000 000000 177712 177710 004300] [013646 000014]
[pid 12] trap DONE 004274 read(3, 013646, 12) [000014 010764 000003 000000 000000 177712 177710 004300] [013646 000014]
[pid 12] read(3, 013646, 12) = "_ipc\x00\x00\x00\x00$\x00\x88!"
004300 020027  cmp 000014 010764 000003 000000 000000 177712 177710   NZVC1 0000
# 004300 cmp r0, #14 (nextPC=004304)
[pid 12] TRAP
[pid 12] trap 004274 read(3, 013646, 12) [000003 010764 000003 000000 000000 177712 177710 004300] [013646 000014]
[pid 12] trap DONE 004274 read(3, 013646, 12) [000014 010764 000003 000000 000000 177712 177710 004300] [013646 000014]
[pid 12] read(3, 013646, 12) = "_signal\x00\"\x00\xa4B"
004300 020027  cmp 000014 010764 000003 000000 000000 177712 177710   NZVC1 0000
# 004300 cmp r0, #14 (nextPC=004304)
[pid 12] TRAP
[pid 12] trap 004274 read(3, 013646, 12) [000003 010764 000003 000000 000000 177712 177710 004300] [013646 000014]
[pid 12] trap DONE 004274 read(3, 013646, 12) [000014 010764 000003 000000 000000 177712 177710 004300] [013646 000014]
[pid 12] read(3, 013646, 12) = "_stop\x00\x00\x00\"\x00@C"
004300 020027  cmp 000014 010764 000003 000000 000000 177712 177710   NZVC1 0000
# 004300 cmp r0, #14 (nextPC=004304)
[pid 12] TRAP
[pid 12] trap 004274 read(3, 013646, 12) [000003 010764 000003 000000 000000 177712 177710 004300] [013646 000014]
[pid 12] trap DONE 004274 read(3, 013646, 12) [000014 010764 000003 000000 000000 177712 177710 004300] [013646 000014]
[pid 12] read(3, 013646, 12) = "_procxmt\"\x00zF"
004300 020027  cmp 000014 010764 000003 000000 000000 177712 177710   NZVC1 0000
# 004300 cmp r0, #14 (nextPC=004304)
[pid 12] TRAP
[pid 12] trap 004274 read(3, 013646, 12) [000003 010764 000003 000000 000000 177712 177710 004300] [013646 000014]
[pid 12] trap DONE 004274 read(3, 013646, 12) [000014 010764 000003 000000 000000 177712 177710 004300] [013646 000014]
[pid 12] read(3, 013646, 12) = "_exit\x00\x00\x00\"\x00\xf4T"
004300 020027  cmp 000014 010764 000003 000000 000000 177712 177710   NZVC1 0000
# 004300 cmp r0, #14 (nextPC=004304)
[pid 12] TRAP
[pid 12] trap 004274 read(3, 013646, 12) [000003 010764 000003 000000 000000 177712 177710 004300] [013646 000014]
[pid 12] trap DONE 004274 read(3, 013646, 12) [000014 010764 000003 000000 000000 177712 177710 004300] [013646 000014]
[pid 12] read(3, 013646, 12) = "_core\x00\x00\x00\"\x00JD"
004300 020027  cmp 000014 010764 000003 000000 000000 177712 177710   NZVC1 0000
# 004300 cmp r0, #14 (nextPC=004304)
[pid 12] TRAP
[pid 12] trap 004274 read(3, 013646, 12) [000003 010764 000003 000000 000000 177712 177710 004300] [013646 000014]
[pid 12] trap DONE 004274 read(3, 013646, 12) [000014 010764 000003 000000 000000 177712 177710 004300] [013646 000014]
[pid 12] read(3, 013646, 12) = "_schar\x00\x00\"\x00PO"
004300 020027  cmp 000014 010764 000003 000000 000000 177712 177710   NZVC1 0000
# 004300 cmp r0, #14 (nextPC=004304)
[pid 12] TRAP
[pid 12] trap 004274 read(3, 013646, 12) [000003 010764 000003 000000 000000 177712 177710 004300] [013646 000014]
[pid 12] trap DONE 004274 read(3, 013646, 12) [000014 010764 000003 000000 000000 177712 177710 004300] [013646 000014]
[pid 12] read(3, 013646, 12) = "_namei\x00\x00\"\x00 M"
004300 020027  cmp 000014 010764 000003 000000 000000 177712 177710   NZVC1 0000
# 004300 cmp r0, #14 (nextPC=004304)
[pid 12] TRAP
[pid 12] trap 004274 read(3, 013646, 12) [000003 010764 000003 000000 000000 177712 177710 004300] [013646 000014]
[pid 12] trap DONE 004274 read(3, 013646, 12) [000014 010764 000003 000000 000000 177712 177710 004300] [013646 000014]
[pid 12] read(3, 013646, 12) = "_access\x00\"\x00\xfcJ"
004300 020027  cmp 000014 010764 000003 000000 000000 177712 177710   NZVC1 0000
# 004300 cmp r0, #14 (nextPC=004304)
[pid 12] TRAP
[pid 12] trap 004274 read(3, 013646, 12) [000003 010764 000003 000000 000000 177712 177710 004300] [013646 000014]
[pid 12] trap DONE 004274 read(3, 013646, 12) [000014 010764 000003 000000 000000 177712 177710 004300] [013646 000014]
[pid 12] read(3, 013646, 12) = "_ptrace\x00\"\x00\xbcE"
004300 020027  cmp 000014 010764 000003 000000 000000 177712 177710   NZVC1 0000
# 004300 cmp r0, #14 (nextPC=004304)
[pid 12] TRAP
[pid 12] trap 004274 read(3, 013646, 12) [000003 010764 000003 000000 000000 177712 177710 004300] [013646 000014]
[pid 12] trap DONE 004274 read(3, 013646, 12) [000014 010764 000003 000000 000000 177712 177710 004300] [013646 000014]
[pid 12] read(3, 013646, 12) = "_rexit\x00\x00\"\x00\xdcT"
004300 020027  cmp 000014 010764 000003 000000 000000 177712 177710   NZVC1 0000
# 004300 cmp r0, #14 (nextPC=004304)
[pid 12] TRAP
[pid 12] trap 004274 read(3, 013646, 12) [000003 010764 000003 000000 000000 177712 177710 004300] [013646 000014]
[pid 12] trap DONE 004274 read(3, 013646, 12) [000014 010764 000003 000000 000000 177712 177710 004300] [013646 000014]
[pid 12] read(3, 013646, 12) = "_fork\x00\x00\x00\"\x00\bW"
004300 020027  cmp 000014 010764 000003 000000 000000 177712 177710   NZVC1 0000
# 004300 cmp r0, #14 (nextPC=004304)
[pid 12] TRAP
[pid 12] trap 004274 read(3, 013646, 12) [000003 010764 000003 000000 000000 177712 177710 004300] [013646 000014]
[pid 12] trap DONE 004274 read(3, 013646, 12) [000014 010764 000003 000000 000000 177712 177710 004300] [013646 000014]
[pid 12] read(3, 013646, 12) = "_read\x00\x00\x00\"\x00FX"
004300 020027  cmp 000014 010764 000003 000000 000000 177712 177710   NZVC1 0000
# 004300 cmp r0, #14 (nextPC=004304)
[pid 12] TRAP
[pid 12] trap 004274 read(3, 013646, 12) [000003 010764 000003 000000 000000 177712 177710 004300] [013646 000014]
[pid 12] trap DONE 004274 read(3, 013646, 12) [000014 010764 000003 000000 000000 177712 177710 004300] [013646 000014]
[pid 12] read(3, 013646, 12) = "_write\x00\x00\"\x00VX"
004300 020027  cmp 000014 010764 000003 000000 000000 177712 177710   NZVC1 0000
# 004300 cmp r0, #14 (nextPC=004304)
[pid 12] TRAP
[pid 12] trap 004274 read(3, 013646, 12) [000003 010764 000003 000000 000000 177712 177710 004300] [013646 000014]
[pid 12] trap DONE 004274 read(3, 013646, 12) [000014 010764 000003 000000 000000 177712 177710 004300] [013646 000014]
[pid 12] read(3, 013646, 12) = "_open\x00\x00\x00\"\x00\xfaX"
004300 020027  cmp 000014 010764 000003 000000 000000 177712 177710   NZVC1 0000
# 004300 cmp r0, #14 (nextPC=004304)
[pid 12] TRAP
[pid 12] trap 004274 read(3, 013646, 12) [000003 010764 000003 000000 000000 177712 177710 004300] [013646 000014]
[pid 12] trap DONE 004274 read(3, 013646, 12) [000014 010764 000003 000000 000000 177712 177710 004300] [013646 000014]
[pid 12] read(3, 013646, 12) = "_close\x00\x00\"\x00\x16Z"
004300 020027  cmp 000014 010764 000003 000000 000000 177712 177710   NZVC1 0000
# 004300 cmp r0, #14 (nextPC=004304)
[pid 12] TRAP
[pid 12] trap 004274 read(3, 013646, 12) [000003 010764 000003 000000 000000 177712 177710 004300] [013646 000014]
[pid 12] trap DONE 004274 read(3, 013646, 12) [000014 010764 000003 000000 000000 177712 177710 004300] [013646 000014]
[pid 12] read(3, 013646, 12) = "_wait\x00\x00\x00\"\x00\xecU"
004300 020027  cmp 000014 010764 000003 000000 000000 177712 177710   NZVC1 0000
# 004300 cmp r0, #14 (nextPC=004304)
[pid 12] TRAP
[pid 12] trap 004274 read(3, 013646, 12) [000003 010764 000003 000000 000000 177712 177710 004300] [013646 000014]
[pid 12] trap DONE 004274 read(3, 013646, 12) [000014 010764 000003 000000 000000 177712 177710 004300] [013646 000014]
[pid 12] read(3, 013646, 12) = "_creat\x00\x00\"\x00$Y"
004300 020027  cmp 000014 010764 000003 000000 000000 177712 177710   NZVC1 0000
# 004300 cmp r0, #14 (nextPC=004304)
[pid 12] TRAP
[pid 12] trap 004274 read(3, 013646, 12) [000003 010764 000003 000000 000000 177712 177710 004300] [013646 000014]
[pid 12] trap DONE 004274 read(3, 013646, 12) [000014 010764 000003 000000 000000 177712 177710 004300] [013646 000014]
[pid 12] read(3, 013646, 12) = "_link\x00\x00\x00\"\x00\xf4Z"
004300 020027  cmp 000014 010764 000003 000000 000000 177712 177710   NZVC1 0000
# 004300 cmp r0, #14 (nextPC=004304)
[pid 12] TRAP
[pid 12] trap 004274 read(3, 013646, 12) [000003 010764 000003 000000 000000 177712 177710 004300] [013646 000014]
[pid 12] trap DONE 004274 read(3, 013646, 12) [000014 010764 000003 000000 000000 177712 177710 004300] [013646 000014]
[pid 12] read(3, 013646, 12) = "_unlink\x00\"\x00\x96`"
004300 020027  cmp 000014 010764 000003 000000 000000 177712 177710   NZVC1 0000
# 004300 cmp r0, #14 (nextPC=004304)
[pid 12] TRAP
[pid 12] trap 004274 read(3, 013646, 12) [000003 010764 000003 000000 000000 177712 177710 004300] [013646 000014]
[pid 12] trap DONE 004274 read(3, 013646, 12) [000014 010764 000003 000000 000000 177712 177710 004300] [013646 000014]
[pid 12] read(3, 013646, 12) = "_exec\x00\x00\x00\"\x00\x80Q"
004300 020027  cmp 000014 010764 000003 000000 000000 177712 177710   NZVC1 0000
# 004300 cmp r0, #14 (nextPC=004304)
[pid 12] TRAP
[pid 12] trap 004274 read(3, 013646, 12) [000003 010764 000003 000000 000000 177712 177710 004300] [013646 000014]
[pid 12] trap DONE 004274 read(3, 013646, 12) [000014 010764 000003 000000 000000 177712 177710 004300] [013646 000014]
[pid 12] read(3, 013646, 12) = "_chdir\x00\x00\"\x00\x16a"
004300 020027  cmp 000014 010764 000003 000000 000000 177712 177710   NZVC1 0000
# 004300 cmp r0, #14 (nextPC=004304)
[pid 12] TRAP
[pid 12] trap 004274 read(3, 013646, 12) [000003 010764 000003 000000 000000 177712 177710 004300] [013646 000014]
[pid 12] trap DONE 004274 read(3, 013646, 12) [000014 010764 000003 000000 000000 177712 177710 004300] [013646 000014]
[pid 12] read(3, 013646, 12) = "_gtime\x00\x00\"\x00\x90_"
004300 020027  cmp 000014 010764 000003 000000 000000 177712 177710   NZVC1 0000
# 004300 cmp r0, #14 (nextPC=004304)
[pid 12] TRAP
[pid 12] trap 004274 read(3, 013646, 12) [000003 010764 000003 000000 000000 177712 177710 004300] [013646 000014]
[pid 12] trap DONE 004274 read(3, 013646, 12) [000014 010764 000003 000000 000000 177712 177710 004300] [013646 000014]
[pid 12] read(3, 013646, 12) = "_mknod\x00\x00\"\x00\x8e["
004300 020027  cmp 000014 010764 000003 000000 000000 177712 177710   NZVC1 0000
# 004300 cmp r0, #14 (nextPC=004304)
[pid 12] TRAP
[pid 12] trap 004274 read(3, 013646, 12) [000003 010764 000003 000000 000000 177712 177710 004300] [013646 000014]
[pid 12] trap DONE 004274 read(3, 013646, 12) [000014 010764 000003 000000 000000 177712 177710 004300] [013646 000014]
[pid 12] read(3, 013646, 12) = "_chmod\x00\x00\"\x00la"
004300 020027  cmp 000014 010764 000003 000000 000000 177712 177710   NZVC1 0000
# 004300 cmp r0, #14 (nextPC=004304)
[pid 12] TRAP
[pid 12] trap 004274 read(3, 013646, 12) [000003 010764 000003 000000 000000 177712 177710 004300] [013646 000014]
[pid 12] trap DONE 004274 read(3, 013646, 12) [000014 010764 000003 000000 000000 177712 177710 004300] [013646 000014]
[pid 12] read(3, 013646, 12) = "_chown\x00\x00\"\x00\xa4a"
004300 020027  cmp 000014 010764 000003 000000 000000 177712 177710   NZVC1 0000
# 004300 cmp r0, #14 (nextPC=004304)
[pid 12] TRAP
[pid 12] trap 004274 read(3, 013646, 12) [000003 010764 000003 000000 000000 177712 177710 004300] [013646 000014]
[pid 12] trap DONE 004274 read(3, 013646, 12) [000014 010764 000003 000000 000000 177712 177710 004300] [013646 000014]
[pid 12] read(3, 013646, 12) = "_sbreak\x00\"\x00hW"
004300 020027  cmp 000014 010764 000003 000000 000000 177712 177710   NZVC1 0000
# 004300 cmp r0, #14 (nextPC=004304)
[pid 12] TRAP
[pid 12] trap 004274 read(3, 013646, 12) [000003 010764 000003 000000 000000 177712 177710 004300] [013646 000014]
[pid 12] trap DONE 004274 read(3, 013646, 12) [000014 010764 000003 000000 000000 177712 177710 004300] [013646 000014]
[pid 12] read(3, 013646, 12) = "_stat\x00\x00\x00\"\x00\x96\\"
004300 020027  cmp 000014 010764 000003 000000 000000 177712 177710   NZVC1 0000
# 004300 cmp r0, #14 (nextPC=004304)
[pid 12] TRAP
[pid 12] trap 004274 read(3, 013646, 12) [000003 010764 000003 000000 000000 177712 177710 004300] [013646 000014]
[pid 12] trap DONE 004274 read(3, 013646, 12) [000014 010764 000003 000000 000000 177712 177710 004300] [013646 000014]
[pid 12] read(3, 013646, 12) = "_seek\x00\x00\x00\"\x00:Z"
004300 020027  cmp 000014 010764 000003 000000 000000 177712 177710   NZVC1 0000
# 004300 cmp r0, #14 (nextPC=004304)
[pid 12] TRAP
[pid 12] trap 004274 read(3, 013646, 12) [000003 010764 000003 000000 000000 177712 177710 004300] [013646 000014]
[pid 12] trap DONE 004274 read(3, 013646, 12) [000014 010764 000003 000000 000000 177712 177710 004300] [013646 000014]
[pid 12] read(3, 013646, 12) = "_getpid\x00\"\x00L`"
004300 020027  cmp 000014 010764 000003 000000 000000 177712 177710   NZVC1 0000
# 004300 cmp r0, #14 (nextPC=004304)
[pid 12] TRAP
[pid 12] trap 004274 read(3, 013646, 12) [000003 010764 000003 000000 000000 177712 177710 004300] [013646 000014]
[pid 12] trap DONE 004274 read(3, 013646, 12) [000014 010764 000003 000000 000000 177712 177710 004300] [013646 000014]
[pid 12] read(3, 013646, 12) = "_smount\x00\"\x00\x9c]"
004300 020027  cmp 000014 010764 000003 000000 000000 177712 177710   NZVC1 0000
# 004300 cmp r0, #14 (nextPC=004304)
[pid 12] TRAP
[pid 12] trap 004274 read(3, 013646, 12) [000003 010764 000003 000000 000000 177712 177710 004300] [013646 000014]
[pid 12] trap DONE 004274 read(3, 013646, 12) [000014 010764 000003 000000 000000 177712 177710 004300] [013646 000014]
[pid 12] read(3, 013646, 12) = "_sumount\"\x00\xa8^"
004300 020027  cmp 000014 010764 000003 000000 000000 177712 177710   NZVC1 0000
# 004300 cmp r0, #14 (nextPC=004304)
[pid 12] TRAP
[pid 12] trap 004274 read(3, 013646, 12) [000003 010764 000003 000000 000000 177712 177710 004300] [013646 000014]
[pid 12] trap DONE 004274 read(3, 013646, 12) [000014 010764 000003 000000 000000 177712 177710 004300] [013646 000014]
[pid 12] read(3, 013646, 12) = "_setuid\x00\"\x00\xd0_"
004300 020027  cmp 000014 010764 000003 000000 000000 177712 177710   NZVC1 0000
# 004300 cmp r0, #14 (nextPC=004304)
[pid 12] TRAP
[pid 12] trap 004274 read(3, 013646, 12) [000003 010764 000003 000000 000000 177712 177710 004300] [013646 000014]
[pid 12] trap DONE 004274 read(3, 013646, 12) [000014 010764 000003 000000 000000 177712 177710 004300] [013646 000014]
[pid 12] read(3, 013646, 12) = "_getuid\x00\"\x00\xfa_"
004300 020027  cmp 000014 010764 000003 000000 000000 177712 177710   NZVC1 0000
# 004300 cmp r0, #14 (nextPC=004304)
[pid 12] TRAP
[pid 12] trap 004274 read(3, 013646, 12) [000003 010764 000003 000000 000000 177712 177710 004300] [013646 000014]
[pid 12] trap DONE 004274 read(3, 013646, 12) [000014 010764 000003 000000 000000 177712 177710 004300] [013646 000014]
[pid 12] read(3, 013646, 12) = "_stime\x00\x00\"\x00\xa8_"
004300 020027  cmp 000014 010764 000003 000000 000000 177712 177710   NZVC1 0000
# 004300 cmp r0, #14 (nextPC=004304)
[pid 12] TRAP
[pid 12] trap 004274 read(3, 013646, 12) [000003 010764 000003 000000 000000 177712 177710 004300] [013646 000014]
[pid 12] trap DONE 004274 read(3, 013646, 12) [000014 010764 000003 000000 000000 177712 177710 004300] [013646 000014]
[pid 12] read(3, 013646, 12) = "_fstat\x00\x00\"\x00t\\"
004300 020027  cmp 000014 010764 000003 000000 000000 177712 177710   NZVC1 0000
# 004300 cmp r0, #14 (nextPC=004304)
[pid 12] TRAP
[pid 12] trap 004274 read(3, 013646, 12) [000003 010764 000003 000000 000000 177712 177710 004300] [013646 000014]
[pid 12] trap DONE 004274 read(3, 013646, 12) [000014 010764 000003 000000 000000 177712 177710 004300] [013646 000014]
[pid 12] read(3, 013646, 12) = "_stty\x00\x00\x00\"\x00Xk"
004300 020027  cmp 000014 010764 000003 000000 000000 177712 177710   NZVC1 0000
# 004300 cmp r0, #14 (nextPC=004304)
[pid 12] TRAP
[pid 12] trap 004274 read(3, 013646, 12) [000003 010764 000003 000000 000000 177712 177710 004300] [013646 000014]
[pid 12] trap DONE 004274 read(3, 013646, 12) [000014 010764 000003 000000 000000 177712 177710 004300] [013646 000014]
[pid 12] read(3, 013646, 12) = "_gtty\x00\x00\x00\"\x00\x10k"
004300 020027  cmp 000014 010764 000003 000000 000000 177712 177710   NZVC1 0000
# 004300 cmp r0, #14 (nextPC=004304)
[pid 12] TRAP
[pid 12] trap 004274 read(3, 013646, 12) [000003 010764 000003 000000 000000 177712 177710 004300] [013646 000014]
[pid 12] trap DONE 004274 read(3, 013646, 12) [000014 010764 000003 000000 000000 177712 177710 004300] [013646 000014]
[pid 12] read(3, 013646, 12) = "_nice\x00\x00\x00\"\x00j`"
004300 020027  cmp 000014 010764 000003 000000 000000 177712 177710   NZVC1 0000
# 004300 cmp r0, #14 (nextPC=004304)
[pid 12] TRAP
[pid 12] trap 004274 read(3, 013646, 12) [000003 010764 000003 000000 000000 177712 177710 004300] [013646 000014]
[pid 12] trap DONE 004274 read(3, 013646, 12) [000014 010764 000003 000000 000000 177712 177710 004300] [013646 000014]
[pid 12] read(3, 013646, 12) = "_sslep\x00\x00\"\x00\xd6["
004300 020027  cmp 000014 010764 000003 000000 000000 177712 177710   NZVC1 0000
# 004300 cmp r0, #14 (nextPC=004304)
[pid 12] TRAP
[pid 12] trap 004274 read(3, 013646, 12) [000003 010764 000003 000000 000000 177712 177710 004300] [013646 000014]
[pid 12] trap DONE 004274 read(3, 013646, 12) [000014 010764 000003 000000 000000 177712 177710 004300] [013646 000014]
[pid 12] read(3, 013646, 12) = "_sync\x00\x00\x00\"\x00^`"
004300 020027  cmp 000014 010764 000003 000000 000000 177712 177710   NZVC1 0000
# 004300 cmp r0, #14 (nextPC=004304)
[pid 12] TRAP
[pid 12] trap 004274 read(3, 013646, 12) [000003 010764 000003 000000 000000 177712 177710 004300] [013646 000014]
[pid 12] trap DONE 004274 read(3, 013646, 12) [000014 010764 000003 000000 000000 177712 177710 004300] [013646 000014]
[pid 12] read(3, 013646, 12) = "_kill\x00\x00\x00\"\x00\x1cb"
004300 020027  cmp 000014 010764 000003 000000 000000 177712 177710   NZVC1 0000
# 004300 cmp r0, #14 (nextPC=004304)
[pid 12] TRAP
[pid 12] trap 004274 read(3, 013646, 12) [000003 010764 000003 000000 000000 177712 177710 004300] [013646 000014]
[pid 12] trap DONE 004274 read(3, 013646, 12) [000014 010764 000003 000000 000000 177712 177710 004300] [013646 000014]
[pid 12] read(3, 013646, 12) = "_getswit\"\x00\x82_"
004300 020027  cmp 000014 010764 000003 000000 000000 177712 177710   NZVC1 0000
# 004300 cmp r0, #14 (nextPC=004304)
[pid 12] TRAP
[pid 12] trap 004274 read(3, 013646, 12) [000003 010764 000003 000000 000000 177712 177710 004300] [013646 000014]
[pid 12] trap DONE 004274 read(3, 013646, 12) [000014 010764 000003 000000 000000 177712 177710 004300] [013646 000014]
[pid 12] read(3, 013646, 12) = "_dup\x00\x00\x00\x00\"\x00t]"
004300 020027  cmp 000014 010764 000003 000000 000000 177712 177710   NZVC1 0000
# 004300 cmp r0, #14 (nextPC=004304)
[pid 12] TRAP
[pid 12] trap 004274 read(3, 013646, 12) [000003 010764 000003 000000 000000 177712 177710 004300] [013646 000014]
[pid 12] trap DONE 004274 read(3, 013646, 12) [000014 010764 000003 000000 000000 177712 177710 004300] [013646 000014]
[pid 12] read(3, 013646, 12) = "_pipe\x00\x00\x00\"\x00\x88O"
004300 020027  cmp 000014 010764 000003 000000 000000 177712 177710   NZVC1 0000
# 004300 cmp r0, #14 (nextPC=004304)
[pid 12] TRAP
[pid 12] trap 004274 read(3, 013646, 12) [000003 010764 000003 000000 000000 177712 177710 004300] [013646 000014]
[pid 12] trap DONE 004274 read(3, 013646, 12) [000014 010764 000003 000000 000000 177712 177710 004300] [013646 000014]
[pid 12] read(3, 013646, 12) = "_times\x00\x00\"\x00\x8ab"
004300 020027  cmp 000014 010764 000003 000000 000000 177712 177710   NZVC1 0000
# 004300 cmp r0, #14 (nextPC=004304)
[pid 12] TRAP
[pid 12] trap 004274 read(3, 013646, 12) [000003 010764 000003 000000 000000 177712 177710 004300] [013646 000014]
[pid 12] trap DONE 004274 read(3, 013646, 12) [000014 010764 000003 000000 000000 177712 177710 004300] [013646 000014]
[pid 12] read(3, 013646, 12) = "_profil\x00\"\x00\xaeb"
004300 020027  cmp 000014 010764 000003 000000 000000 177712 177710   NZVC1 0000
# 004300 cmp r0, #14 (nextPC=004304)
[pid 12] TRAP
[pid 12] trap 004274 read(3, 013646, 12) [000003 010764 000003 000000 000000 177712 177710 004300] [013646 000014]
[pid 12] trap DONE 004274 read(3, 013646, 12) [000014 010764 000003 000000 000000 177712 177710 004300] [013646 000014]
[pid 12] read(3, 013646, 12) = "_setgid\x00\"\x00\x12`"
004300 020027  cmp 000014 010764 000003 000000 000000 177712 177710   NZVC1 0000
# 004300 cmp r0, #14 (nextPC=004304)
[pid 12] TRAP
[pid 12] trap 004274 read(3, 013646, 12) [000003 010764 000003 000000 000000 177712 177710 004300] [013646 000014]
[pid 12] trap DONE 004274 read(3, 013646, 12) [000014 010764 000003 000000 000000 177712 177710 004300] [013646 000014]
[pid 12] read(3, 013646, 12) = "_getgid\x00\"\x004`"
004300 020027  cmp 000014 010764 000003 000000 000000 177712 177710   NZVC1 0000
# 004300 cmp r0, #14 (nextPC=004304)
[pid 12] TRAP
[pid 12] trap 004274 read(3, 013646, 12) [000003 010764 000003 000000 000000 177712 177710 004300] [013646 000014]
[pid 12] trap DONE 004274 read(3, 013646, 12) [000014 010764 000003 000000 000000 177712 177710 004300] [013646 000014]
[pid 12] read(3, 013646, 12) = "_ssig\x00\x00\x00\"\x00\xd2a"
004300 020027  cmp 000014 010764 000003 000000 000000 177712 177710   NZVC1 0000
# 004300 cmp r0, #14 (nextPC=004304)
[pid 12] TRAP
[pid 12] trap 004274 read(3, 013646, 12) [000003 010764 000003 000000 000000 177712 177710 004300] [013646 000014]
[pid 12] trap DONE 004274 read(3, 013646, 12) [000014 010764 000003 000000 000000 177712 177710 004300] [013646 000014]
[pid 12] read(3, 013646, 12) = "_timeout\"\x00VI"
004300 020027  cmp 000014 010764 000003 000000 000000 177712 177710   NZVC1 0000
# 004300 cmp r0, #14 (nextPC=004304)
[pid 12] TRAP
[pid 12] trap 004274 read(3, 013646, 12) [000003 010764 000003 000000 000000 177712 177710 004300] [013646 000014]
[pid 12] trap DONE 004274 read(3, 013646, 12) [000014 010764 000003 000000 000000 177712 177710 004300] [013646 000014]
[pid 12] read(3, 013646, 12) = "_getf\x00\x00\x00\"\x00\xc2I"
004300 020027  cmp 000014 010764 000003 000000 000000 177712 177710   NZVC1 0000
# 004300 cmp r0, #14 (nextPC=004304)
[pid 12] TRAP
[pid 12] trap 004274 read(3, 013646, 12) [000003 010764 000003 000000 000000 177712 177710 004300] [013646 000014]
[pid 12] trap DONE 004274 read(3, 013646, 12) [000014 010764 000003 000000 000000 177712 177710 004300] [013646 000014]
[pid 12] read(3, 013646, 12) = "_closef\x00\"\x00\xecI"
004300 020027  cmp 000014 010764 000003 000000 000000 177712 177710   NZVC1 0000
# 004300 cmp r0, #14 (nextPC=004304)
[pid 12] TRAP
[pid 12] trap 004274 read(3, 013646, 12) [000003 010764 000003 000000 000000 177712 177710 004300] [013646 000014]
[pid 12] trap DONE 004274 read(3, 013646, 12) [000014 010764 000003 000000 000000 177712 177710 004300] [013646 000014]
[pid 12] read(3, 013646, 12) = "_closei\x00\"\x00:J"
004300 020027  cmp 000014 010764 000003 000000 000000 177712 177710   NZVC1 0000
# 004300 cmp r0, #14 (nextPC=004304)
[pid 12] TRAP
[pid 12] trap 004274 read(3, 013646, 12) [000003 010764 000003 000000 000000 177712 177710 004300] [013646 000014]
[pid 12] trap DONE 004274 read(3, 013646, 12) [000014 010764 000003 000000 000000 177712 177710 004300] [013646 000014]
[pid 12] read(3, 013646, 12) = "_openi\x00\x00\"\x00\x98J"
004300 020027  cmp 000014 010764 000003 000000 000000 177712 177710   NZVC1 0000
# 004300 cmp r0, #14 (nextPC=004304)
[pid 12] TRAP
[pid 12] trap 004274 read(3, 013646, 12) [000003 010764 000003 000000 000000 177712 177710 004300] [013646 000014]
[pid 12] trap DONE 004274 read(3, 013646, 12) [000014 010764 000003 000000 000000 177712 177710 004300] [013646 000014]
[pid 12] read(3, 013646, 12) = "_owner\x00\x00\"\x00vK"
004300 020027  cmp 000014 010764 000003 000000 000000 177712 177710   NZVC1 0000
# 004300 cmp r0, #14 (nextPC=004304)
[pid 12] TRAP
[pid 12] trap 004274 read(3, 013646, 12) [000003 010764 000003 000000 000000 177712 177710 004300] [013646 000014]
[pid 12] trap DONE 004274 read(3, 013646, 12) [000014 010764 000003 000000 000000 177712 177710 004300] [013646 000014]
[pid 12] read(3, 013646, 12) = "_uchar\x00\x00\"\x00dO"
004300 020027  cmp 000014 010764 000003 000000 000000 177712 177710   NZVC1 0000
# 004300 cmp r0, #14 (nextPC=004304)
[pid 12] TRAP
[pid 12] trap 004274 read(3, 013646, 12) [000003 010764 000003 000000 000000 177712 177710 004300] [013646 000014]
[pid 12] trap DONE 004274 read(3, 013646, 12) [000014 010764 000003 000000 000000 177712 177710 004300] [013646 000014]
[pid 12] read(3, 013646, 12) = "_suser\x00\x00\"\x00\xacK"
004300 020027  cmp 000014 010764 000003 000000 000000 177712 177710   NZVC1 0000
# 004300 cmp r0, #14 (nextPC=004304)
[pid 12] TRAP
[pid 12] trap 004274 read(3, 013646, 12) [000003 010764 000003 000000 000000 177712 177710 004300] [013646 000014]
[pid 12] trap DONE 004274 read(3, 013646, 12) [000014 010764 000003 000000 000000 177712 177710 004300] [013646 000014]
[pid 12] read(3, 013646, 12) = "_ufalloc\"\x00\xc8K"
004300 020027  cmp 000014 010764 000003 000000 000000 177712 177710   NZVC1 0000
# 004300 cmp r0, #14 (nextPC=004304)
[pid 12] TRAP
[pid 12] trap 004274 read(3, 013646, 12) [000003 010764 000003 000000 000000 177712 177710 004300] [013646 000014]
[pid 12] trap DONE 004274 read(3, 013646, 12) [000014 010764 000003 000000 000000 177712 177710 004300] [013646 000014]
[pid 12] read(3, 013646, 12) = "_falloc\x00\"\x00\xf6K"
004300 020027  cmp 000014 010764 000003 000000 000000 177712 177710   NZVC1 0000
# 004300 cmp r0, #14 (nextPC=004304)
[pid 12] TRAP
[pid 12] trap 004274 read(3, 013646, 12) [000003 010764 000003 000000 000000 177712 177710 004300] [013646 000014]
[pid 12] trap DONE 004274 read(3, 013646, 12) [000014 010764 000003 000000 000000 177712 177710 004300] [013646 000014]
[pid 12] read(3, 013646, 12) = "_readp\x00\x00\"\x00\xfaO"
004300 020027  cmp 000014 010764 000003 000000 000000 177712 177710   NZVC1 0000
# 004300 cmp r0, #14 (nextPC=004304)
[pid 12] TRAP
[pid 12] trap 004274 read(3, 013646, 12) [000003 010764 000003 000000 000000 177712 177710 004300] [013646 000014]
[pid 12] trap DONE 004274 read(3, 013646, 12) [000014 010764 000003 000000 000000 177712 177710 004300] [013646 000014]
[pid 12] read(3, 013646, 12) = "_plock\x00\x00\"\x008Q"
004300 020027  cmp 000014 010764 000003 000000 000000 177712 177710   NZVC1 0000
# 004300 cmp r0, #14 (nextPC=004304)
[pid 12] TRAP
[pid 12] trap 004274 read(3, 013646, 12) [000003 010764 000003 000000 000000 177712 177710 004300] [013646 000014]
[pid 12] trap DONE 004274 read(3, 013646, 12) [000014 010764 000003 000000 000000 177712 177710 004300] [013646 000014]
[pid 12] read(3, 013646, 12) = "_writep\x00\"\x00\x80P"
004300 020027  cmp 000014 010764 000003 000000 000000 177712 177710   NZVC1 0000
# 004300 cmp r0, #14 (nextPC=004304)
[pid 12] TRAP
[pid 12] trap 004274 read(3, 013646, 12) [000003 010764 000003 000000 000000 177712 177710 004300] [013646 000014]
[pid 12] trap DONE 004274 read(3, 013646, 12) [000014 010764 000003 000000 000000 177712 177710 004300] [013646 000014]
[pid 12] read(3, 013646, 12) = "_rdwr\x00\x00\x00\"\x00fX"
004300 020027  cmp 000014 010764 000003 000000 000000 177712 177710   NZVC1 0000
# 004300 cmp r0, #14 (nextPC=004304)
[pid 12] TRAP
[pid 12] trap 004274 read(3, 013646, 12) [000003 010764 000003 000000 000000 177712 177710 004300] [013646 000014]
[pid 12] trap DONE 004274 read(3, 013646, 12) [000014 010764 000003 000000 000000 177712 177710 004300] [013646 000014]
[pid 12] read(3, 013646, 12) = "_open1\x00\x00\"\x00jY"
004300 020027  cmp 000014 010764 000003 000000 000000 177712 177710   NZVC1 0000
# 004300 cmp r0, #14 (nextPC=004304)
[pid 12] TRAP
[pid 12] trap 004274 read(3, 013646, 12) [000003 010764 000003 000000 000000 177712 177710 004300] [013646 000014]
[pid 12] trap DONE 004274 read(3, 013646, 12) [000014 010764 000003 000000 000000 177712 177710 004300] [013646 000014]
[pid 12] read(3, 013646, 12) = "_stat1\x00\x00\"\x00\xc0\\"
004300 020027  cmp 000014 010764 000003 000000 000000 177712 177710   NZVC1 0000
# 004300 cmp r0, #14 (nextPC=004304)
[pid 12] TRAP
[pid 12] trap 004274 read(3, 013646, 12) [000003 010764 000003 000000 000000 177712 177710 004300] [013646 000014]
[pid 12] trap DONE 004274 read(3, 013646, 12) [000014 010764 000003 000000 000000 177712 177710 004300] [013646 000014]
[pid 12] read(3, 013646, 12) = "_getmdev\"\x00:_"
004300 020027  cmp 000014 010764 000003 000000 000000 177712 177710   NZVC1 0000
# 004300 cmp r0, #14 (nextPC=004304)
[pid 12] TRAP
[pid 12] trap 004274 read(3, 013646, 12) [000003 010764 000003 000000 000000 177712 177710 004300] [013646 000014]
[pid 12] trap DONE 004274 read(3, 013646, 12) [000014 010764 000003 000000 000000 177712 177710 004300] [013646 000014]
[pid 12] read(3, 013646, 12) = "_buffers$\x00\x90!"
004300 020027  cmp 000014 010764 000003 000000 000000 177712 177710   NZVC1 0000
# 004300 cmp r0, #14 (nextPC=004304)
[pid 12] TRAP
[pid 12] trap 004274 read(3, 013646, 12) [000003 010764 000003 000000 000000 177712 177710 004300] [013646 000014]
[pid 12] trap DONE 004274 read(3, 013646, 12) [000014 010764 000003 000000 000000 177712 177710 004300] [013646 000014]
[pid 12] read(3, 013646, 12) = "_swbuf\x00\x00$\x00\xae?"
004300 020027  cmp 000014 010764 000003 000000 000000 177712 177710   NZVC1 0000
# 004300 cmp r0, #14 (nextPC=004304)
[pid 12] TRAP
[pid 12] trap 004274 read(3, 013646, 12) [000003 010764 000003 000000 000000 177712 177710 004300] [013646 000014]
[pid 12] trap DONE 004274 read(3, 013646, 12) [000014 010764 000003 000000 000000 177712 177710 004300] [013646 000014]
[pid 12] read(3, 013646, 12) = "_tmtab\x00\x00$\x00\xc6?"
004300 020027  cmp 000014 010764 000003 000000 000000 177712 177710   NZVC1 0000
# 004300 cmp r0, #14 (nextPC=004304)
[pid 12] TRAP
[pid 12] trap 004274 read(3, 013646, 12) [000003 010764 000003 000000 000000 177712 177710 004300] [013646 000014]
[pid 12] trap DONE 004274 read(3, 013646, 12) [000014 010764 000003 000000 000000 177712 177710 004300] [013646 000014]
[pid 12] read(3, 013646, 12) = "_iowait\x00\"\x00\xfae"
004300 020027  cmp 000014 010764 000003 000000 000000 177712 177710   NZVC1 0000
# 004300 cmp r0, #14 (nextPC=004304)
[pid 12] TRAP
[pid 12] trap 004274 read(3, 013646, 12) [000003 010764 000003 000000 000000 177712 177710 004300] [013646 000014]
[pid 12] trap DONE 004274 read(3, 013646, 12) [000014 010764 000003 000000 000000 177712 177710 004300] [013646 000014]
[pid 12] read(3, 013646, 12) = "_incore\x00\"\x00\xc4d"
004300 020027  cmp 000014 010764 000003 000000 000000 177712 177710   NZVC1 0000
# 004300 cmp r0, #14 (nextPC=004304)
[pid 12] TRAP
[pid 12] trap 004274 read(3, 013646, 12) [000003 010764 000003 000000 000000 177712 177710 004300] [013646 000014]
[pid 12] trap DONE 004274 read(3, 013646, 12) [000014 010764 000003 000000 000000 177712 177710 004300] [013646 000014]
[pid 12] read(3, 013646, 12) = "_geterro\"\x00\xf0j"
004300 020027  cmp 000014 010764 000003 000000 000000 177712 177710   NZVC1 0000
# 004300 cmp r0, #14 (nextPC=004304)
[pid 12] TRAP
[pid 12] trap 004274 read(3, 013646, 12) [000003 010764 000003 000000 000000 177712 177710 004300] [013646 000014]
[pid 12] trap DONE 004274 read(3, 013646, 12) [000014 010764 000003 000000 000000 177712 177710 004300] [013646 000014]
[pid 12] read(3, 013646, 12) = "_notavai\"\x00(f"
004300 020027  cmp 000014 010764 000003 000000 000000 177712 177710   NZVC1 0000
# 004300 cmp r0, #14 (nextPC=004304)
[pid 12] TRAP
[pid 12] trap 004274 read(3, 013646, 12) [000003 010764 000003 000000 000000 177712 177710 004300] [013646 000014]
[pid 12] trap DONE 004274 read(3, 013646, 12) [000014 010764 000003 000000 000000 177712 177710 004300] [013646 000014]
[pid 12] read(3, 013646, 12) = "_iodone\x00\"\x00Xf"
004300 020027  cmp 000014 010764 000003 000000 000000 177712 177710   NZVC1 0000
# 004300 cmp r0, #14 (nextPC=004304)
[pid 12] TRAP
[pid 12] trap 004274 read(3, 013646, 12) [000003 010764 000003 000000 000000 177712 177710 004300] [013646 000014]
[pid 12] trap DONE 004274 read(3, 013646, 12) [000014 010764 000003 000000 000000 177712 177710 004300] [013646 000014]
[pid 12] read(3, 013646, 12) = "_mapfree\"\x00Lh"
004300 020027  cmp 000014 010764 000003 000000 000000 177712 177710   NZVC1 0000
# 004300 cmp r0, #14 (nextPC=004304)
[pid 12] TRAP
[pid 12] trap 004274 read(3, 013646, 12) [000003 010764 000003 000000 000000 177712 177710 004300] [013646 000014]
[pid 12] trap DONE 004274 read(3, 013646, 12) [000014 010764 000003 000000 000000 177712 177710 004300] [013646 000014]
[pid 12] read(3, 013646, 12) = "_devstar\"\x00<g"
004300 020027  cmp 000014 010764 000003 000000 000000 177712 177710   NZVC1 0000
# 004300 cmp r0, #14 (nextPC=004304)
[pid 12] TRAP
[pid 12] trap 004274 read(3, 013646, 12) [000003 010764 000003 000000 000000 177712 177710 004300] [013646 000014]
[pid 12] trap DONE 004274 read(3, 013646, 12) [000014 010764 000003 000000 000000 177712 177710 004300] [013646 000014]
[pid 12] read(3, 013646, 12) = "_rhstart\"\x00\x86g"
004300 020027  cmp 000014 010764 000003 000000 000000 177712 177710   NZVC1 0000
# 004300 cmp r0, #14 (nextPC=004304)
[pid 12] TRAP
[pid 12] trap 004274 read(3, 013646, 12) [000003 010764 000003 000000 000000 177712 177710 004300] [013646 000014]
[pid 12] trap DONE 004274 read(3, 013646, 12) [000014 010764 000003 000000 000000 177712 177710 004300] [013646 000014]
[pid 12] read(3, 013646, 12) = "_maplock$\x00\xd0?"
004300 020027  cmp 000014 010764 000003 000000 000000 177712 177710   NZVC1 0000
# 004300 cmp r0, #14 (nextPC=004304)
[pid 12] TRAP
[pid 12] trap 004274 read(3, 013646, 12) [000003 010764 000003 000000 000000 177712 177710 004300] [013646 000014]
[pid 12] trap DONE 004274 read(3, 013646, 12) [000014 010764 000003 000000 000000 177712 177710 004300] [013646 000014]
[pid 12] read(3, 013646, 12) = "_mapallo\"\x00\xd2g"
004300 020027  cmp 000014 010764 000003 000000 000000 177712 177710   NZVC1 0000
# 004300 cmp r0, #14 (nextPC=004304)
[pid 12] TRAP
[pid 12] trap 004274 read(3, 013646, 12) [000003 010764 000003 000000 000000 177712 177710 004300] [013646 000014]
[pid 12] trap DONE 004274 read(3, 013646, 12) [000014 010764 000003 000000 000000 177712 177710 004300] [013646 000014]
[pid 12] read(3, 013646, 12) = "_physio\x00\"\x00fi"
004300 020027  cmp 000014 010764 000003 000000 000000 177712 177710   NZVC1 0000
# 004300 cmp r0, #14 (nextPC=004304)
[pid 12] TRAP
[pid 12] trap 004274 read(3, 013646, 12) [000003 010764 000003 000000 000000 177712 177710 004300] [013646 000014]
[pid 12] trap DONE 004274 read(3, 013646, 12) [000014 010764 000003 000000 000000 177712 177710 004300] [013646 000014]
[pid 12] read(3, 013646, 12) = "_partab\x00#\x00\x80\x06"
004300 020027  cmp 000014 010764 000003 000000 000000 177712 177710   NZVC1 0000
# 004300 cmp r0, #14 (nextPC=004304)
[pid 12] TRAP
[pid 12] trap 004274 read(3, 013646, 12) [000003 010764 000003 000000 000000 177712 177710 004300] [013646 000014]
[pid 12] trap DONE 004274 read(3, 013646, 12) [000014 010764 000003 000000 000000 177712 177710 004300] [013646 000014]
[pid 12] read(3, 013646, 12) = "_maptab\x00#\x00\xe6\x05"
004300 020027  cmp 000014 010764 000003 000000 000000 177712 177710   NZVC1 0000
# 004300 cmp r0, #14 (nextPC=004304)
[pid 12] TRAP
[pid 12] trap 004274 read(3, 013646, 12) [000003 010764 000003 000000 000000 177712 177710 004300] [013646 000014]
[pid 12] trap DONE 004274 read(3, 013646, 12) [000014 010764 000003 000000 000000 177712 177710 004300] [013646 000014]
[pid 12] read(3, 013646, 12) = "_cfree\x00\x00$\x00\xd2?"
004300 020027  cmp 000014 010764 000003 000000 000000 177712 177710   NZVC1 0000
# 004300 cmp r0, #14 (nextPC=004304)
[pid 12] TRAP
[pid 12] trap 004274 read(3, 013646, 12) [000003 010764 000003 000000 000000 177712 177710 004300] [013646 000014]
[pid 12] trap DONE 004274 read(3, 013646, 12) [000014 010764 000003 000000 000000 177712 177710 004300] [013646 000014]
[pid 12] read(3, 013646, 12) = "_sgtty\x00\x00\"\x00\x90k"
004300 020027  cmp 000014 010764 000003 000000 000000 177712 177710   NZVC1 0000
# 004300 cmp r0, #14 (nextPC=004304)
[pid 12] TRAP
[pid 12] trap 004274 read(3, 013646, 12) [000003 010764 000003 000000 000000 177712 177710 004300] [013646 000014]
[pid 12] trap DONE 004274 read(3, 013646, 12) [000014 010764 000003 000000 000000 177712 177710 004300] [013646 000014]
[pid 12] read(3, 013646, 12) = "_wflusht\"\x00\xd4k"
004300 020027  cmp 000014 010764 000003 000000 000000 177712 177710   NZVC1 0000
# 004300 cmp r0, #14 (nextPC=004304)
[pid 12] TRAP
[pid 12] trap 004274 read(3, 013646, 12) [000003 010764 000003 000000 000000 177712 177710 004300] [013646 000014]
[pid 12] trap DONE 004274 read(3, 013646, 12) [000014 010764 000003 000000 000000 177712 177710 004300] [013646 000014]
[pid 12] read(3, 013646, 12) = "_flushtt\"\x00Ll"
004300 020027  cmp 000014 010764 000003 000000 000000 177712 177710   NZVC1 0000
# 004300 cmp r0, #14 (nextPC=004304)
[pid 12] TRAP
[pid 12] trap 004274 read(3, 013646, 12) [000003 010764 000003 000000 000000 177712 177710 004300] [013646 000014]
[pid 12] trap DONE 004274 read(3, 013646, 12) [000014 010764 000003 000000 000000 177712 177710 004300] [013646 000014]
[pid 12] read(3, 013646, 12) = "_canon\x00\x00\"\x00\x9el"
004300 020027  cmp 000014 010764 000003 000000 000000 177712 177710   NZVC1 0000
# 004300 cmp r0, #14 (nextPC=004304)
[pid 12] TRAP
[pid 12] trap 004274 read(3, 013646, 12) [000003 010764 000003 000000 000000 177712 177710 004300] [013646 000014]
[pid 12] trap DONE 004274 read(3, 013646, 12) [000014 010764 000003 000000 000000 177712 177710 004300] [013646 000014]
[pid 12] read(3, 013646, 12) = "_ttyinpu\"\x00rm"
004300 020027  cmp 000014 010764 000003 000000 000000 177712 177710   NZVC1 0000
# 004300 cmp r0, #14 (nextPC=004304)
[pid 12] TRAP
[pid 12] trap 004274 read(3, 013646, 12) [000003 010764 000003 000000 000000 177712 177710 004300] [013646 000014]
[pid 12] trap DONE 004274 read(3, 013646, 12) [000014 010764 000003 000000 000000 177712 177710 004300] [013646 000014]
[pid 12] read(3, 013646, 12) = "_ttyoutp\"\x004n"
004300 020027  cmp 000014 010764 000003 000000 000000 177712 177710   NZVC1 0000
# 004300 cmp r0, #14 (nextPC=004304)
[pid 12] TRAP
[pid 12] trap 004274 read(3, 013646, 12) [000003 010764 000003 000000 000000 177712 177710 004300] [013646 000014]
[pid 12] trap DONE 004274 read(3, 013646, 12) [000014 010764 000003 000000 000000 177712 177710 004300] [013646 000014]
[pid 12] read(3, 013646, 12) = "_ttstart\"\x00\xe8o"
004300 020027  cmp 000014 010764 000003 000000 000000 177712 177710   NZVC1 0000
# 004300 cmp r0, #14 (nextPC=004304)
[pid 12] TRAP
[pid 12] trap 004274 read(3, 013646, 12) [000003 010764 000003 000000 000000 177712 177710 004300] [013646 000014]
[pid 12] trap DONE 004274 read(3, 013646, 12) [000014 010764 000003 000000 000000 177712 177710 004300] [013646 000014]
[pid 12] read(3, 013646, 12) = "_ttrstrt\"\x00\xd0o"
004300 020027  cmp 000014 010764 000003 000000 000000 177712 177710   NZVC1 0000
# 004300 cmp r0, #14 (nextPC=004304)
[pid 12] TRAP
[pid 12] trap 004274 read(3, 013646, 12) [000003 010764 000003 000000 000000 177712 177710 004300] [013646 000014]
[pid 12] trap DONE 004274 read(3, 013646, 12) [000014 010764 000003 000000 000000 177712 177710 004300] [013646 000014]
[pid 12] read(3, 013646, 12) = "_ttread\x00\"\x00Rp"
004300 020027  cmp 000014 010764 000003 000000 000000 177712 177710   NZVC1 0000
# 004300 cmp r0, #14 (nextPC=004304)
[pid 12] TRAP
[pid 12] trap 004274 read(3, 013646, 12) [000003 010764 000003 000000 000000 177712 177710 004300] [013646 000014]
[pid 12] trap DONE 004274 read(3, 013646, 12) [000014 010764 000003 000000 000000 177712 177710 004300] [013646 000014]
[pid 12] read(3, 013646, 12) = "_ttwrite\"\x00\x90p"
004300 020027  cmp 000014 010764 000003 000000 000000 177712 177710   NZVC1 0000
# 004300 cmp r0, #14 (nextPC=004304)
[pid 12] TRAP
[pid 12] trap 004274 read(3, 013646, 12) [000003 010764 000003 000000 000000 177712 177710 004300] [013646 000014]
[pid 12] trap DONE 004274 read(3, 013646, 12) [000014 010764 000003 000000 000000 177712 177710 004300] [013646 000014]
[pid 12] read(3, 013646, 12) = "_ttystty\"\x00\xecp"
004300 020027  cmp 000014 010764 000003 000000 000000 177712 177710   NZVC1 0000
# 004300 cmp r0, #14 (nextPC=004304)
[pid 12] TRAP
[pid 12] trap 004274 read(3, 013646, 12) [000003 010764 000003 000000 000000 177712 177710 004300] [013646 000014]
[pid 12] trap DONE 004274 read(3, 013646, 12) [000014 010764 000003 000000 000000 177712 177710 004300] [013646 000014]
[pid 12] read(3, 013646, 12) = "_kl11\x00\x00\x00$\x00\xf2B"
004300 020027  cmp 000014 010764 000003 000000 000000 177712 177710   NZVC1 0000
# 004300 cmp r0, #14 (nextPC=004304)
[pid 12] TRAP
[pid 12] trap 004274 read(3, 013646, 12) [000003 010764 000003 000000 000000 177712 177710 004300] [013646 000014]
[pid 12] trap DONE 004274 read(3, 013646, 12) [000014 010764 000003 000000 000000 177712 177710 004300] [013646 000014]
[pid 12] read(3, 013646, 12) = "_hp_size#\x00\x00\a"
004300 020027  cmp 000014 010764 000003 000000 000000 177712 177710   NZVC1 0000
# 004300 cmp r0, #14 (nextPC=004304)
[pid 12] TRAP
[pid 12] trap 004274 read(3, 013646, 12) [000003 010764 000003 000000 000000 177712 177710 004300] [013646 000014]
[pid 12] trap DONE 004274 read(3, 013646, 12) [000014 010764 000003 000000 000000 177712 177710 004300] [013646 000014]
[pid 12] read(3, 013646, 12) = "_hpbuf\x00\x00$\x00\x12C"
004300 020027  cmp 000014 010764 000003 000000 000000 177712 177710   NZVC1 0000
# 004300 cmp r0, #14 (nextPC=004304)
[pid 12] TRAP
[pid 12] trap 004274 read(3, 013646, 12) [000003 010764 000003 000000 000000 177712 177710 004300] [013646 000014]
[pid 12] trap DONE 004274 read(3, 013646, 12) [000014 010764 000003 000000 000000 177712 177710 004300] [013646 000014]
[pid 12] read(3, 013646, 12) = "_hp_open$\x00*C"
004300 020027  cmp 000014 010764 000003 000000 000000 177712 177710   NZVC1 0000
# 004300 cmp r0, #14 (nextPC=004304)
[pid 12] TRAP
[pid 12] trap 004274 read(3, 013646, 12) [000003 010764 000003 000000 000000 177712 177710 004300] [013646 000014]
[pid 12] trap DONE 004274 read(3, 013646, 12) [000014 010764 000003 000000 000000 177712 177710 004300] [013646 000014]
[pid 12] read(3, 013646, 12) = "_hpstart\"\x00\xd6t"
004300 020027  cmp 000014 010764 000003 000000 000000 177712 177710   NZVC1 0000
# 004300 cmp r0, #14 (nextPC=004304)
[pid 12] TRAP
[pid 12] trap 004274 read(3, 013646, 12) [000003 010764 000003 000000 000000 177712 177710 004300] [013646 000014]
[pid 12] trap DONE 004274 read(3, 013646, 12) [000014 010764 000003 000000 000000 177712 177710 004300] [013646 000014]
[pid 12] read(3, 013646, 12) = "_hpphys\x00\"\x00\xe2u"
004300 020027  cmp 000014 010764 000003 000000 000000 177712 177710   NZVC1 0000
# 004300 cmp r0, #14 (nextPC=004304)
[pid 12] TRAP
[pid 12] trap 004274 read(3, 013646, 12) [000003 010764 000003 000000 000000 177712 177710 004300] [013646 000014]
[pid 12] trap DONE 004274 read(3, 013646, 12) [000014 010764 000003 000000 000000 177712 177710 004300] [013646 000014]
[pid 12] read(3, 013646, 12) = "_rhtbuf\x00$\x00,C"
004300 020027  cmp 000014 010764 000003 000000 000000 177712 177710   NZVC1 0000
# 004300 cmp r0, #14 (nextPC=004304)
[pid 12] TRAP
[pid 12] trap 004274 read(3, 013646, 12) [000003 010764 000003 000000 000000 177712 177710 004300] [013646 000014]
[pid 12] trap DONE 004274 read(3, 013646, 12) [000014 010764 000003 000000 000000 177712 177710 004300] [013646 000014]
[pid 12] read(3, 013646, 12) = "_h_openf$\x00DC"
004300 020027  cmp 000014 010764 000003 000000 000000 177712 177710   NZVC1 0000
# 004300 cmp r0, #14 (nextPC=004304)
[pid 12] TRAP
[pid 12] trap 004274 read(3, 013646, 12) [000003 010764 000003 000000 000000 177712 177710 004300] [013646 000014]
[pid 12] trap DONE 004274 read(3, 013646, 12) [000014 010764 000003 000000 000000 177712 177710 004300] [013646 000014]
[pid 12] read(3, 013646, 12) = "_h_blkno$\x00LC"
004300 020027  cmp 000014 010764 000003 000000 000000 177712 177710   NZVC1 0000
# 004300 cmp r0, #14 (nextPC=004304)
[pid 12] TRAP
[pid 12] trap 004274 read(3, 013646, 12) [000003 010764 000003 000000 000000 177712 177710 004300] [013646 000014]
[pid 12] trap DONE 004274 read(3, 013646, 12) [000014 010764 000003 000000 000000 177712 177710 004300] [013646 000014]
[pid 12] read(3, 013646, 12) = "_h_nxrec$\x00\\C"
004300 020027  cmp 000014 010764 000003 000000 000000 177712 177710   NZVC1 0000
# 004300 cmp r0, #14 (nextPC=004304)
[pid 12] TRAP
[pid 12] trap 004274 read(3, 013646, 12) [000003 010764 000003 000000 000000 177712 177710 004300] [013646 000014]
[pid 12] trap DONE 004274 read(3, 013646, 12) [000014 010764 000003 000000 000000 177712 177710 004300] [013646 000014]
[pid 12] read(3, 013646, 12) = "_hcomman\"\x00\xb8v"
004300 020027  cmp 000014 010764 000003 000000 000000 177712 177710   NZVC1 0000
# 004300 cmp r0, #14 (nextPC=004304)
[pid 12] TRAP
[pid 12] trap 004274 read(3, 013646, 12) [000003 010764 000003 000000 000000 177712 177710 004300] [013646 000014]
[pid 12] trap DONE 004274 read(3, 013646, 12) [000014 010764 000003 000000 000000 177712 177710 004300] [013646 000014]
[pid 12] read(3, 013646, 12) = "_htstart\"\x00\xcew"
004300 020027  cmp 000014 010764 000003 000000 000000 177712 177710   NZVC1 0000
# 004300 cmp r0, #14 (nextPC=004304)
[pid 12] TRAP
[pid 12] trap 004274 read(3, 013646, 12) [000003 010764 000003 000000 000000 177712 177710 004300] [013646 000014]
[pid 12] trap DONE 004274 read(3, 013646, 12) [000014 010764 000003 000000 000000 177712 177710 004300] [013646 000014]
[pid 12] read(3, 013646, 12) = "_htphys\x00\"\x00\xa6y"
004300 020027  cmp 000014 010764 000003 000000 000000 177712 177710   NZVC1 0000
# 004300 cmp r0, #14 (nextPC=004304)
[pid 12] TRAP
[pid 12] trap 004274 read(3, 013646, 12) [000003 010764 000003 000000 000000 177712 177710 004300] [013646 000014]
[pid 12] trap DONE 004274 read(3, 013646, 12) [000014 010764 000003 000000 000000 177712 177710 004300] [013646 000014]
[pid 12] read(3, 013646, 12) = "_rhsbuf\x00$\x00lC"
004300 020027  cmp 000014 010764 000003 000000 000000 177712 177710   NZVC1 0000
# 004300 cmp r0, #14 (nextPC=004304)
[pid 12] TRAP
[pid 12] trap 004274 read(3, 013646, 12) [000003 010764 000003 000000 000000 177712 177710 004300] [013646 000014]
[pid 12] trap DONE 004274 read(3, 013646, 12) [000014 010764 000003 000000 000000 177712 177710 004300] [013646 000014]
[pid 12] read(3, 013646, 12) = "_hsstart\"\x000z"
004300 020027  cmp 000014 010764 000003 000000 000000 177712 177710   NZVC1 0000
# 004300 cmp r0, #14 (nextPC=004304)
[pid 12] TRAP
[pid 12] trap 004400 close(3) [000003 010764 000003 000000 000000 177712 177710 004400] []
[pid 12] trap DONE 004400 close(3) [000003 010764 000003 000000 000000 177712 177710 004400] []
[pid 12] close(3)
004400 012602  mov 000003 010764 000003 000000 000000 177712 177710   NZVC1 0000
# 004400 mov (sp)+, r2 (nextPC=004402)
[pid 12] TRAP
[pid 12] trap 006134 open("/dev/mem", 0) [000003 010764 000000 000000 000000 177712 177712 004432] [005504 000000]
[pid 12] trap DONE 006134 open("/dev/mem", 0) [000003 010764 000000 000000 000000 177712 177712 004432] [005504 000000]
[pid 12] open("/dev/mem", 0) = 3
004432 103002  bcc 000003 010764 000000 000000 000000 177712 177712   NZVC1 0100
# 004432 bcc 4440 (nextPC=004434)
[pid 12] TRAP
[pid 12] trap 006164 seek(3, 780, 0) [000003 010764 000000 000000 000000 177710 177710 005042] [001414 000000]
[pid 12] trap DONE 006164 seek(3, 780, 0) [000003 010764 000000 000000 000000 177710 177710 005042] [001414 000000]
[pid 12] seek(3, 780, 0) = 3
005042 103002  bcc 000003 010764 000000 000000 000000 177710 177710   NZVC1 0100
# 005042 bcc 5050 (nextPC=005044)
[pid 12] TRAP
[pid 12] trap 006156 read(3, 011012, 2) [000003 010764 000000 000000 000000 177710 177710 005000] [011012 000002]
[pid 12] trap DONE 006156 read(3, 011012, 2) [000002 010764 000000 000000 000000 177710 177710 005000] [011012 000002]
[pid 12] read(3, 011012, 2) = "\x01\x03"
005000 103002  bcc 000002 010764 000000 000000 000000 177710 177710   NZVC1 0000
# 005000 bcc 5006 (nextPC=005002)
[pid 12] TRAP
[pid 12] trap 006164 seek(3, 2694, 0) [000003 010764 000000 000000 000000 177710 177710 005042] [005206 000000]
[pid 12] trap DONE 006164 seek(3, 2694, 0) [000003 010764 000000 000000 000000 177710 177710 005042] [005206 000000]
[pid 12] seek(3, 2694, 0) = 3
005042 103002  bcc 000003 010764 000000 000000 000000 177710 177710   NZVC1 0100
# 005042 bcc 5050 (nextPC=005044)
[pid 12] TRAP
[pid 12] trap 006156 read(3, 006204, 1100) [000003 010764 000000 000000 000000 177710 177710 005000] [006204 002114]
[pid 12] trap DONE 006156 read(3, 006204, 1100) [000260 010764 000000 000000 000000 177710 177710 005000] [006204 002114]
[pid 12] read(3, 006204, 1100) = "\x02\x01\x00\x00\x00\x00\x00\x00\x00\x05\x01\x00\x00\x00@\x00\b\x00w\x00\x00\x00\x02\x01\x00\x00\x00\x00\x00\x00\x00\x05\x05\x00\x01\x00A\x00\b\x00t\x00\x00\x00\x02\x01\x00\x00\x00\x00\x00\x00\x00\x05\x06\x00\x01\x00B\x00\b\x00i\x00\x00\x00\x02\x01\x00\x00\x00\x00\x00\x00\x00\x05\a\x00\x01\x00C\x00\b\x00i\x00\x00\x00\x02\x01\x00\x00\x00\x00\x00\x00\x00\x05\b\x00\x01\x00D\x00\b\x00i\x00\x00\x00\x02\x01\x00\x00\x00\x00\x00\x00\x00\x05\t\x00\x01\x00E\x00\b\x00i\x00\x00\x00\x02\x01\x00\x00\x06\x00\x00\x00\x00\x05\n\x00\x01\x00F\x00\b\x00w\x00\x00\x00\x03\x01\x00\x00\x06\x00\x00\x00\x00\x05\f\x00\n\x00G\x00\b\x00\x00\x00\x00\x00\x00\x00\x00\x00\x00\x00\x00\x00\x00\x00\x00\x00\x00\x00\x00\x00\x00\x00\x00\x00\x00\x00\x00\x00\x00\x00\x00\x00\x00\x00\x00\x00\x00\x00\x00\x00\x00\x00\x00\x00\x00\x00\x00\x00\x00\x00\x00\x00\x00\x00\x00\x00\x00\x00\x00\x00\x00\x00\x00\x00\x00\x00\x00\x00\x00\x00\x00\x00\x00\x00\x00\x00\x00\x00\x00\x00\x00\x00\x00\x00\x00\x00\x00\x00\x00\x00\x00\x00\x00\x00\x00\x00\x00\x00\x00\x00\x00\x00\x00\x00\x00\x00\x00\x00\x00\x00\x00\x00\x00\x00\x00\x00\x00\x00\x00\x00\x00\x00\x00\x00\x00\x00\x00\x00\x00\x00\x00\x00\x00\x00\x00\x00\x00\x00\x00\x00\x00\x00\x00\x00\x00\x00\x00\x00\x00\x00\x00\x00\x00\x00\x00\x00\x00\x00\x00\x00\x00\x00\x00\x00\x00\x00\x00\x00\x00\x00\x00\x00\x00\x00\x00\x00\x00\x00\x00\x00\x00\x00\x00\x00\x00\x00\x00\x00\x00\x00\x00\x00\x00\x00\x00\x00\x00\x00\x00\x00\x00\x00\x00\x00\x00\x00\x00\x00\x00\x00\x00\x00\x00\x00\x00\x00\x00\x00\x00\x00\x00\x00\x00\x00\x00\x00\x00\x00\x00\x00\x00\x00\x00\x00\x00\x00\x00\x00\x00\x00\x00\x00\x00\x00\x00\x00\x00\x00\x00\x00\x00\x00\x00\x00\x00\x00\x00\x00\x00\x00\x00\x00\x00\x00\x00\x00\x00\x00\x00\x00\x00\x00\x00\x00\x00\x00\x00\x00\x00\x00\x00\x00\x00\x00\x00\x00\x00\x00\x00\x00\x00\x00\x00\x00\x00\x00\x00\x00\x00\x00\x00\x00\x00\x00\x00\x00\x00\x00\x00\x00\x00\x00\x00\x00\x00\x00\x00\x00\x00\x00\x00\x00\x00\x00\x00\x00\x00\x00\x00\x00\x00\x00\x00\x00\x00\x00\x00\x00\x00\x00\x00\x00\x00\x00\x00\x00\x00\x00\x00\x00\x00\x00\x00\x00\x00\x00\x00\x00\x00\x00\x00\x00\x00\x00\x00\x00\x00\x00\x00\x00\x00\x00\x00\x00\x00\x00\x00\x00\x00\x00\x00\x00\x00\x00\x00\x00\x00\x00\x00\x00\x00\x00\x00\x00\x00\x00\x00\x00\x00\x00\x00\x00\x00\x00\x00\x00\x00\x00\x00\x00\x00\x00\x00\x00\x00\x00\x00\x00\x00\x00\x00\x00\x00\x00\x00\x00\x00\x00\x00\x00\x00\x00\x00\x00\x00\x00\x00\x00\x00\x00\x00\x00\x00\x00\x00\x00\x00\x00\x00\x00\x00\x00\x00\x00\x00\x00\x00\x00\x00\x00\x00\x00\x00\x00\x00\x00\x00\x00\x00\x00\x00\x00\x00\x00\x00\x00\x00\x00\x00\x00\x00\x00\x00\x00\x00\x00\x00\x00\x00\x00\x00\x00\x00\x00\x00\x00\x00\x00\x00\x00\x00\x00\x00\x00\x00\x00\x00\x00\x00\x00\x00\x00\x00\x00\x00\x00\x00\x00\x00\x00\x00\x00\x00\x00\x00\x00\x00\x00\x00\x00\x00\x00\x00\x00\x00\x00\x00\x00\x00\x00\x00\x00\x00\x00\x00\x00\x00\x00\x00\x00\x00\x00\x00\x00\x00\x00\x00\x00\x00\x00\x00\x00\x00\x00\x00\x00\x00\x00\x00\x00\x00\x00\x00\x00\x00\x00\x00\x00\x00\x00\x00\x00\x00\x00\x00\x00\x00\x00\x00\x00\x00\x00\x00\x00\x00\x00\x00\x00\x00\x00\x00\x00\x00\x00\x00\x00\x00\x00\x00\x00\x00\x00\x00\x00\x00\x00\x00\x00\x00\x00\x00\x00\x00\x00\x00\x00\x00\x00\x00\x00\x00\x00\x00\x00\x00\x00\x00\x00\x00\x00\x00\x00\x00\x00\x00\x00\x00\x00\x00\x00\x00\x00\x00\x00\x00\x00\x00\x00\x00\x00\x00\x00\x00\x00\x00\x00\x00\x00\x00\x00\x00\x00\x00\x00\x00\x00\x00\x00\x00\x00\x00\x00\x00\x00\x00\x00\x00\x00\x00\x00\x00\x00\x00\x00\x00\x00\x00\x00\x00\x00\x00\x00\x00\x00\x00\x00\x00\x00\x00\x00\x00\x00\x00\x00\x00\x00\x00\x00\x00\x00\x00\x00\x00\x00\x00\x00\x00\x00\x00\x00\x00\x00\x00\x00\x00\x00\x00\x00\x00\x00\x00\x00\x00\x00\x00\x00\x00\x00\x00\x00\x00\x00\x00\x00\x00\x00\x00\x00\x00\x00\x00\x00\x00\x00\x00\x00\x00\x00\x00\x00\x00\x00\x00\x00\x00\x00\x00\x00\x00\x00\x00\x00\x00\x00\x00\x00\x00\x00\x00\x00\x00\x00\x00\x00\x00\x00\x00\x00\x00\x00\x00\x00\x00\x00\x00\x00\x00\x00\x00\x00\x00\x00\x00\x00\x00\x00\x00\x00\x00\x00\x00\x00\x00\x00\x00\x00\x00\x00\x00\x00\x00\x00\x00\x00\x00\x00\x00\x00\x00\x00\x00\x00\x00\x00\x00\x00\x00\x00\x00\x00\x00\x00\x00\x00\x00\x00\x00\x00\x00\x00\x00\x00\x00\x00\x00\x00\x00\x00\x00\x00\x00\x00\x00\x00\x00\x00\x00\x00\x00\x00\x00\x00\x00\x00\x00\x00\x00\x00\x00\x00\x00\x00\x00\x00\x00\x00\x00\x00\x00\x00\x00\x00\x00\x00\x00\x00\x00\x00\x00\x00\x00\x00\x00\x00\x00\x00\x00\x00\x00\x00\x00\x00\x00\x00\x00\x00\x00\x00"
005000 103002  bcc 000260 010764 000000 000000 000000 177710 177710   NZVC1 0000
# 005000 bcc 5006 (nextPC=005002)
[pid 12] TRAP
[pid 12] trap 006134 open("/dev", 0) [001626 010764 000000 000000 000000 176626 176626 004432] [005744 000000]
[pid 12] trap DONE 006134 open("/dev", 0) [000004 010764 000000 000000 000000 176626 176626 004432] [005744 000000]
[pid 12] open("/dev", 0) = 4
004432 103002  bcc 000004 010764 000000 000000 000000 176626 176626   NZVC1 0100
# 004432 bcc 4440 (nextPC=004434)
[pid 12] TRAP
[pid 12] trap 006156 read(4, 176704, 512) [000004 010764 000000 000000 000000 176622 176622 005000] [176704 001000]
[pid 12] trap DONE 006156 read(4, 176704, 512) [000260 010764 000000 000000 000000 176622 176622 005000] [176704 001000]
[pid 12] read(4, 176704, 512) = "C\x00.\x00\x00\x00\x00\x00\x00\x00\x00\x00\x00\x00\x00\x00\x01\x00..\x00\x00\x00\x00\x00\x00\x00\x00\x00\x00\x00\x00D\x00kmem\x00\x00\x00\x00\x00\x00\x00\x00\x00\x00E\x00mem\x00\x00\x00\x00\x00\x00\x00\x00\x00\x00\x00F\x00null\x00\x00\x00\x00\x00\x00\x00\x00\x00\x00G\x00tty8\x00\x00\x00\x00\x00\x00\x00\x00\x00\x00\x1d\x05tty0\x00\x00\x00\x00\x00\x00\x00\x00\x00\x00\x1e\x05tty1\x00\x00\x00\x00\x00\x00\x00\x00\x00\x00\x1f\x05tty2\x00\x00\x00\x00\x00\x00\x00\x00\x00\x00 \x05tty3\x00\x00\x00\x00\x00\x00\x00\x00\x00\x00!\x05swap\x00\x00\x00\x00\x00\x00\x00\x00\x00\x00\x00\x00\x00\x00\x00\x00\x00\x00\x00\x00\x00\x00\x00\x00\x00\x00\x00\x00\x00\x00\x00\x00\x00\x00\x00\x00\x00\x00\x00\x00\x00\x00\x00\x00\x00\x00\x00\x00\x00\x00\x00\x00\x00\x00\x00\x00\x00\x00\x00\x00\x00\x00\x00\x00\x00\x00\x00\x00\x00\x00\x00\x00\x00\x00\x00\x00\x00\x00\x00\x00\x00\x00\x00\x00\x00\x00\x00\x00\x00\x00\x00\x00\x00\x00\x00\x00\x00\x00\x00\x00\x00\x00\x00\x00\x00\x00\x00\x00\x00\x00\x00\x00\x00\x00\x00\x00\x00\x00\x00\x00\x00\x00\x00\x00\x00\x00\x00\x00\x00\x00\x00\x00\x00\x00\x00\x00\x00\x00\x00\x00\x00\x00\x00\x00\x00\x00\x00\x00\x00\x00\x00\x00\x00\x00\x00\x00\x00\x00\x00\x00\x00\x00\x00\x00\x00\x00\x00\x00\x00\x00\x00\x00\x00\x00\x00\x00\x00\x00\x00\x00\x00\x00\x00\x00\x00\x00\x00\x00\x00\x00\x00\x00\x00\x00\x00\x00\x00\x00\x00\x00\x00\x00\x00\x00\x00\x00\x00\x00\x00\x00\x00\x00\x00\x00\x00\x00\x00\x00\x00\x00\x00\x00\x00\x00\x00\x00\x00\x00\x00\x00\x00\x00\x00\x00\x00\x00\x00\x00\x00\x00\x00\x00\x00\x00\x00\x00\x00\x00\x00\x00\x00\x00\x00\x00\x00\x00\x00\x00\x00\x00\x00\x00\x00\x00\x00\x00\x00\x00\x00\x00\x00\x00\x00\x00\x00\x00\x00\x00\x00\x00\x00\x00\x00\x00\x00\x00\x00\x00\x00\x00\x00\x00\x00\x00\x00\x00\x00\x00\x00\x00\x00\x00\x00\x00\x00\x00\x00\x00\x00\x00\x00\x00\x00\x00\x00\x00\x00\x00\x00\x00\x00\x00\x00\x00\x00\x00\x00\x00\x00\x00\x00\x00\x00\x00\x00\x00\x00\x00\x00\x00\x00\x00\x00\x00\x00\x00"
005000 103002  bcc 000260 010764 000000 000000 000000 176622 176622   NZVC1 0000
# 005000 bcc 5006 (nextPC=005002)
001776 060500  add 000275 010764 000000 000275 000000 177714 176632   NZVC1 0000
# 001776 add r5, r0 (nextPC=002000)
002004 005203  inc 000227 010764 000000 000313 000000 177714 176632   NZVC1 0100
# 002004 inc r3 (nextPC=002006)
001766 022703  cmp 000245 010764 000000 000332 000000 177714 176632   NZVC1 0000
# 001766 cmp #1000, r3 (nextPC=001772)
001774 010300  mov 000263 010764 000000 000350 000000 177714 176632   NZVC1 0000
# 001774 mov r3, r0 (nextPC=001776)
002000 105060 clrb 000302 010764 000000 000366 000000 177714 176632   NZVC1 0001
# 002000 clrb -1010(r0) (nextPC=002004)
002006 000767   br 000320 010764 000000 000405 000000 177714 176632   NZVC1 0000
# 002006 br 1766 (nextPC=002010)
001772 003406  ble 000336 010764 000000 000423 000000 177714 176632   NZVC1 0000
# 001772 ble 2010 (nextPC=001774)
001776 060500  add 000441 010764 000000 000441 000000 177714 176632   NZVC1 0000
# 001776 add r5, r0 (nextPC=002000)
002004 005203  inc 000373 010764 000000 000457 000000 177714 176632   NZVC1 0100
# 002004 inc r3 (nextPC=002006)
001766 022703  cmp 000411 010764 000000 000476 000000 177714 176632   NZVC1 0000
# 001766 cmp #1000, r3 (nextPC=001772)
001774 010300  mov 000427 010764 000000 000514 000000 177714 176632   NZVC1 0000
# 001774 mov r3, r0 (nextPC=001776)
002000 105060 clrb 000446 010764 000000 000532 000000 177714 176632   NZVC1 0001
# 002000 clrb -1010(r0) (nextPC=002004)
002006 000767   br 000464 010764 000000 000551 000000 177714 176632   NZVC1 0000
# 002006 br 1766 (nextPC=002010)
001772 003406  ble 000502 010764 000000 000567 000000 177714 176632   NZVC1 0000
# 001772 ble 2010 (nextPC=001774)
001776 060500  add 000605 010764 000000 000605 000000 177714 176632   NZVC1 0000
# 001776 add r5, r0 (nextPC=002000)
002004 005203  inc 000537 010764 000000 000623 000000 177714 176632   NZVC1 0100
# 002004 inc r3 (nextPC=002006)
001766 022703  cmp 000555 010764 000000 000642 000000 177714 176632   NZVC1 0000
# 001766 cmp #1000, r3 (nextPC=001772)
001774 010300  mov 000573 010764 000000 000660 000000 177714 176632   NZVC1 0000
# 001774 mov r3, r0 (nextPC=001776)
002000 105060 clrb 000612 010764 000000 000676 000000 177714 176632   NZVC1 0001
# 002000 clrb -1010(r0) (nextPC=002004)
002006 000767   br 000630 010764 000000 000715 000000 177714 176632   NZVC1 0000
# 002006 br 1766 (nextPC=002010)
001772 003406  ble 000646 010764 000000 000733 000000 177714 176632   NZVC1 0000
# 001772 ble 2010 (nextPC=001774)
001776 060500  add 000751 010764 000000 000751 000000 177714 176632   NZVC1 0000
# 001776 add r5, r0 (nextPC=002000)
002004 005203  inc 000703 010764 000000 000767 000000 177714 176632   NZVC1 0100
# 002004 inc r3 (nextPC=002006)
[pid 12] TRAP
[pid 12] trap 006172 stat(".", 176634) [177704 010764 000000 001000 176704 176624 176624 005102] [176706 176634]
[pid 12] trap DONE 006172 stat(".", 176634) [177704 010764 000000 001000 176704 176624 176624 005102] [176706 176634]
[pid 12] stat(".", 176634)
005102 103002  bcc 177704 010764 000000 001000 176704 176624 176624   NZVC1 1000
# 005102 bcc 5110 (nextPC=005104)
[pid 12] TRAP
[pid 12] trap 006172 stat("..", 176634) [177704 010764 000000 001000 176724 176624 176624 005102] [176726 176634]
[pid 12] trap DONE 006172 stat("..", 176634) [177704 010764 000000 001000 176724 176624 176624 005102] [176726 176634]
[pid 12] stat("..", 176634)
005102 103002  bcc 177704 010764 000000 001000 176724 176624 176624   NZVC1 1000
# 005102 bcc 5110 (nextPC=005104)
[pid 12] TRAP
[pid 12] trap 006172 stat("kmem", 176634) [177704 010764 000000 001000 176744 176624 176624 005102] [176746 176634]
[pid 12] trap DONE 006172 stat("kmem", 176634) [177704 010764 000000 001000 176744 176624 176624 005102] [176746 176634]
[pid 12] stat("kmem", 176634)
005102 103002  bcc 177704 010764 000000 001000 176744 176624 176624   NZVC1 1000
# 005102 bcc 5110 (nextPC=005104)
[pid 12] TRAP
[pid 12] trap 006172 stat("mem", 176634) [177704 010764 000000 001000 176764 176624 176624 005102] [176766 176634]
[pid 12] trap DONE 006172 stat("mem", 176634) [177704 010764 000000 001000 176764 176624 176624 005102] [176766 176634]
[pid 12] stat("mem", 176634)
005102 103002  bcc 177704 010764 000000 001000 176764 176624 176624   NZVC1 1000
# 005102 bcc 5110 (nextPC=005104)
[pid 12] TRAP
[pid 12] trap 006172 stat("null", 176634) [177704 010764 000000 001000 177004 176624 176624 005102] [177006 176634]
[pid 12] trap DONE 006172 stat("null", 176634) [177704 010764 000000 001000 177004 176624 176624 005102] [177006 176634]
[pid 12] stat("null", 176634)
005102 103002  bcc 177704 010764 000000 001000 177004 176624 176624   NZVC1 1000
# 005102 bcc 5110 (nextPC=005104)
[pid 12] TRAP
[pid 12] trap 006172 stat("tty8", 176634) [177704 010764 000000 001000 177024 176624 176624 005102] [177026 176634]
[pid 12] trap DONE 006172 stat("tty8", 176634) [177704 010764 000000 001000 177024 176624 176624 005102] [177026 176634]
[pid 12] stat("tty8", 176634)
005102 103002  bcc 177704 010764 000000 001000 177024 176624 176624   NZVC1 1000
# 005102 bcc 5110 (nextPC=005104)
[pid 12] TRAP
[pid 12] trap 006172 stat("tty0", 176634) [177704 010764 000001 001000 177044 176624 176624 005102] [177046 176634]
[pid 12] trap DONE 006172 stat("tty0", 176634) [177704 010764 000001 001000 177044 176624 176624 005102] [177046 176634]
[pid 12] stat("tty0", 176634)
005102 103002  bcc 177704 010764 000001 001000 177044 176624 176624   NZVC1 1000
# 005102 bcc 5110 (nextPC=005104)
[pid 12] TRAP
[pid 12] trap 006172 stat("tty1", 176634) [177704 010764 000002 001000 177064 176624 176624 005102] [177066 176634]
[pid 12] trap DONE 006172 stat("tty1", 176634) [177704 010764 000002 001000 177064 176624 176624 005102] [177066 176634]
[pid 12] stat("tty1", 176634)
005102 103002  bcc 177704 010764 000002 001000 177064 176624 176624   NZVC1 1000
# 005102 bcc 5110 (nextPC=005104)
[pid 12] TRAP
[pid 12] trap 006172 stat("tty2", 176634) [177704 010764 000003 001000 177104 176624 176624 005102] [177106 176634]
[pid 12] trap DONE 006172 stat("tty2", 176634) [177704 010764 000003 001000 177104 176624 176624 005102] [177106 176634]
[pid 12] stat("tty2", 176634)
005102 103002  bcc 177704 010764 000003 001000 177104 176624 176624   NZVC1 1000
# 005102 bcc 5110 (nextPC=005104)
[pid 12] TRAP
[pid 12] trap 006172 stat("tty3", 176634) [177704 010764 000004 001000 177124 176624 176624 005102] [177126 176634]
[pid 12] trap DONE 006172 stat("tty3", 176634) [177704 010764 000004 001000 177124 176624 176624 005102] [177126 176634]
[pid 12] stat("tty3", 176634)
005102 103002  bcc 177704 010764 000004 001000 177124 176624 176624   NZVC1 1000
# 005102 bcc 5110 (nextPC=005104)
[pid 12] TRAP
[pid 12] trap 006172 stat("swap", 176634) [177704 010764 000005 001000 177144 176624 176624 005102] [177146 176634]
[pid 12] trap DONE 006172 stat("swap", 176634) [177704 010764 000005 001000 177144 176624 176624 005102] [177146 176634]
[pid 12] stat("swap", 176634)
005102 103002  bcc 177704 010764 000005 001000 177144 176624 176624   NZVC1 1000
# 005102 bcc 5110 (nextPC=005104)
[pid 12] TRAP
[pid 12] trap 006134 open("swap", 0) [060000 010764 000005 001000 177144 176624 176624 004432] [177146 000000]
[pid 12] trap DONE 006134 open("swap", 0) [000005 010764 000005 001000 177144 176624 176624 004432] [177146 000000]
[pid 12] open("swap", 0) = 5
004432 103002  bcc 000005 010764 000005 001000 177144 176624 176624   NZVC1 0100
# 004432 bcc 4440 (nextPC=004434)
002032 001511  beq 177704 010764 000005 001000 177444 177714 176632   NZVC1 0100
# 002032 beq 2256 (nextPC=002034)
[pid 12] TRAP
[pid 12] trap 006156 read(4, 176704, 512) [000004 010764 000005 001000 177704 176622 176622 005000] [176704 001000]
[pid 12] trap DONE 006156 read(4, 176704, 512) [000000 010764 000005 001000 177704 176622 176622 005000] [176704 001000]
[pid 12] read(4, 176704, 512) = "C\x00.\x00\x00\x00\x00\x00\x00\x00\x00\x00\x00\x00\x00\x00\x01\x00..\x00\x00\x00\x00\x00\x00\x00\x00\x00\x00\x00\x00D\x00kmem\x00\x00\x00\x00\x00\x00\x00\x00\x00\x00E\x00mem\x00\x00\x00\x00\x00\x00\x00\x00\x00\x00\x00F\x00null\x00\x00\x00\x00\x00\x00\x00\x00\x00\x00G\x00tty8\x00\x00\x00\x00\x00\x00\x00\x00\x00\x00\x1d\x05tty0\x00\x00\x00\x00\x00\x00\x00\x00\x00\x00\x1e\x05tty1\x00\x00\x00\x00\x00\x00\x00\x00\x00\x00\x1f\x05tty2\x00\x00\x00\x00\x00\x00\x00\x00\x00\x00 \x05tty3\x00\x00\x00\x00\x00\x00\x00\x00\x00\x00!\x05swap\x00\x00\x00\x00\x00\x00\x00\x00\x00\x00\x00\x00\x00\x00\x00\x00\x00\x00\x00\x00\x00\x00\x00\x00\x00\x00\x00\x00\x00\x00\x00\x00\x00\x00\x00\x00\x00\x00\x00\x00\x00\x00\x00\x00\x00\x00\x00\x00\x00\x00\x00\x00\x00\x00\x00\x00\x00\x00\x00\x00\x00\x00\x00\x00\x00\x00\x00\x00\x00\x00\x00\x00\x00\x00\x00\x00\x00\x00\x00\x00\x00\x00\x00\x00\x00\x00\x00\x00\x00\x00\x00\x00\x00\x00\x00\x00\x00\x00\x00\x00\x00\x00\x00\x00\x00\x00\x00\x00\x00\x00\x00\x00\x00\x00\x00\x00\x00\x00\x00\x00\x00\x00\x00\x00\x00\x00\x00\x00\x00\x00\x00\x00\x00\x00\x00\x00\x00\x00\x00\x00\x00\x00\x00\x00\x00\x00\x00\x00\x00\x00\x00\x00\x00\x00\x00\x00\x00\x00\x00\x00\x00\x00\x00\x00\x00\x00\x00\x00\x00\x00\x00\x00\x00\x00\x00\x00\x00\x00\x00\x00\x00\x00\x00\x00\x00\x00\x00\x00\x00\x00\x00\x00\x00\x00\x00\x00\x00\x00\x00\x00\x00\x00\x00\x00\x00\x00\x00\x00\x00\x00\x00\x00\x00\x00\x00\x00\x00\x00\x00\x00\x00\x00\x00\x00\x00\x00\x00\x00\x00\x00\x00\x00\x00\x00\x00\x00\x00\x00\x00\x00\x00\x00\x00\x00\x00\x00\x00\x00\x00\x00\x00\x00\x00\x00\x00\x00\x00\x00\x00\x00\x00\x00\x00\x00\x00\x00\x00\x00\x00\x00\x00\x00\x00\x00\x00\x00\x00\x00\x00\x00\x00\x00\x00\x00\x00\x00\x00\x00\x00\x00\x00\x00\x00\x00\x00\x00\x00\x00\x00\x00\x00\x00\x00\x00\x00\x00\x00\x00\x00\x00\x00\x00\x00\x00\x00\x00\x00\x00\x00\x00\x00\x00\x00\x00\x00\x00\x00\x00\x00\x00\x00\x00\x00\x00\x00\x00\x00\x00\x00\x00\x00\x00\x00\x00\x00\x00"
005000 103002  bcc 000000 010764 000005 001000 177704 176622 176622   NZVC1 0000
# 005000 bcc 5006 (nextPC=005002)
[pid 12] TRAP
[pid 12] trap 004024 close(4) [000004 010764 000005 000000 177704 176626 176626 004024] []
[pid 12] trap DONE 004024 close(4) [000004 010764 000005 000000 177704 176626 176626 004024] []
[pid 12] close(4)
004024 103002  bcc 000004 010764 000005 000000 177704 176626 176626   NZVC1 0000
# 004024 bcc 4032 (nextPC=004026)
[pid 12] TRAP
[pid 12] trap 005236 fstat(6072, 001000) [000000 177706 000000 000000 000000 177714 177710 005240] [013670]
[pid 12] trap DONE 005236 fstat(6072, 001000) [000000 177706 000000 000000 000000 177714 177710 005240] [013670]
[pid 12] fstat(6072, 001000)
005240 103442  bcs 000000 177706 000000 000000 000000 177714 177710   NZVC1 0100
# 005240 bcs 5346 (nextPC=005242)
[pid 12] TRAP
[pid 12] trap 005250 open("/dev", 0) [000000 177706 000000 000000 000000 177714 177710 005254] [006176 000000]
[pid 12] trap DONE 005250 open("/dev", 0) [000004 177706 000000 000000 000000 177714 177710 005254] [006176 000000]
[pid 12] open("/dev", 0) = 4
005254 103434  bcs 000004 177706 000000 000000 000000 177714 177710   NZVC1 0000
# 005254 bcs 5346 (nextPC=005256)
[pid 12] TRAP
[pid 12] trap 005264 read(4, 013670, 16) [000004 000004 000000 000000 000000 177714 177710 005270] [013670 000020]
[pid 12] trap DONE 005264 read(4, 013670, 16) [000020 000004 000000 000000 000000 177714 177710 005270] [013670 000020]
[pid 12] read(4, 013670, 16) = "C\x00.\x00\x00\x00\x00\x00\x00\x00\x00\x00\x00\x00\x00\x00"
005270 103424  bcs 000020 000004 000000 000000 000000 177714 177710   NZVC1 0000
# 005270 bcs 5342 (nextPC=005272)
[pid 12] TRAP
[pid 12] trap 005264 read(4, 013670, 16) [000004 000004 000000 000000 000000 177714 177710 005270] [013670 000020]
[pid 12] trap DONE 005264 read(4, 013670, 16) [000020 000004 000000 000000 000000 177714 177710 005270] [013670 000020]
[pid 12] read(4, 013670, 16) = "\x01\x00..\x00\x00\x00\x00\x00\x00\x00\x00\x00\x00\x00\x00"
005270 103424  bcs 000020 000004 000000 000000 000000 177714 177710   NZVC1 0000
# 005270 bcs 5342 (nextPC=005272)
[pid 12] TRAP
[pid 12] trap 005264 read(4, 013670, 16) [000004 000004 000000 000000 000000 177714 177710 005270] [013670 000020]
[pid 12] trap DONE 005264 read(4, 013670, 16) [000020 000004 000000 000000 000000 177714 177710 005270] [013670 000020]
[pid 12] read(4, 013670, 16) = "D\x00kmem\x00\x00\x00\x00\x00\x00\x00\x00\x00\x00"
005270 103424  bcs 000020 000004 000000 000000 000000 177714 177710   NZVC1 0000
# 005270 bcs 5342 (nextPC=005272)
[pid 12] TRAP
[pid 12] trap 005264 read(4, 013670, 16) [000004 000004 000000 000000 000000 177714 177710 005270] [013670 000020]
[pid 12] trap DONE 005264 read(4, 013670, 16) [000020 000004 000000 000000 000000 177714 177710 005270] [013670 000020]
[pid 12] read(4, 013670, 16) = "E\x00mem\x00\x00\x00\x00\x00\x00\x00\x00\x00\x00\x00"
005270 103424  bcs 000020 000004 000000 000000 000000 177714 177710   NZVC1 0000
# 005270 bcs 5342 (nextPC=005272)
[pid 12] TRAP
[pid 12] trap 005264 read(4, 013670, 16) [000004 000004 000000 000000 000000 177714 177710 005270] [013670 000020]
[pid 12] trap DONE 005264 read(4, 013670, 16) [000020 000004 000000 000000 000000 177714 177710 005270] [013670 000020]
[pid 12] read(4, 013670, 16) = "F\x00null\x00\x00\x00\x00\x00\x00\x00\x00\x00\x00"
005270 103424  bcs 000020 000004 000000 000000 000000 177714 177710   NZVC1 0000
# 005270 bcs 5342 (nextPC=005272)
[pid 12] TRAP
[pid 12] trap 005264 read(4, 013670, 16) [000004 000004 000000 000000 000000 177714 177710 005270] [013670 000020]
[pid 12] trap DONE 005264 read(4, 013670, 16) [000020 000004 000000 000000 000000 177714 177710 005270] [013670 000020]
[pid 12] read(4, 013670, 16) = "G\x00tty8\x00\x00\x00\x00\x00\x00\x00\x00\x00\x00"
005270 103424  bcs 000020 000004 000000 000000 000000 177714 177710   NZVC1 0000
# 005270 bcs 5342 (nextPC=005272)
[pid 12] TRAP
[pid 12] trap 005346 close(4) [000004 000004 000000 000000 000000 177714 177710 005346] []
[pid 12] trap DONE 005346 close(4) [000004 000004 000000 000000 000000 177714 177710 005346] []
[pid 12] close(4)
005346 005726  tst 000004 000004 000000 000000 000000 177714 177710   NZVC1 0000
# 005346 tst (sp)+ (nextPC=005350)
[pid 12] TRAP
[pid 12] trap 004046 getuid() [000070 000004 000000 000000 000000 177714 177714 004046] []
[pid 12] trap DONE 004046 getuid() [003006 000004 000000 000000 000000 177714 177714 004046] []
[pid 12] getuid() = 1542
004046 012605  mov 003006 000004 000000 000000 000000 177714 177714   NZVC1 1000
# 004046 mov (sp)+, r5 (nextPC=004050)
004744 012605  mov 000124 012622 000000 000000 177722 177464 177464   NZVC1 0100
# 004744 mov (sp)+, r5 (nextPC=004746)
005130 010500  mov 000106 177474 000000 000000 177722 003054 177502   NZVC1 0000
# 005130 mov r5, r0 (nextPC=005132)
004744 012605  mov 000123 012622 000000 000000 177722 177464 177464   NZVC1 0100
# 004744 mov (sp)+, r5 (nextPC=004746)
005130 010500  mov 000111 177474 000000 000000 177722 003054 177502   NZVC1 0000
# 005130 mov r5, r0 (nextPC=005132)
004744 012605  mov 000040 012622 000000 000000 177722 177464 177464   NZVC1 0100
# 004744 mov (sp)+, r5 (nextPC=004746)
005130 010500  mov 000120 177474 000000 000000 177722 003054 177502   NZVC1 0000
# 005130 mov r5, r0 (nextPC=005132)
004744 012605  mov 000104 012622 000000 000000 177722 177464 177464   NZVC1 0100
# 004744 mov (sp)+, r5 (nextPC=004746)
005130 010500  mov 000122 177474 000000 000000 177722 003054 177502   NZVC1 0000
# 005130 mov r5, r0 (nextPC=005132)
004744 012605  mov 000040 012622 000000 000000 177722 177464 177464   NZVC1 0100
# 004744 mov (sp)+, r5 (nextPC=004746)
005130 010500  mov 000104 177474 000000 000000 177722 003054 177502   NZVC1 0000
# 005130 mov r5, r0 (nextPC=005132)
004744 012605  mov 000040 012622 000000 000000 177722 177464 177464   NZVC1 0100
# 004744 mov (sp)+, r5 (nextPC=004746)
005130 010500  mov 000132 177474 000000 000000 177722 003054 177502   NZVC1 0000
# 005130 mov r5, r0 (nextPC=005132)
004744 012605  mov 000040 012622 000000 000000 177722 177464 177464   NZVC1 0100
# 004744 mov (sp)+, r5 (nextPC=004746)
005130 010500  mov 000110 177474 000000 000000 177722 003054 177502   NZVC1 0000
# 005130 mov r5, r0 (nextPC=005132)
004744 012605  mov 000116 012622 000000 000000 177722 177464 177464   NZVC1 0100
# 004744 mov (sp)+, r5 (nextPC=004746)
005130 010500  mov 000117 177474 000000 000000 177722 003054 177502   NZVC1 0000
# 005130 mov r5, r0 (nextPC=005132)
004744 012605  mov 000115 012622 000000 000000 177722 177464 177464   NZVC1 0100
# 004744 mov (sp)+, r5 (nextPC=004746)
005130 010500  mov 000104 177474 000000 000000 177722 003054 177502   NZVC1 0000
# 005130 mov r5, r0 (nextPC=005132)
000700 026261  cmp 000000 000000 000000 000000 000000 177752 177720   NZVC1 0100
# 000700 cmp 12416(r2), 6214(r1) (nextPC=000706)
[pid 12] TRAP
[pid 12] trap 006164 seek(3, 1280, 0) [000003 000000 000010 000000 000000 177710 177710 005042] [002400 000000]
[pid 12] trap DONE 006164 seek(3, 1280, 0) [000003 000000 000010 000000 000000 177710 177710 005042] [002400 000000]
[pid 12] seek(3, 1280, 0) = 3
005042 103002  bcc 000003 000000 000010 000000 000000 177710 177710   NZVC1 0100
# 005042 bcc 5050 (nextPC=005044)
[pid 12] TRAP
[pid 12] trap 006156 read(3, 011030, 32) [000003 000000 000010 000000 000000 177710 177710 005000] [011030 000040]
[pid 12] trap DONE 006156 read(3, 011030, 32) [000040 000000 000010 000000 000000 177710 177710 005000] [011030 000040]
[pid 12] read(3, 011030, 32) = "\x00\x00\x00\x00\x00\x00\x00\x00\x00\x00\x00\x00\x00\x00\x00\x00\x00\x00\xda\x10\x00\x00\x00\x00#@\x14\x00\x03\x03\b\x04"
005000 103002  bcc 000040 000000 000010 000000 000000 177710 177710   NZVC1 0000
# 005000 bcc 5006 (nextPC=005002)
003262 000112  jmp 000143 006062 003342 177510 177720 177712 177504   NZVC1 0100
# 003262 jmp (r2) (nextPC=003264)
003152 000167  jmp 000000 177472 177511 177777 177722 177712 177504   NZVC1 0100
# 003152 jmp 5146 (nextPC=003156)
003504 000207  rts 000061 000000 006106 177505 177716 177706 177476   NZVC1 0001
# 003504 rts pc (nextPC=003506)
004614 002004  bge 003054 012622 177505 000000 000001 177452 177452   NZVC1 0000
# 004614 bge 4626 (nextPC=004616)
003254 001732  beq 000143 006044 003404 177504 177716 177706 177500   NZVC1 0001
# 003254 beq 3142 (nextPC=003256)
003710 001002  bne 000064 000004 177505 003212 177720 177706 177476   NZVC1 0001
# 003710 bne 3716 (nextPC=003712)
003072 000167  jmp 000040 012622 177504 000002 000001 177470 177460   NZVC1 0000
# 003072 jmp 5146 (nextPC=003076)
001330 004737  jsr 000000 000000 000010 000000 000000 177752 177716   NZVC1 0000
# 001330 jsr pc, @#3076 (nextPC=001334)
003564 010446  mov 000061 000000 177510 000001 177722 177712 177504   NZVC1 0000
# 003564 mov r4, -(sp) (nextPC=003566)
003070 005726  tst 000040 012622 177510 000003 000001 177474 177462   NZVC1 1000
# 003070 tst (sp)+ (nextPC=003072)
004636 005261  inc 000061 012622 177511 000000 000001 177456 177456   NZVC1 0000
# 004636 inc 4(r1) (nextPC=004642)
003254 001732  beq 000144 006034 003264 177504 177714 177706 177500   NZVC1 0000
# 003254 beq 3142 (nextPC=003256)
005134 010446  mov 003054 177462 177504 000001 000001 177470 177470   NZVC1 1000
# 005134 mov r4, -(sp) (nextPC=005136)
003716 020027  cmp 000077 000005 177505 003212 177716 177706 177476   NZVC1 0001
# 003716 cmp r0, #11 (nextPC=003722)
005154 014102  mov 000040 177464 177504 000002 000003 177470 177460   NZVC1 0000
# 005154 mov -(r1), r2 (nextPC=005156)
004746 000207  rts 000060 012622 177506 000000 000002 177470 177454   NZVC1 1000
# 004746 rts pc (nextPC=004750)
003316 010146  mov 000000 000001 003264 177504 177722 177706 177476   NZVC1 0100
# 003316 mov r1, -(sp) (nextPC=003320)
004602 010605  mov 003054 177462 177504 000001 000001 177470 177452   NZVC1 1000
# 004602 mov sp, r5 (nextPC=004604)
003156 005067  clr 000045 000000 000010 000000 177720 177712 177504   NZVC1 0100
# 003156 clr 13640 (nextPC=003162)
005140 010246  mov 003054 000000 177510 000004 000003 177474 177470   NZVC1 0000
# 005140 mov r2, -(sp) (nextPC=005142)
005134 010446  mov 003054 177466 177510 000001 000003 177474 177474   NZVC1 1000
# 005134 mov r4, -(sp) (nextPC=005136)
005162 000207  rts 000066 177466 177512 000000 000002 177712 177476   NZVC1 1000
# 005162 rts pc (nextPC=005164)
005022 016567  mov 000003 000000 000010 000000 000000 177662 177662   NZVC1 0000
# 005022 mov 6(r5), 6164 (nextPC=005030)
[pid 12] TRAP
[pid 12] trap 006164 seek(3, 8, 3) [000003 000000 000010 000000 000000 177662 177662 005042] [000010 000003]
[pid 12] trap DONE 006164 seek(3, 8, 3) [000003 000000 000010 000000 000000 177662 177662 005042] [000010 000003]
[pid 12] seek(3, 8, 3) = 3
005042 103002  bcc 000003 000000 000010 000000 000000 177662 177662   NZVC1 0000
# 005042 bcc 5050 (nextPC=005044)
[pid 12] TRAP
[pid 12] trap 006164 seek(3, 0, 1) [000003 000000 000010 000000 000000 177662 177662 005042] [000000 000001]
[pid 12] trap DONE 006164 seek(3, 0, 1) [000003 000000 000010 000000 000000 177662 177662 005042] [000000 000001]
[pid 12] seek(3, 0, 1) = 3
005042 103002  bcc 000003 000000 000010 000000 000000 177662 177662   NZVC1 0000
# 005042 bcc 5050 (nextPC=005044)
[pid 12] TRAP
[pid 12] trap 006156 read(3, 011106, 512) [000003 000000 000010 000000 000000 177662 177662 005000] [011106 001000]
[pid 12] trap DONE 006156 read(3, 011106, 512) [001000 000000 000010 000000 000000 177662 177662 005000] [011106 001000]
[pid 12] read(3, 011106, 512) = "\x00\x00\x00\x00\x00\x00\x00\x00\x00\x00\x00\x00\x00\x00\x00\x00\x00\x00\x00\x00\x00\x00\x00\x00\x00\x00\x00\x00\x00\x00\x00\x00\x00\x00\x00\x00\x00\x00\x00\x00\x00\x00\x00\x00\x00\x00\x00\x00\x00\x00\x00\x00\x00\x00\x00\x00\x00\x00\x00\x00\x00\x00\x00\x00\x00\x00\x00\x00\x00\x00\x00\x00\x00\x00\x00\x00\x00\x00\x00\x00\x00\x00\x00\x00\x00\x00\x00\x00\x00\x00\x00\x00\x00\x00\x00\x00\x00\x00\x00\x00\x00\x00\x00\x00\x00\x00\x00\x00\x00\x00\x00\x00\x00\x00\x00\x00\x00\x00\x00\x00\x00\x00\x00\x00\x00\x00\x00\x00\x00\x00\x00\x00\x00\x00\x00\x00\x00\x00\x00\x00\x00\x00\x00\x00\x00\x00\x00\x00\x00\x00\x00\x00\x00\x00\x00\x00\x00\x00\x00\x00\x00\x00\x00\x00\x00\x00\x00\x00\x00\x00\x00\x00\x00\x00\x00\x00\x00\x00\x00\x00\x00\x00\x00\x00\x00\x00\x00\x00\x00\x00\x00\x00\x00\x00\x00\x00\x00\x00\x00\x00\x00\x00\x00\x00\x00\x00\x00\x00\x00\x00\x00\x00\x00\x00\x00\x00\x00\x00\x00\x00\x00\x00\x00\x00\x00\x00\x00\x00\x00\x00\x00\x00\x00\x00\x00\x00\x00\x00\x00\x00\x00\x00\x00\x00\x00\x00\x00\x00\x00\x00\x00\x00\x00\x00\x00\x00\x00\x00\x00\x00\x00\x00\x00\x00\x00\x00\x00\x00\x00\x00\x00\x00\x00\x00\x00\x00\x00\x00\x00\x00\x00\x00\x00\x00\x00\x00\x00\x00\x00\x00\x00\x00\x00\x00\x00\x00\x00\x00\x00\x00\x00\x00\x00\x00\x00\x00\x00\x00\x00\x00\x00\x00\x00\x00\x00\x00\x00\x00\x00\x00\x00\x00\x00\x00\x00\x00\x00\x00\x00\x00\x00\x00\x00\x00\x00\x00\x00\x00\x00\x00\x00\x00\x00\x00\x00\x00\x00\x00\x00\x00\x00\x00\x00\x00\x00\x00\x00\x00\x00\x00\x00\x00\x00\x00\x00\x00\x00\x00\x00\x00\x00\x00\x00\x00\x00\x00\x00\x00\x00\x00\x00\x00\x00\x00\x00\x00\x00\x00\x00\x00\x00\x00\x00\x00\x00\x00\x00\x00\x00\x00\x00\x00\x00\x00\x00\x00\x00\x00\x00\x00\x00\x00\x00\x00\x00\x00\x00\x00\x00\x00\x00\x00\x00\x00\x00\x00\x00\x00\x00\x00\x00\x00\x00\x00\x00\x00\x00\x00\x00\x00\x00\x00\x00\x00\x00\x00\x00\x00\x00\x00\x00\x00\x00\x00\x00\x00\x00\x00\x00\x00\x00\x00\xde\xffn\x02\xde\xff\xae\x02\x04\x006!\xde\xff\x00\x00\xea\xff\xf4\x01\xd6 \x00\x00\x00\x00\x00\x00\x00\x00\x10\x00\x01\x00\xf2\xff\xf6\xff\xff\xff/etc/init\x00"
005000 103002  bcc 001000 000000 000010 000000 000000 177662 177662   NZVC1 0000
# 005000 bcc 5006 (nextPC=005002)
002704 002017  bge 000151 000000 012101 012074 012072 177714 177672   NZVC1 0000
# 002704 bge 2744 (nextPC=002706)
004746 000207  rts 000040 012622 012104 012074 177672 177452 177436   NZVC1 1000
# 004746 rts pc (nextPC=004750)
003256 020021  cmp 000163 006064 003360 177462 177672 177664 177456   NZVC1 0000
# 003256 cmp r0, (r1)+ (nextPC=003260)
003060 016546  mov 003054 177440 012076 177767 000010 177446 177436   NZVC1 0000
# 003060 mov 4(r5), -(sp) (nextPC=003064)
005136 010346  mov 003054 177440 012101 177767 000005 177446 177444   NZVC1 0000
# 005136 mov r3, -(sp) (nextPC=005140)
003626 004737  jsr 000156 177440 012104 177767 000002 177664 177452   NZVC1 0000
# 003626 jsr pc, @#3050 (nextPC=003632)
005136 010346  mov 003102 177706 000010 000000 000000 177714 177712   NZVC1 0100
# 005136 mov r3, -(sp) (nextPC=005140)
005130 010500  mov 000070 000000 000000 000000 000000 003102 177712   NZVC1 0000
# 005130 mov r5, r0 (nextPC=005132)
004632 110071 movb 000070 012622 177511 177777 000001 177456 177456   NZVC1 0000
# 004632 movb r0, @4(r1) (nextPC=004636)
003126 001411  beq 000045 000001 000000 000000 177714 177706 177500   NZVC1 0000
# 003126 beq 3152 (nextPC=003130)
003070 005726  tst 000040 012622 177504 000002 000001 177470 177456   NZVC1 1000
# 003070 tst (sp)+ (nextPC=003072)
005144 000110  jmp 003054 177462 177505 000000 177716 177474 177464   NZVC1 0100
# 005144 jmp (r0) (nextPC=005146)
005132 010605  mov 003054 006062 177505 177777 000001 003054 177470   NZVC1 0000
# 005132 mov sp, r5 (nextPC=005134)
003576 066703  add 000060 000000 177504 177777 000001 177706 177474   NZVC1 1001
# 003576 add 13634, r3 (nextPC=003602)
005152 014103  mov 000040 177466 177504 000001 000001 177470 177460   NZVC1 0000
# 005152 mov -(r1), r3 (nextPC=005154)
003674 005267  inc 000154 000006 000000 003212 177720 177712 177502   NZVC1 0000
# 003674 inc 13636 (nextPC=003700)
005154 014102  mov 000040 177470 177510 000005 000001 177474 177464   NZVC1 0000
# 005154 mov -(r1), r2 (nextPC=005156)
005150 014104  mov 000040 177474 177510 000002 000001 177474 177464   NZVC1 1000
# 005150 mov -(r1), r4 (nextPC=005152)
001364 072127  ash 000000 000017 000000 000000 000000 177752 177720   NZVC1 0000
# 001364 ash #-3, r1 (nextPC=001370)
003054 012716  mov 003054 000000 177504 000003 000001 177470 177460   NZVC1 0000
# 003054 mov #12622, (sp) (nextPC=003060)
005134 010446  mov 003054 177462 177505 000000 000001 177470 177470   NZVC1 1000
# 005134 mov r4, -(sp) (nextPC=005136)
003450 001402  beq 000000 000000 006106 177504 177720 177706 177464   NZVC1 0100
# 003450 beq 3456 (nextPC=003452)
005162 000207  rts 000040 177462 177504 000001 000003 177706 177472   NZVC1 1000
# 005162 rts pc (nextPC=005164)
003072 000167  jmp 000061 012622 177507 000000 000001 177470 177460   NZVC1 0000
# 003072 jmp 5146 (nextPC=003076)
004632 110071 movb 000040 012622 177504 000003 000001 177452 177452   NZVC1 0000
# 004632 movb r0, @4(r1) (nextPC=004636)
004602 010605  mov 003054 177462 177505 000000 000001 177470 177452   NZVC1 1000
# 004602 mov sp, r5 (nextPC=004604)
003260 001374  bne 000157 006036 003264 177510 177720 177712 177504   NZVC1 0000
# 003260 bne 3252 (nextPC=003262)
003054 012716  mov 003054 177466 177510 000003 000003 177474 177464   NZVC1 0000
# 003054 mov #12622, (sp) (nextPC=003060)
005134 010446  mov 003054 177466 177511 000000 000003 177474 177474   NZVC1 1000
# 005134 mov r4, -(sp) (nextPC=005136)
003634 005703  tst 000064 177466 177513 000000 000000 177712 177500   NZVC1 1000
# 003634 tst r3 (nextPC=003636)
[pid 12] TRAP
[pid 12] trap 006164 seek(3, 8, 3) [000003 000000 000000 000000 000000 177662 177662 005042] [000010 000003]
[pid 12] trap DONE 006164 seek(3, 8, 3) [000003 000000 000000 000000 000000 177662 177662 005042] [000010 000003]
[pid 12] seek(3, 8, 3) = 3
005042 103002  bcc 000003 000000 000000 000000 000000 177662 177662   NZVC1 0000
# 005042 bcc 5050 (nextPC=005044)
[pid 12] TRAP
[pid 12] trap 006164 seek(3, 64, 1) [000003 000000 000000 000000 000000 177662 177662 005042] [000100 000001]
[pid 12] trap DONE 006164 seek(3, 64, 1) [000003 000000 000000 000000 000000 177662 177662 005042] [000100 000001]
[pid 12] seek(3, 64, 1) = 3
005042 103002  bcc 000003 000000 000000 000000 000000 177662 177662   NZVC1 0000
# 005042 bcc 5050 (nextPC=005044)
[pid 12] TRAP
[pid 12] trap 006156 read(3, 011106, 512) [000003 000000 000000 000000 000000 177662 177662 005000] [011106 001000]
[pid 12] trap DONE 006156 read(3, 011106, 512) [001000 000000 000000 000000 000000 177662 177662 005000] [011106 001000]
[pid 12] read(3, 011106, 512) = "\x00\x00\x00\x00\x00\x00\x00\x00\x00\x00\x00\x00\x00\x00\x00\x00\x00\x00\x00\x00\x00\x00\x00\x00\x00\x00\x00\x00\x00\x00\x00\x00\x00\x00\x00\x00\x00\x00\x00\x00\x00\x00\x00\x00\x00\x00\x00\x00\x00\x00\x00\x00\x00\x00\x00\x00\x00\x00\x00\x00\x00\x00\x00\x00\x00\x00\x00\x00\x00\x00\x00\x00\x00\x00\x00\x00\x00\x00\x00\x00\x00\x00\x00\x00\x00\x00\x00\x00\x00\x00\x00\x00\x00\x00\x00\x00\x00\x00\x00\x00\x00\x00\x00\x00\x00\x00\x00\x00\x00\x00\x00\x00\x00\x00\x00\x00\x00\x00\x00\x00\x00\x00\x00\x00\x00\x00\x00\x00\x00\x00\x00\x00\x00\x00\x00\x00\x00\x00\x00\x00\x00\x00\x00\x00\x00\x00\x00\x00\x00\x00\x00\x00\x00\x00\x00\x00\x00\x00\x00\x00\x00\x00\x00\x00\x00\x00\x00\x00\x00\x00\x00\x00\x00\x00\x00\x00\x00\x00\x00\x00\x00\x00\x00\x00\x00\x00\x00\x00\x00\x00\x00\x00\x00\x00\x00\x00\x00\x00\x00\x00\x00\x00\x00\x00\x00\x00\x00\x00\x00\x00\x00\x00\x00\x00\x00\x00\x00\x00\x00\x00\x00\x00\x00\x00\x00\x00\x00\x00\x00\x00\x00\x00\x00\x00\x00\x00\x00\x00\x00\x00\x00\x00\x00\x00\x00\x00\x00\x00\x00\x00\x00\x00\x00\x00\x00\x00\x00\x00\x00\x00\x00\x00\x00\x00\x00\x00\x00\x00\x00\x00\x00\x00\x00\x00\x00\x00\x00\x00\x00\x00\x00\x00\x00\x00\x00\x00\x00\x00\x00\x00\x00\x00\x00\x00\x00\x00\x00\x00\x00\x00\x00\x00\x00\x00\x00\x00\x00\x00\x00\x00\x00\x00\x00\x00\x00\x00\x00\x00\x00\x00\x00\x00\x00\x00\x00\x00\x00\x00\x00\x00\x00\x00\x00\x00\x00\x00\x00\x00\x00\x00\x00\x00\x00\x00\x00\x00\x00\x00\x00\x00\x00\x00\x00\x00\x00\x00\x00\x00\x00\x00\x00\x00\x00\x00\x00\x00\x00\x00\x00\x00\x00\x00\x00\x00\x00\x00\x00\x00\x00\x00\x00\x00\x00\x00\x00\x00\x00\x00\x00\x00\x00\x00\x00\x00\x00\x00\x00\x00\x00\x00\x00\x00\x00\x00\x00\x00\x00\x00\x00\x00\x00\x00\x00\x00\x00\x00\x00\x00\x00\x00\x00\x00\x00\x00\x00\x00\x00\x00\x00\x00\x00\x00\x00\x00\x00\x00\x00\x00\x00\x00\x00\x00\x00\x00\x00\x00\x00\x00\x00\x00\x00\x00\x00\x00\x00\x00\x00\x00\x00\x00\x00\x00\x00\x00\x00\x00\x00\x00\x00\x00\x00\x00\x00\x00\x00\x00\x00\x00\x00\x00\x00\x00\x00\x00\x00\x00\x00\x00\x00\x00\x00\x00\x00\x00\x01\x00\xf4\xff\xff\xff/etc/update\x00"
005000 103002  bcc 001000 000000 000000 000000 000000 177662 177662   NZVC1 0000
# 005000 bcc 5006 (nextPC=005002)
002656 001003  bne 000165 000000 012077 012072 012070 177714 177672   NZVC1 0000
# 002656 bne 2666 (nextPC=002660)
003134 020027  cmp 000040 000000 012104 012072 177672 177664 177456   NZVC1 0000
# 003134 cmp r0, #45 (nextPC=003140)
003252 012102  mov 000163 006032 012104 177462 177672 177664 177456   NZVC1 0000
# 003252 mov (r1)+, r2 (nextPC=003254)
003064 004737  jsr 003054 000005 012073 177765 000013 177446 177434   NZVC1 0000
# 003064 jsr pc, @#4600 (nextPC=003070)
005140 010246  mov 003054 177440 012076 177765 000010 177446 177442   NZVC1 1000
# 005140 mov r2, -(sp) (nextPC=005142)
003050 004567  jsr 000165 177440 012101 177765 000005 177664 177450   NZVC1 0000
# 003050 jsr r5, 5130 (nextPC=003054)
005160 012605  mov 000141 177440 012103 177765 000003 177446 177446   NZVC1 1000
# 005160 mov (sp)+, r5 (nextPC=005162)
003076 004567  jsr 000001 177706 000000 000000 000000 177752 177716   NZVC1 0000
# 003076 jsr r5, 5130 (nextPC=003102)
001172 016516  mov 000070 000000 000000 000000 000000 177752 177720   NZVC1 0000
# 001172 mov -20(r5), (sp) (nextPC=001176)
004604 016501  mov 003054 006062 177511 177777 000001 177456 177456   NZVC1 1000
# 004604 mov 6(r5), r1 (nextPC=004610)
003106 016567  mov 003102 000001 000000 000000 000000 177706 177500   NZVC1 1000
# 003106 mov 4(r5), 13636 (nextPC=003114)
004642 000436   br 000040 012622 177504 000002 000001 177452 177452   NZVC1 0000
# 004642 br 4740 (nextPC=004644)
005134 010446  mov 003054 177462 177505 000000 177716 177474 177474   NZVC1 1001
# 005134 mov r4, -(sp) (nextPC=005136)
003624 112216 movb 000143 006062 177504 177777 000001 177706 177474   NZVC1 0000
# 003624 movb (r2)+, (sp) (nextPC=003626)
003564 010446  mov 000060 000000 177504 000001 177722 177706 177500   NZVC1 0000
# 003564 mov r4, -(sp) (nextPC=003566)
003070 005726  tst 000040 012622 177504 000001 000001 177470 177456   NZVC1 1000
# 003070 tst (sp)+ (nextPC=003072)
003730 070127  mul 000006 000000 000000 003212 177720 177712 177502   NZVC1 0001
# 003730 mul #12, r1 (nextPC=003734)
003072 000167  jmp 000040 012622 177510 000005 000001 177474 177464   NZVC1 0000
# 003072 jmp 5146 (nextPC=003076)
004746 000207  rts 000040 012622 177510 000002 000001 177474 177460   NZVC1 1000
# 004746 rts pc (nextPC=004750)
001344 016501  mov 000000 177704 000000 000000 000000 177752 177720   NZVC1 0000
# 001344 mov -16(r5), r1 (nextPC=001350)
005136 010346  mov 003054 000000 177504 000003 000001 177470 177466   NZVC1 0000
# 005136 mov r3, -(sp) (nextPC=005140)
003626 004737  jsr 000040 177462 177505 000000 000001 177706 177474   NZVC1 0000
# 003626 jsr pc, @#3050 (nextPC=003632)
003450 001402  beq 000000 000001 006106 177504 177720 177706 177470   NZVC1 0000
# 003450 beq 3456 (nextPC=003452)
005152 014103  mov 000040 177466 177504 000001 000003 177470 177460   NZVC1 0000
# 005152 mov -(r1), r3 (nextPC=005154)
004740 005067  clr 000062 012622 177507 000000 000001 177452 177452   NZVC1 0000
# 004740 clr 13630 (nextPC=004744)
004604 016501  mov 003054 000000 177504 000003 000001 177452 177452   NZVC1 1000
# 004604 mov 6(r5), r1 (nextPC=004610)
003054 012716  mov 003054 177462 177505 000000 000001 177470 177460   NZVC1 0000
# 003054 mov #12622, (sp) (nextPC=003060)
003246 012701  mov 000157 000007 000000 177510 177720 177712 177504   NZVC1 1000
# 003246 mov #6032, r1 (nextPC=003252)
005136 010346  mov 003054 177466 177510 000003 000003 177474 177472   NZVC1 0000
# 005136 mov r3, -(sp) (nextPC=005140)
003626 004737  jsr 000040 177466 177511 000000 000003 177712 177500   NZVC1 0000
# 003626 jsr pc, @#3050 (nextPC=003632)
005156 010506  mov 000061 177466 177513 000000 000001 177474 177464   NZVC1 1000
# 005156 mov r5, sp (nextPC=005160)
[pid 12] TRAP
[pid 12] trap 006164 seek(3, 8, 3) [000003 000000 000000 000000 000000 177662 177662 005042] [000010 000003]
[pid 12] trap DONE 006164 seek(3, 8, 3) [000003 000000 000000 000000 000000 177662 177662 005042] [000010 000003]
[pid 12] seek(3, 8, 3) = 3
005042 103002  bcc 000003 000000 000000 000000 000000 177662 177662   NZVC1 0000
# 005042 bcc 5050 (nextPC=005044)
[pid 12] TRAP
[pid 12] trap 006164 seek(3, 128, 1) [000003 000000 000000 000000 000000 177662 177662 005042] [000200 000001]
[pid 12] trap DONE 006164 seek(3, 128, 1) [000003 000000 000000 000000 000000 177662 177662 005042] [000200 000001]
[pid 12] seek(3, 128, 1) = 3
005042 103002  bcc 000003 000000 000000 000000 000000 177662 177662   NZVC1 0000
# 005042 bcc 5050 (nextPC=005044)
[pid 12] TRAP
[pid 12] trap 006156 read(3, 011106, 512) [000003 000000 000000 000000 000000 177662 177662 005000] [011106 001000]
[pid 12] trap DONE 006156 read(3, 011106, 512) [001000 000000 000000 000000 000000 177662 177662 005000] [011106 001000]
[pid 12] read(3, 011106, 512) = "\x00\x00\x00\x00\x00\x00\x00\x00\x00\x00\x00\x00\x00\x00\x00\x00\x00\x00\x00\x00\x00\x00\x00\x00\x00\x00\x00\x00\x00\x00\x00\x00\x00\x00\x00\x00\x00\x00\x00\x00\x00\x00\x00\x00\x00\x00\x00\x00\x00\x00\x00\x00\x00\x00\x00\x00\x00\x00\x00\x00\x00\x00\x00\x00\x00\x00\x00\x00\x00\x00\x00\x00\x00\x00\x00\x00\x00\x00\x00\x00\x00\x00\x00\x00\x00\x00\x00\x00\x00\x00\x00\x00\x00\x00\x00\x00\x00\x00\x00\x00\x00\x00\x00\x00\x00\x00\x00\x00\x00\x00\x00\x00\x00\x00\x00\x00\x00\x00\x00\x00\x00\x00\x00\x00\x00\x00\x00\x00\x00\x00\x00\x00\x00\x00\x00\x00\x00\x00\x00\x00\x00\x00\x00\x00\x00\x00\x00\x00\x00\x00\x00\x00\x00\x00\x00\x00\x00\x00\x00\x00\x00\x00\x00\x00\x00\x00\x00\x00\x00\x00\x00\x00\x00\x00\x00\x00\x00\x00\x00\x00\x00\x00\x00\x00\x00\x00\x00\x00\x00\x00\x00\x00\x00\x00\x00\x00\x00\x00\x00\x00\x00\x00\x00\x00\x00\x00\x00\x00\x00\x00\x00\x00\x00\x00\x00\x00\x00\x00\x00\x00\x00\x00\x00\x00\x00\x00\x00\x00\x00\x00\x00\x00\x00\x00\x00\x00\x00\x00\x00\x00\x00\x00\x00\x00\x00\x00\x00\x00\x00\x00\x00\x00\x00\x00\x00\x00\x00\x00\x00\x00\x00\x00\x00\x00\x00\x00\x00\x00\x00\x00\x00\x00\x00\x00\x00\x00\x00\x00\x00\x00\x00\x00\x00\x00\x00\x00\x00\x00\x00\x00\x00\x00\x00\x00\x00\x00\x00\x00\x00\x00\x00\x00\x00\x00\x00\x00\x00\x00\x00\x00\x00\x00\x00\x00\x00\x00\x00\x00\x00\x00\x00\x00\x00\x00\x00\x00\x00\x00\x00\x00\x00\x00\x00\x00\x00\x00\x00\x00\x00\x00\x00\x00\x00\x00\x00\x00\x00\x00\x00\x00\x00\x00\x00\x00\x00\x00\x00\x00\x00\x00\x00\x00\x00\x00\x00\x00\x00\x00\x00\x00\x00\x00\x00\x00\x00\x00\x00\x00\x00\x00\x00\x00\x00\x00\x00\x00\x00\x00\x00\x00\x00\x00\x00\x00\x00\x00\x00\x00\x00\x00\x00\x00\x00\x00\x00\x00\x00\x00\x00\x00\x00\x00\x00\x00\x00\x00\x00\x00\x00\x00\x00\x00\x00\x00\x00\x00\x00\x00\x00\x00\x00\x00\x00\x00\x00\x00\x00\x00\x00\x00\x00\x00\x00\x00\x00\x00\x00\x00\x00\x00\x00\x00\x00\x00\x00\x00\x00\x00\x00\x00\x00\x00\x00\x00\x00\x00\xe2\xff\x1a\x01\x00\x00\xea \x01\x00\x00\x00-\x00* \xee\xff\x8e\x00\xca \x00\x00\x00\x00\x00\x00\x00\x00\x10\x00\x02\x00\xf6\xff\xfc\xff\xfe\xff\xff\xff-\x00-\x00"
005000 103002  bcc 001000 000000 000000 000000 000000 177662 177662   NZVC1 0000
# 005000 bcc 5006 (nextPC=005002)
005132 010605  mov 003054 000000 012104 012102 177672 003054 177452   NZVC1 0001
# 005132 mov sp, r5 (nextPC=005134)
003256 020021  cmp 000163 006040 003412 177462 177672 177664 177456   NZVC1 0000
# 003256 cmp r0, (r1)+ (nextPC=003260)
004604 016501  mov 003054 177440 012104 177775 000002 177430 177430   NZVC1 1000
# 004604 mov 6(r5), r1 (nextPC=004610)
003144 004737  jsr 000012 177706 000000 000000 177722 177714 177506   NZVC1 0001
# 003144 jsr pc, @#3050 (nextPC=003150)
003134 020027  cmp 000045 000000 000000 000000 177720 177712 177504   NZVC1 0000
# 003134 cmp r0, #45 (nextPC=003140)
005162 000207  rts 000070 177466 177511 177777 000001 177712 177476   NZVC1 1000
# 005162 rts pc (nextPC=005164)
003704 020027  cmp 000003 000000 000000 003212 177714 177706 177476   NZVC1 0000
# 003704 cmp r0, #-6 (nextPC=003710)
005134 010446  mov 003054 177462 177504 000001 000001 177470 177470   NZVC1 1000
# 005134 mov r4, -(sp) (nextPC=005136)
004744 012605  mov 000040 012622 177505 000000 177716 177456 177456   NZVC1 0100
# 004744 mov (sp)+, r5 (nextPC=004746)
004626 016500  mov 003054 012622 177505 177777 000001 177452 177452   NZVC1 0000
# 004626 mov 4(r5), r0 (nextPC=004632)
003060 016546  mov 003054 000000 177504 000003 000001 177470 177460   NZVC1 0000
# 003060 mov 4(r5), -(sp) (nextPC=003064)
005136 010346  mov 003054 177462 177505 000000 000001 177470 177466   NZVC1 0000
# 005136 mov r3, -(sp) (nextPC=005140)
003246 012701  mov 000154 000006 000000 177510 177720 177712 177504   NZVC1 1000
# 003246 mov #6032, r1 (nextPC=003252)
003054 012716  mov 003054 177466 177510 000004 000001 177474 177464   NZVC1 0000
# 003054 mov #12622, (sp) (nextPC=003060)
005142 005746  tst 003054 177466 177510 000001 000001 177474 177466   NZVC1 1000
# 005142 tst -(sp) (nextPC=005144)
005134 010446  mov 003102 000000 000000 000000 000000 177706 177706   NZVC1 1000
# 005134 mov r4, -(sp) (nextPC=005136)
004746 000207  rts 000040 012622 177504 000003 000001 177470 177454   NZVC1 1000
# 004746 rts pc (nextPC=004750)
004632 110071 movb 000060 012622 177505 000000 000001 177452 177452   NZVC1 0000
# 004632 movb r0, @4(r1) (nextPC=004636)
003504 000207  rts 000060 000000 006106 177506 177720 177706 177472   NZVC1 0001
# 003504 rts pc (nextPC=003506)
003054 012716  mov 003054 177462 177505 000000 000003 177470 177460   NZVC1 0000
# 003054 mov #12622, (sp) (nextPC=003060)
003122 117700 movb 000063 177462 177507 000000 177720 177706 177500   NZVC1 1000
# 003122 movb @13636, r0 (nextPC=003126)
005162 000207  rts 000040 177462 177504 000003 000001 177706 177472   NZVC1 1000
# 005162 rts pc (nextPC=005164)
005150 014104  mov 000061 177470 177505 000000 000001 177470 177460   NZVC1 1000
# 005150 mov -(r1), r4 (nextPC=005152)
003446 073012 ashc 000000 000151 006106 177510 177722 177712 177500   NZVC1 0000
# 003446 ashc (r2), r0 (nextPC=003450)
004746 000207  rts 000040 012622 177510 000003 000003 177474 177460   NZVC1 1000
# 004746 rts pc (nextPC=004750)
004632 110071 movb 000061 012622 177511 000000 000003 177456 177456   NZVC1 0000
# 004632 movb r0, @4(r1) (nextPC=004636)
005162 000207  rts 000000 177704 000000 000000 000000 177752 177714   NZVC1 1000
# 005162 rts pc (nextPC=005164)
[pid 12] TRAP
[pid 12] trap 006164 seek(3, 8, 3) [000003 000000 000000 000000 000000 177662 177662 005042] [000010 000003]
[pid 12] trap DONE 006164 seek(3, 8, 3) [000003 000000 000000 000000 000000 177662 177662 005042] [000010 000003]
[pid 12] seek(3, 8, 3) = 3
005042 103002  bcc 000003 000000 000000 000000 000000 177662 177662   NZVC1 0000
# 005042 bcc 5050 (nextPC=005044)
[pid 12] TRAP
[pid 12] trap 006164 seek(3, 192, 1) [000003 000000 000000 000000 000000 177662 177662 005042] [000300 000001]
[pid 12] trap DONE 006164 seek(3, 192, 1) [000003 000000 000000 000000 000000 177662 177662 005042] [000300 000001]
[pid 12] seek(3, 192, 1) = 3
005042 103002  bcc 000003 000000 000000 000000 000000 177662 177662   NZVC1 0000
# 005042 bcc 5050 (nextPC=005044)
[pid 12] TRAP
[pid 12] trap 006156 read(3, 011106, 512) [000003 000000 000000 000000 000000 177662 177662 005000] [011106 001000]
[pid 12] trap DONE 006156 read(3, 011106, 512) [001000 000000 000000 000000 000000 177662 177662 005000] [011106 001000]
[pid 12] read(3, 011106, 512) = "\x00\x00\x00\x00\x00\x00\x00\x00\x00\x00\x00\x00\x00\x00\x00\x00\x00\x00\x00\x00\x00\x00\x00\x00\x00\x00\x00\x00\x00\x00\x00\x00\x00\x00\x00\x00\x00\x00\x00\x00\x00\x00\x00\x00\x00\x00\x00\x00\x00\x00\x00\x00\x00\x00\x00\x00\x00\x00\x00\x00\x00\x00\x00\x00\x00\x00\x00\x00\x00\x00\x00\x00\x00\x00\x00\x00\x00\x00\x00\x00\x00\x00\x00\x00\x00\x00\x00\x00\x00\x00\x00\x00\x00\x00\x00\x00\x00\x00\x00\x00\x00\x00\x00\x00\x00\x00\x00\x00\x00\x00\x00\x00\x00\x00\x00\x00\x00\x00\x00\x00\x00\x00\x00\x00\x00\x00\x00\x00\x00\x00\x00\x00\x00\x00\x00\x00\x00\x00\x00\x00\x00\x00\x00\x00\x00\x00\x00\x00\x00\x00\x00\x00\x00\x00\x00\x00\x00\x00\x00\x00\x00\x00\x00\x00\x00\x00\x00\x00\x00\x00\x00\x00\x00\x00\x00\x00\x00\x00\x00\x00\x00\x00\x00\x00\x00\x00\x00\x00\x00\x00\x00\x00\x00\x00\x00\x00\x00\x00\x00\x00\x00\x00\x00\x00\x00\x00\x00\x00\x00\x00\x00\x00\x00\x00\x00\x00\x00\x00\x00\x00\x00\x00\x00\x00\x00\x00\x00\x00\x00\x00\x00\x00\x00\x00\x00\x00\x00\x00\x00\x00\x00\x00\x00\x00\x00\x00\x00\x00\x00\x00\x00\x00\x00\x00\x00\x00\x00\x00\x00\x00\x00\x00\x00\x00\x00\x00\x00\x00\x00\x00\x00\x00\x00\x00\x00\x00\x00\x00\x00\x00\x00\x00\x00\x00\x00\x00\x00\x00\x00\x00\x00\x00\x00\x00\x00\x00\x00\x00\x00\x00\x00\x00\x00\x00\x00\x00\x00\x00\x00\x00\x00\x00\x00\x00\x00\x00\x00\x00\x00\x00\x00\x00\x00\x00\x00\x00\x00\x00\x00\x00\x00\x00\x00\x00\x00\x00\x00\x00\x00\x00\x00\x00\x00\x00\x00\x00\x00\x00\x00\x00\x00\x00\x00\x00\x00\x00\x00\x00\x00\x00\x00\x00\x00\x00\x00\x00\x00\x00\x00\x00\x00\x00\x00\x00\x00\x00\x00\x00\x00\x00\x00\x00\x00\x00\x00\x00\x00\x00\x00\x00\x00\x00\x00\x00\x00\x00\x00\x00\x00\x00\x00\x00\x00\x00\x00\x00\x00\x00\x00\x00\x00\x00\x00\x00\x00\x00\x00\x00\x00\x00\x00\x00\x00\x00\x00\x00\x00\x00\x00\x00\x00\x00\x00\x00\x00\x00\x00\x00\x00\x00\x00\x00\x00\x00\x00\x00\x00\x00\x00\x00\x00\x00\x00\x00\x00\x00\x00\x00\x00\x00\x00\x00\x00\x00\x00\x00\xe2\xff\x1a\x01\x00\x00\xea \x01\x00\x00\x000\x00\x00 \xee\xff\x8e\x00\xca \x00\x00\x00\x00\x00\x00\x00\x00\x10\x00\x02\x00\xf6\xff\xfc\xff\xfe\xff\xff\xff-\x000\x00"
005000 103002  bcc 001000 000000 000000 000000 000000 177662 177662   NZVC1 0000
# 005000 bcc 5006 (nextPC=005002)
005132 010605  mov 003054 000000 012104 012102 177672 003054 177452   NZVC1 0001
# 005132 mov sp, r5 (nextPC=005134)
003256 020021  cmp 000163 006040 003412 177462 177672 177664 177456   NZVC1 0000
# 003256 cmp r0, (r1)+ (nextPC=003260)
004604 016501  mov 003054 177440 012104 177775 000002 177430 177430   NZVC1 1000
# 004604 mov 6(r5), r1 (nextPC=004610)
003144 004737  jsr 000012 177706 000000 000000 177722 177714 177506   NZVC1 0001
# 003144 jsr pc, @#3050 (nextPC=003150)
003134 020027  cmp 000045 000000 000000 000000 177720 177712 177504   NZVC1 0000
# 003134 cmp r0, #45 (nextPC=003140)
005162 000207  rts 000070 177466 177511 177777 000001 177712 177476   NZVC1 1000
# 005162 rts pc (nextPC=005164)
003704 020027  cmp 000003 000000 000000 003212 177714 177706 177476   NZVC1 0000
# 003704 cmp r0, #-6 (nextPC=003710)
005134 010446  mov 003054 177462 177504 000001 000001 177470 177470   NZVC1 1000
# 005134 mov r4, -(sp) (nextPC=005136)
004744 012605  mov 000040 012622 177505 000000 177716 177456 177456   NZVC1 0100
# 004744 mov (sp)+, r5 (nextPC=004746)
004626 016500  mov 003054 012622 177505 177777 000001 177452 177452   NZVC1 0000
# 004626 mov 4(r5), r0 (nextPC=004632)
003060 016546  mov 003054 000000 177504 000003 000001 177470 177460   NZVC1 0000
# 003060 mov 4(r5), -(sp) (nextPC=003064)
005136 010346  mov 003054 177462 177505 000000 000001 177470 177466   NZVC1 0000
# 005136 mov r3, -(sp) (nextPC=005140)
003246 012701  mov 000154 000006 000000 177510 177720 177712 177504   NZVC1 1000
# 003246 mov #6032, r1 (nextPC=003252)
003054 012716  mov 003054 177466 177510 000004 000001 177474 177464   NZVC1 0000
# 003054 mov #12622, (sp) (nextPC=003060)
005142 005746  tst 003054 177466 177510 000001 000001 177474 177466   NZVC1 1000
# 005142 tst -(sp) (nextPC=005144)
005134 010446  mov 003102 000000 000000 000000 000000 177706 177706   NZVC1 1000
# 005134 mov r4, -(sp) (nextPC=005136)
004746 000207  rts 000040 012622 177504 000003 000001 177470 177454   NZVC1 1000
# 004746 rts pc (nextPC=004750)
004632 110071 movb 000060 012622 177505 000000 000001 177452 177452   NZVC1 0000
# 004632 movb r0, @4(r1) (nextPC=004636)
003504 000207  rts 000060 000000 006106 177506 177720 177706 177472   NZVC1 0001
# 003504 rts pc (nextPC=003506)
003054 012716  mov 003054 177462 177505 000000 000003 177470 177460   NZVC1 0000
# 003054 mov #12622, (sp) (nextPC=003060)
003122 117700 movb 000064 177462 177507 000000 177720 177706 177500   NZVC1 1000
# 003122 movb @13636, r0 (nextPC=003126)
005162 000207  rts 000040 177462 177504 000003 000001 177706 177472   NZVC1 1000
# 005162 rts pc (nextPC=005164)
005150 014104  mov 000061 177470 177505 000000 000001 177470 177460   NZVC1 1000
# 005150 mov -(r1), r4 (nextPC=005152)
003446 073012 ashc 000000 000151 006106 177510 177722 177712 177500   NZVC1 0000
# 003446 ashc (r2), r0 (nextPC=003450)
004746 000207  rts 000040 012622 177510 000003 000003 177474 177460   NZVC1 1000
# 004746 rts pc (nextPC=004750)
004632 110071 movb 000061 012622 177511 000000 000003 177456 177456   NZVC1 0000
# 004632 movb r0, @4(r1) (nextPC=004636)
005162 000207  rts 000000 177704 000000 000000 000000 177752 177714   NZVC1 1000
# 005162 rts pc (nextPC=005164)
[pid 12] TRAP
[pid 12] trap 006164 seek(3, 8, 3) [000003 000000 000000 000000 000000 177662 177662 005042] [000010 000003]
[pid 12] trap DONE 006164 seek(3, 8, 3) [000003 000000 000000 000000 000000 177662 177662 005042] [000010 000003]
[pid 12] seek(3, 8, 3) = 3
005042 103002  bcc 000003 000000 000000 000000 000000 177662 177662   NZVC1 0000
# 005042 bcc 5050 (nextPC=005044)
[pid 12] TRAP
[pid 12] trap 006164 seek(3, 256, 1) [000003 000000 000000 000000 000000 177662 177662 005042] [000400 000001]
[pid 12] trap DONE 006164 seek(3, 256, 1) [000003 000000 000000 000000 000000 177662 177662 005042] [000400 000001]
[pid 12] seek(3, 256, 1) = 3
005042 103002  bcc 000003 000000 000000 000000 000000 177662 177662   NZVC1 0000
# 005042 bcc 5050 (nextPC=005044)
[pid 12] TRAP
[pid 12] trap 006156 read(3, 011106, 512) [000003 000000 000000 000000 000000 177662 177662 005000] [011106 001000]
[pid 12] trap DONE 006156 read(3, 011106, 512) [001000 000000 000000 000000 000000 177662 177662 005000] [011106 001000]
[pid 12] read(3, 011106, 512) = "\x00\x00\x00\x00\x00\x00\x00\x00\x00\x00\x00\x00\x00\x00\x00\x00\x00\x00\x00\x00\x00\x00\x00\x00\x00\x00\x00\x00\x00\x00\x00\x00\x00\x00\x00\x00\x00\x00\x00\x00\x00\x00\x00\x00\x00\x00\x00\x00\x00\x00\x00\x00\x00\x00\x00\x00\x00\x00\x00\x00\x00\x00\x00\x00\x00\x00\x00\x00\x00\x00\x00\x00\x00\x00\x00\x00\x00\x00\x00\x00\x00\x00\x00\x00\x00\x00\x00\x00\x00\x00\x00\x00\x00\x00\x00\x00\x00\x00\x00\x00\x00\x00\x00\x00\x00\x00\x00\x00\x00\x00\x00\x00\x00\x00\x00\x00\x00\x00\x00\x00\x00\x00\x00\x00\x00\x00\x00\x00\x00\x00\x00\x00\x00\x00\x00\x00\x00\x00\x00\x00\x00\x00\x00\x00\x00\x00\x00\x00\x00\x00\x00\x00\x00\x00\x00\x00\x00\x00\x00\x00\x00\x00\x00\x00\x00\x00\x00\x00\x00\x00\x00\x00\x00\x00\x00\x00\x00\x00\x00\x00\x00\x00\x00\x00\x00\x00\x00\x00\x00\x00\x00\x00\x00\x00\x00\x00\x00\x00\x00\x00\x00\x00\x00\x00\x00\x00\x00\x00\x00\x00\x00\x00\x00\x00\x00\x00\x00\x00\x00\x00\x00\x00\x00\x00\x00\x00\x00\x00\x00\x00\x00\x00\x00\x00\x00\x00\x00\x00\x00\x00\x00\x00\x00\x00\x00\x00\x00\x00\x00\x00\x00\x00\x00\x00\x00\x00\x00\x00\x00\x00\x00\x00\x00\x00\x00\x00\x00\x00\x00\x00\x00\x00\x00\x00\x00\x00\x00\x00\x00\x00\x00\x00\x00\x00\x00\x00\x00\x00\x00\x00\x00\x00\x00\x00\x00\x00\x00\x00\x00\x00\x00\x00\x00\x00\x00\x00\x00\x00\x00\x00\x00\x00\x00\x00\x00\x00\x00\x00\x00\x00\x00\x00\x00\x00\x00\x00\x00\x00\x00\x00\x00\x00\x00\x00\x00\x00\x00\x00\x00\x00\x00\x00\x00\x00\x00\x00\x00\x00\x00\x00\x00\x00\x00\x00\x00\x00\x00\x00\x00\x00\x00\x00\x00\x00\x00\x00\x00\x00\x00\x00\x00\x00\x00\x00\x00\x00\x00\x00\x00\x00\x00\x00\x00\x00\x00\x00\x00\x00\x00\x00\x00\x00\x00\x00\x00\x00\x00\x00\x00\x00\x00\x00\x00\x00\x00\x00\x00\x00\x00\x00\x00\x00\x00\x00\x00\x00\x00\x00\x00\x00\x00\x00\x00\x00\x00\x00\x00\x00\x00\x00\x00\x00\x00\x00\x00\x00\x00\x00\x00\x00\x00\x00\x00\x00\x00\x00\x00\x00\x00\x00\x00\x00\x00\x00\x00\x00\x00\x00\x00\x00\x00\x00\x00\x00\x00\x00\xe2\xff\x1a\x01\x00\x00\xea \x01\x00\x00\x000\x00\x00 \xee\xff\x8e\x00\xca \x00\x00\x00\x00\x00\x00\x00\x00\x10\x00\x02\x00\xf6\xff\xfc\xff\xfe\xff\xff\xff-\x000\x00"
005000 103002  bcc 001000 000000 000000 000000 000000 177662 177662   NZVC1 0000
# 005000 bcc 5006 (nextPC=005002)
005132 010605  mov 003054 000000 012104 012102 177672 003054 177452   NZVC1 0001
# 005132 mov sp, r5 (nextPC=005134)
003256 020021  cmp 000163 006040 003412 177462 177672 177664 177456   NZVC1 0000
# 003256 cmp r0, (r1)+ (nextPC=003260)
004604 016501  mov 003054 177440 012104 177775 000002 177430 177430   NZVC1 1000
# 004604 mov 6(r5), r1 (nextPC=004610)
003144 004737  jsr 000012 177706 000000 000000 177722 177714 177506   NZVC1 0001
# 003144 jsr pc, @#3050 (nextPC=003150)
003134 020027  cmp 000045 000000 000000 000000 177720 177712 177504   NZVC1 0000
# 003134 cmp r0, #45 (nextPC=003140)
005162 000207  rts 000070 177466 177511 177777 000001 177712 177476   NZVC1 1000
# 005162 rts pc (nextPC=005164)
003704 020027  cmp 000003 000000 000000 003212 177714 177706 177476   NZVC1 0000
# 003704 cmp r0, #-6 (nextPC=003710)
005134 010446  mov 003054 177462 177504 000001 000001 177470 177470   NZVC1 1000
# 005134 mov r4, -(sp) (nextPC=005136)
004744 012605  mov 000040 012622 177505 000000 177716 177456 177456   NZVC1 0100
# 004744 mov (sp)+, r5 (nextPC=004746)
004626 016500  mov 003054 012622 177505 177777 000001 177452 177452   NZVC1 0000
# 004626 mov 4(r5), r0 (nextPC=004632)
003060 016546  mov 003054 000000 177504 000003 000001 177470 177460   NZVC1 0000
# 003060 mov 4(r5), -(sp) (nextPC=003064)
005136 010346  mov 003054 177462 177505 000000 000001 177470 177466   NZVC1 0000
# 005136 mov r3, -(sp) (nextPC=005140)
003246 012701  mov 000154 000006 000000 177510 177720 177712 177504   NZVC1 1000
# 003246 mov #6032, r1 (nextPC=003252)
003054 012716  mov 003054 177466 177510 000004 000001 177474 177464   NZVC1 0000
# 003054 mov #12622, (sp) (nextPC=003060)
005142 005746  tst 003054 177466 177510 000001 000001 177474 177466   NZVC1 1000
# 005142 tst -(sp) (nextPC=005144)
005134 010446  mov 003102 000000 000000 000000 000000 177706 177706   NZVC1 1000
# 005134 mov r4, -(sp) (nextPC=005136)
004746 000207  rts 000040 012622 177504 000003 000001 177470 177454   NZVC1 1000
# 004746 rts pc (nextPC=004750)
004632 110071 movb 000060 012622 177505 000000 000001 177452 177452   NZVC1 0000
# 004632 movb r0, @4(r1) (nextPC=004636)
003504 000207  rts 000060 000000 006106 177506 177720 177706 177472   NZVC1 0001
# 003504 rts pc (nextPC=003506)
003054 012716  mov 003054 177462 177505 000000 000003 177470 177460   NZVC1 0000
# 003054 mov #12622, (sp) (nextPC=003060)
003122 117700 movb 000065 177462 177507 000000 177720 177706 177500   NZVC1 1000
# 003122 movb @13636, r0 (nextPC=003126)
005162 000207  rts 000040 177462 177504 000003 000001 177706 177472   NZVC1 1000
# 005162 rts pc (nextPC=005164)
005150 014104  mov 000061 177470 177505 000000 000001 177470 177460   NZVC1 1000
# 005150 mov -(r1), r4 (nextPC=005152)
003446 073012 ashc 000000 000151 006106 177510 177722 177712 177500   NZVC1 0000
# 003446 ashc (r2), r0 (nextPC=003450)
004746 000207  rts 000040 012622 177510 000003 000003 177474 177460   NZVC1 1000
# 004746 rts pc (nextPC=004750)
004632 110071 movb 000061 012622 177511 000000 000003 177456 177456   NZVC1 0000
# 004632 movb r0, @4(r1) (nextPC=004636)
005162 000207  rts 000000 177704 000000 000000 000000 177752 177714   NZVC1 1000
# 005162 rts pc (nextPC=005164)
[pid 12] TRAP
[pid 12] trap 006164 seek(3, 8, 3) [000003 000000 000000 000000 000000 177662 177662 005042] [000010 000003]
[pid 12] trap DONE 006164 seek(3, 8, 3) [000003 000000 000000 000000 000000 177662 177662 005042] [000010 000003]
[pid 12] seek(3, 8, 3) = 3
005042 103002  bcc 000003 000000 000000 000000 000000 177662 177662   NZVC1 0000
# 005042 bcc 5050 (nextPC=005044)
[pid 12] TRAP
[pid 12] trap 006164 seek(3, 320, 1) [000003 000000 000000 000000 000000 177662 177662 005042] [000500 000001]
[pid 12] trap DONE 006164 seek(3, 320, 1) [000003 000000 000000 000000 000000 177662 177662 005042] [000500 000001]
[pid 12] seek(3, 320, 1) = 3
005042 103002  bcc 000003 000000 000000 000000 000000 177662 177662   NZVC1 0000
# 005042 bcc 5050 (nextPC=005044)
[pid 12] TRAP
[pid 12] trap 006156 read(3, 011106, 512) [000003 000000 000000 000000 000000 177662 177662 005000] [011106 001000]
[pid 12] trap DONE 006156 read(3, 011106, 512) [001000 000000 000000 000000 000000 177662 177662 005000] [011106 001000]
[pid 12] read(3, 011106, 512) = "\x00\x00\x00\x00\x00\x00\x00\x00\x00\x00\x00\x00\x00\x00\x00\x00\x00\x00\x00\x00\x00\x00\x00\x00\x00\x00\x00\x00\x00\x00\x00\x00\x00\x00\x00\x00\x00\x00\x00\x00\x00\x00\x00\x00\x00\x00\x00\x00\x00\x00\x00\x00\x00\x00\x00\x00\x00\x00\x00\x00\x00\x00\x00\x00\x00\x00\x00\x00\x00\x00\x00\x00\x00\x00\x00\x00\x00\x00\x00\x00\x00\x00\x00\x00\x00\x00\x00\x00\x00\x00\x00\x00\x00\x00\x00\x00\x00\x00\x00\x00\x00\x00\x00\x00\x00\x00\x00\x00\x00\x00\x00\x00\x00\x00\x00\x00\x00\x00\x00\x00\x00\x00\x00\x00\x00\x00\x00\x00\x00\x00\x00\x00\x00\x00\x00\x00\x00\x00\x00\x00\x00\x00\x00\x00\x00\x00\x00\x00\x00\x00\x00\x00\x00\x00\x00\x00\x00\x00\x00\x00\x00\x00\x00\x00\x00\x00\x00\x00\x00\x00\x00\x00\x00\x00\x00\x00\x00\x00\x00\x00\x00\x00\x00\x00\x00\x00\x00\x00\x00\x00\x00\x00\x00\x00\x00\x00\x00\x00\x00\x00\x00\x00\x00\x00\x00\x00\x00\x00\x00\x00\x00\x00\x00\x00\x00\x00\x00\x00\x00\x00\x00\x00\x00\x00\x00\x00\x00\x00\x00\x00\x00\x00\x00\x00\x00\x00\x00\x00\x00\x00\x00\x00\x00\x00\x00\x00\x00\x00\x00\x00\x00\x00\x00\x00\x00\x00\x00\x00\x00\x00\x00\x00\x00\x00\x00\x00\x00\x00\x00\x00\x00\x00\x00\x00\x00\x00\x00\x00\x00\x00\x00\x00\x00\x00\x00\x00\x00\x00\x00\x00\x00\x00\x00\x00\x00\x00\x00\x00\x00\x00\x00\x00\x00\x00\x00\x00\x00\x00\x00\x00\x00\x00\x00\x00\x00\x00\x00\x00\x00\x00\x00\x00\x00\x00\x00\x00\x00\x00\x00\x00\x00\x00\x00\x00\x00\x00\x00\x00\x00\x00\x00\x00\x00\x00\x00\x00\x00\x00\x00\x00\x00\x00\x00\x00\x00\x00\x00\x00\x00\x00\x00\x00\x00\x00\x00\x00\x00\x00\x00\x00\x00\x00\x00\x00\x00\x00\x00\x00\x00\x00\x00\x00\x00\x00\x00\x00\x00\x00\x00\x00\x00\x00\x00\x00\x00\x00\x00\x00\x00\x00\x00\x00\x00\x00\x00\x00\x00\x00\x00\x00\x00\x00\x00\x00\x00\x00\x00\x00\x00\x00\x00\x00\x00\x00\x00\x00\x00\x00\x00\x00\x00\x00\x00\x00\x00\x00\x00\x00\x00\x00\x00\x00\x00\x00\x00\x00\x00\x00\x00\x00\x00\x00\x00\x00\x00\x00\x00\x00\x00\x00\x00\x00\x00\x00\x00\x00\xe2\xff\x1a\x01\x00\x00\xea \x01\x00\x00\x000\x00\x00 \xee\xff\x8e\x00\xca \x00\x00\x00\x00\x00\x00\x00\x00\x10\x00\x02\x00\xf6\xff\xfc\xff\xfe\xff\xff\xff-\x000\x00"
005000 103002  bcc 001000 000000 000000 000000 000000 177662 177662   NZVC1 0000
# 005000 bcc 5006 (nextPC=005002)
005132 010605  mov 003054 000000 012104 012102 177672 003054 177452   NZVC1 0001
# 005132 mov sp, r5 (nextPC=005134)
003256 020021  cmp 000163 006040 003412 177462 177672 177664 177456   NZVC1 0000
# 003256 cmp r0, (r1)+ (nextPC=003260)
004604 016501  mov 003054 177440 012104 177775 000002 177430 177430   NZVC1 1000
# 004604 mov 6(r5), r1 (nextPC=004610)
003144 004737  jsr 000012 177706 000000 000000 177722 177714 177506   NZVC1 0001
# 003144 jsr pc, @#3050 (nextPC=003150)
003156 005067  clr 000045 000006 000000 000000 177720 177712 177504   NZVC1 0100
# 003156 clr 13640 (nextPC=003162)
003634 005703  tst 000070 177466 177511 177777 000000 177712 177500   NZVC1 1000
# 003634 tst r3 (nextPC=003636)
003716 020027  cmp 000003 000000 000000 003212 177714 177706 177476   NZVC1 0001
# 003716 cmp r0, #11 (nextPC=003722)
005140 010246  mov 003054 177462 177504 000001 000001 177470 177464   NZVC1 0000
# 005140 mov r2, -(sp) (nextPC=005142)
003070 005726  tst 000040 012622 177505 000000 177716 177474 177462   NZVC1 1000
# 003070 tst (sp)+ (nextPC=003072)
004636 005261  inc 000127 012622 177505 177777 000001 177452 177452   NZVC1 0000
# 004636 inc 4(r1) (nextPC=004642)
004600 010546  mov 003054 000000 177504 000003 000001 177470 177454   NZVC1 0000
# 004600 mov r5, -(sp) (nextPC=004602)
005142 005746  tst 003054 177462 177505 000000 000001 177470 177462   NZVC1 1000
# 005142 tst -(sp) (nextPC=005144)
003254 001732  beq 000154 006034 003264 177510 177720 177712 177504   NZVC1 0000
# 003254 beq 3142 (nextPC=003256)
003050 004567  jsr 000040 177466 177510 000003 000002 177712 177476   NZVC1 1000
# 003050 jsr r5, 5130 (nextPC=003054)
003616 077303  sob 000040 177466 177510 000001 000002 177712 177500   NZVC1 1000
# 003616 sob r3, 3612 (nextPC=003620)
001406 016501  mov 000000 000204 000000 000000 000000 177752 177716   NZVC1 0000
# 001406 mov -16(r5), r1 (nextPC=001412)
004604 016501  mov 003054 000000 177504 000003 000001 177452 177452   NZVC1 1000
# 004604 mov 6(r5), r1 (nextPC=004610)
003054 012716  mov 003054 177462 177505 000000 000001 177470 177460   NZVC1 0000
# 003054 mov #12622, (sp) (nextPC=003060)
003474 003402  ble 000061 000000 006106 177504 177720 177706 177466   NZVC1 1001
# 003474 ble 3502 (nextPC=003476)
003626 004737  jsr 000040 177462 177505 000000 000003 177706 177474   NZVC1 0000
# 003626 jsr pc, @#3050 (nextPC=003632)
005156 010506  mov 000066 177462 177507 000000 000001 177470 177460   NZVC1 1000
# 005156 mov r5, sp (nextPC=005160)
004746 000207  rts 000040 012622 177504 000003 000001 177470 177454   NZVC1 1000
# 004746 rts pc (nextPC=004750)
004632 110071 movb 000061 012622 177505 000000 000001 177452 177452   NZVC1 0000
# 004632 movb r0, @4(r1) (nextPC=004636)
003262 000112  jmp 000157 006042 003412 177510 177720 177712 177504   NZVC1 0100
# 003262 jmp (r2) (nextPC=003264)
004604 016501  mov 003054 177466 177510 000003 000003 177456 177456   NZVC1 1000
# 004604 mov 6(r5), r1 (nextPC=004610)
003054 012716  mov 003054 177466 177511 000000 000003 177474 177464   NZVC1 0000
# 003054 mov #12622, (sp) (nextPC=003060)
003122 117700 movb 000067 177466 177513 000000 177722 177712 177504   NZVC1 1000
# 003122 movb @13636, r0 (nextPC=003126)
[pid 12] TRAP
[pid 12] trap 006164 seek(3, 8, 3) [000003 000000 000000 000000 000000 177662 177662 005042] [000010 000003]
[pid 12] trap DONE 006164 seek(3, 8, 3) [000003 000000 000000 000000 000000 177662 177662 005042] [000010 000003]
[pid 12] seek(3, 8, 3) = 3
005042 103002  bcc 000003 000000 000000 000000 000000 177662 177662   NZVC1 0000
# 005042 bcc 5050 (nextPC=005044)
[pid 12] TRAP
[pid 12] trap 006164 seek(3, 384, 1) [000003 000000 000000 000000 000000 177662 177662 005042] [000600 000001]
[pid 12] trap DONE 006164 seek(3, 384, 1) [000003 000000 000000 000000 000000 177662 177662 005042] [000600 000001]
[pid 12] seek(3, 384, 1) = 3
005042 103002  bcc 000003 000000 000000 000000 000000 177662 177662   NZVC1 0000
# 005042 bcc 5050 (nextPC=005044)
[pid 12] TRAP
[pid 12] trap 006156 read(3, 011106, 512) [000003 000000 000000 000000 000000 177662 177662 005000] [011106 001000]
[pid 12] trap DONE 006156 read(3, 011106, 512) [001000 000000 000000 000000 000000 177662 177662 005000] [011106 001000]
[pid 12] read(3, 011106, 512) = "\x00\x00\x00\x00\x00\x00\x00\x00\x00\x00\x00\x00\x00\x00\x00\x00\x00\x00\x00\x00\x00\x00\x00\x00\x00\x00\x00\x00\x00\x00\x00\x00\x00\x00\x00\x00\x00\x00\x00\x00\x00\x00\x00\x00\x00\x00\x00\x00\x00\x00\x00\x00\x00\x00\x00\x00\x00\x00\x00\x00\x00\x00\x00\x00\x00\x00\x00\x00\x00\x00\x00\x00\x00\x00\x00\x00\x00\x00\x00\x00\x00\x00\x00\x00\x00\x00\x00\x00\x00\x00\x00\x00\x00\x00\x00\x00\x00\x00\x00\x00\x00\x00\x00\x00\x00\x00\x00\x00\x00\x00\x00\x00\x00\x00\x00\x00\x00\x00\x00\x00\x00\x00\x00\x00\x00\x00\x00\x00\x00\x00\x00\x00\x00\x00\x00\x00\x00\x00\x00\x00\x00\x00\x00\x00\x00\x00\x00\x00\x00\x00\x00\x00\x00\x00\x00\x00\x00\x00\x00\x00\x00\x00\x00\x00\x00\x00\x00\x00\x00\x00\x00\x00\x00\x00\x00\x00\x00\x00\x00\x00\x00\x00\x00\x00\x00\x00\x00\x00\x00\x00\x00\x00\x00\x00\x00\x00\x00\x00\x00\x00\x00\x00\x00\x00\x00\x00\x00\x00\x00\x00\x00\x00\x00\x00\x00\x00\x00\x00\x00\x00\x00\x00\x00\x00\x00\x00\x00\x00\x00\x00\x00\x00\x00\x00\x00\x00\x00\x00\x00\x00\x00\x00\x00\x00\x00\x00\x00\x00\x00\x00\x00\x00\x00\x00\x00\x00\x00\x00\x00\x00\x00\x00\x00\x00\x00\x00\x00\x00\x00\x00\x00\x00\x00\x00\x00\x00\x00\x00\x00\x00\x00\x00\x00\x00\x00\x00\x00\x00\x00\x00\x00\x00\x00\x00\x00\x00\x00\x00\x00\x00\x00\x00\x00\x00\x00\x00\x00\x00\x00\x00\x00\x00\x00\x00\x00\x00\x00\x00\x00\x00\x00\x00\x00\x00\x00\x00\x00\x00\x00\x00\x00\x00\x00\x00\x00\x00\x00\x00\x00\x00\xa6#\x00\x00\v\x00\x96\xffj\x0f\xff\xffd\xff \x00ps\x00\x00\x00\x00\x00\x00\x00\x00\x00\x00\x00\x00\x00\x06\x91\nCc\x00\x00\x00\x00\x00\x00\x00\x00\x00\x00\x00\x00\x91\nCc\x00\x00\xfa\xff\x00\x00\x92'\xac\xff.\a\b\x00\x00\x00-\x00\x00\x00\x00\x00\xa2\xff\x01\x00\xb0\xff\xf6\r\xa8\xff\x00\x00\xf2'\xa6#\xfa'\xc6\xff\xda\b\f\x00\xfa'\x92'\xca\xff\x00\x00\f\x00\xf2'\xad#\xfa'\xda\xfff\f\xfa'h\x04\x8e'\x00\x00\xfa\xff\xf2'\xad#\xff\xff\xe6\xff\xe8\x01\xf2'\xfa\xffd!\xff\xff\xf2\xffl\x01q!\x00\x00\x00\x00\x00\x00\x00\x00\x10\x00\x01\x00\xfa\xff\xfe\xff\xff\xff-\x00"
005000 103002  bcc 001000 000000 000000 000000 000000 177662 177662   NZVC1 0000
# 005000 bcc 5006 (nextPC=005002)
005150 014104  mov 000040 177452 012104 012104 177672 177452 177442   NZVC1 1000
# 005150 mov -(r1), r4 (nextPC=005152)
003364 005003  clr 000163 000020 003360 177462 177672 177664 177456   NZVC1 0000
# 003364 clr r3 (nextPC=003366)
005130 010500  mov 000012 177706 000000 000000 177722 003054 177502   NZVC1 0001
# 005130 mov r5, r0 (nextPC=005132)
003166 127727 cmpb 000045 000006 000000 000000 177720 177712 177504   NZVC1 0100
# 003166 cmpb @13636, #55 (nextPC=003174)
003652 005726  tst 000070 177466 177511 177777 000000 177712 177500   NZVC1 1000
# 003652 tst (sp)+ (nextPC=003654)
003724 005267  inc 000003 000000 000000 003212 177714 177706 177476   NZVC1 1001
# 003724 inc 13642 (nextPC=003730)
005144 000110  jmp 003054 177462 177504 000001 000001 177470 177460   NZVC1 0000
# 005144 jmp (r0) (nextPC=005146)
005146 010501  mov 000040 012622 177505 000000 177716 177474 177464   NZVC1 0000
# 005146 mov r5, r1 (nextPC=005150)
004740 005067  clr 000122 012622 177505 177777 000001 177452 177452   NZVC1 0000
# 004740 clr 13630 (nextPC=004744)
004604 016501  mov 003054 000000 177504 000003 000001 177452 177452   NZVC1 1000
# 004604 mov 6(r5), r1 (nextPC=004610)
003054 012716  mov 003054 177462 177505 000000 000001 177470 177460   NZVC1 0000
# 003054 mov #12622, (sp) (nextPC=003060)
003260 001374  bne 000154 006036 003264 177510 177720 177712 177504   NZVC1 0000
# 003260 bne 3252 (nextPC=003262)
005132 010605  mov 003054 177466 177510 000003 000002 003054 177474   NZVC1 0000
# 005132 mov sp, r5 (nextPC=005134)
003622 001404  beq 000040 177466 177510 000000 000002 177712 177500   NZVC1 0000
# 003622 beq 3634 (nextPC=003624)
001416 116101 movb 000000 000232 000000 000000 000000 177752 177716   NZVC1 0000
# 001416 movb 6206(r1), r1 (nextPC=001422)
004614 002004  bge 003054 012622 177504 000003 000001 177452 177452   NZVC1 0000
# 004614 bge 4626 (nextPC=004616)
003064 004737  jsr 003054 177462 177505 000000 000001 177470 177456   NZVC1 0000
# 003064 jsr pc, @#4600 (nextPC=003070)
003504 000207  rts 000061 000000 006106 177505 177720 177706 177466   NZVC1 0001
# 003504 rts pc (nextPC=003506)
005130 010500  mov 000040 177462 177505 000000 000003 003054 177470   NZVC1 0000
# 005130 mov r5, r0 (nextPC=005132)
005162 000207  rts 000067 177462 177507 000000 000001 177706 177472   NZVC1 1000
# 005162 rts pc (nextPC=005164)
003072 000167  jmp 000040 012622 177504 000003 000001 177470 177460   NZVC1 0000
# 003072 jmp 5146 (nextPC=003076)
004642 000436   br 000061 012622 177505 000000 000001 177452 177452   NZVC1 0000
# 004642 br 4740 (nextPC=004644)
005140 010246  mov 003054 177474 000000 000000 177722 177502 177476   NZVC1 0101
# 005140 mov r2, -(sp) (nextPC=005142)
005146 010501  mov 000040 012622 000000 000000 177722 177502 177472   NZVC1 0000
# 005146 mov r5, r1 (nextPC=005150)
005140 010246  mov 003054 177474 000000 000000 177722 177502 177476   NZVC1 0101
# 005140 mov r2, -(sp) (nextPC=005142)
[pid 12] TRAP
[pid 12] trap 006164 seek(3, 8, 3) [000003 000000 000000 000000 000000 177662 177662 005042] [000010 000003]
[pid 12] trap DONE 006164 seek(3, 8, 3) [000003 000000 000000 000000 000000 177662 177662 005042] [000010 000003]
[pid 12] seek(3, 8, 3) = 3
005042 103002  bcc 000003 000000 000000 000000 000000 177662 177662   NZVC1 0000
# 005042 bcc 5050 (nextPC=005044)
[pid 12] TRAP
[pid 12] trap 006164 seek(3, 448, 1) [000003 000000 000000 000000 000000 177662 177662 005042] [000700 000001]
[pid 12] trap DONE 006164 seek(3, 448, 1) [000003 000000 000000 000000 000000 177662 177662 005042] [000700 000001]
[pid 12] seek(3, 448, 1) = 3
005042 103002  bcc 000003 000000 000000 000000 000000 177662 177662   NZVC1 0000
# 005042 bcc 5050 (nextPC=005044)
[pid 12] TRAP
[pid 12] trap 006156 read(3, 011106, 512) [000003 000000 000000 000000 000000 177662 177662 005000] [011106 001000]
[pid 12] trap DONE 006156 read(3, 011106, 512) [001000 000000 000000 000000 000000 177662 177662 005000] [011106 001000]
[pid 12] read(3, 011106, 512) = "\x00\x00\x00\x00F\x00null\x00\x00\x00\x00\x00\x00\x00\x00\x00\x00G\x00tty8\x00\x00\x00\x00\x00\x00\x00\x00\x00\x00\x1d\x05tty0\x00\x00\x00\x00\x00\x00\x00\x00\x00\x00\x1e\x05tty1\x00\x00\x00\x00\x00\x00\x00\x00\x00\x00\x1f\x05tty2\x00\x00\x00\x00\x00\x00\x00\x00\x00\x00 \x05tty3\x00\x00\x00\x00\x00\x00\x00\x00\x00\x00!\x05swap\x00\x00\x00\x00\x00\x00\x00\x00\x00\x00\x00\x00\x00\x00\x00\x00\x00\x00\x00\x00\x00\x00\x00\x00\x00\x00\x00\x00\x00\x00\x00\x00\x00\x00\x00\x00\x00\x00\x00\x00\x00\x00\x00\x00\x00\x00\x00\x00\x00\x00\x00\x00\x00\x00\x00\x00\x00\x00\x00\x00\x00\x00\x00\x00\x00\x00\x00\x00\x00\x00\x00\x00\x00\x00\x00\x00\x00\x00\x00\x00\x00\x00\x00\x00\x00\x00\x00\x00\x00\x00\x00\x00\x00\x00\x00\x00\x00\x00\x00\x00\x00\x00\x00\x00\x00\x00\x00\x00\x00\x00\x00\x00\x00\x00\x00\x00\x00\x00\x00\x00\x00\x00\x00\x00\x00\x00\x00\x00\x00\x00\x00\x00\x00\x00\x00\x00\x00\x00\x00\x00\x00\x00\x00\x00\x00\x00\x00\x00\x00\x00\x00\x00\x00\x00\x00\x00\x00\x00\x00\x00\x00\x00\x00\x00\x00\x00\x00\x00\x00\x00\x00\x00\x00\x00&\xff8\x06-\x00\x92\x15E\x14\xff\xff\x01\x00\xb4\xff\x9a\a8\xff8\x061\x00\x92\x15E\xffB\xff8\x06 \x00\x92\x15\x00\x00\x00\x00\xd2\xff\xcc\xffh\x06 \x00127\x00\x00\x00\x00\x00\x00\x00\x00\x00\x00\x00\x00\x00\x00\x00\x00\x00\x00\x00\x00\x00\x00\x00\x00\x00\x00\x00\x00\x00\x00\x00\x00\x00\x00\x00\x00\x00\x00\x00\x00\x00\x00\x00\x00\x00\x00\x00\x00\x00\x00\x00\x00\x00\x00\x00\x00\x00\x00\x00\x00\x00\x00\x00\x00\x00\x00\x00\x00\x00\x00\x00\x00\x00\x00\x00\x00\x00\x00\x00\x00\x00\x00\x00\x00\x00\x00\x00\x00\x00\x00\x00\x00\x00\x00\x00\x00\x00\x00\x00D\x14D\x14\xcc\xff~\x05\x03\x00F\x12\x00\x02\x00\x00\x00\x00\x03\x00\xc0\x01\b\x00\x00\x00\x00\x00\x00\x00\xea\xffr\x03\a\x00\x06\x00\x06\x00\xff\xff8\x008\x00\a\x00\x00\x00\x00\x00\x00\x00\x00\x00\x00\x00\x00\x00\x00\x00\x10\x00\x02\x00\xf2\xff\xf9\xff\xfc\xff\xff\xff\x00ps\x00-la\x00"
005000 103002  bcc 001000 000000 000000 000000 000000 177662 177662   NZVC1 0000
# 005000 bcc 5006 (nextPC=005002)
002650 111200 movb 000141 000000 012105 012077 012074 177714 177672   NZVC1 0000
# 002650 movb (r2), r0 (nextPC=002652)
003666 005001  clr 000056 000000 012104 003234 177672 177664 177454   NZVC1 0100
# 003666 clr r1 (nextPC=003670)
003576 066703  add 000163 000012 012077 177772 000006 177664 177452   NZVC1 1001
# 003576 add 13634, r3 (nextPC=003602)
003072 000167  jmp 000040 012622 012102 177772 000004 177446 177436   NZVC1 0000
# 003072 jmp 5146 (nextPC=003076)
004642 000436   br 000141 012622 012105 177772 000001 177430 177430   NZVC1 0000
# 004642 br 4740 (nextPC=004644)
005156 010506  mov 000000 177706 000000 000000 000000 177714 177506   NZVC1 0100
# 005156 mov r5, sp (nextPC=005160)
000612 105760 tstb 000566 000566 000000 000000 000000 177752 177720   NZVC1 0000
# 000612 tstb 6204(r0) (nextPC=000616)
000612 105760 tstb 001122 001122 000000 000000 000000 177752 177720   NZVC1 0000
# 000612 tstb 6204(r0) (nextPC=000616)
000612 105760 tstb 001456 001456 000000 000000 000000 177752 177720   NZVC1 0000
# 000612 tstb 6204(r0) (nextPC=000616)
000612 105760 tstb 002012 002012 000000 000000 000000 177752 177720   NZVC1 0000
# 000612 tstb 6204(r0) (nextPC=000616)
[pid 12] TRAP
[pid 12] trap 006150 write(1, "TTY F S UID   PID PRI ADDR  SZ  WCHAN COMMAND\n8:  1 W   0     1   0  100   1    167 /etc/init\n8:  1 W   0     5   0  101   1    164 /etc/update\n8:  1 W   0     6   0  102   1    151 - -\n8:  1 W   0     7   0  103   1    151 - 0\n8:  1 W   0     8   0  104   1    151 - 0\n8:  1 W   0     9   0  105   1    151 - 0\n8:  1 W   6    10   0  106   1    167 -\n8:  1 R   6    12   0  107   1        ps -la\n") [000001 012622 000000 000000 000000 177700 177674 004720] [012630 000615]
[pid 12] trap DONE 006150 write(1, "TTY F S UID   PID PRI ADDR  SZ  WCHAN COMMAND\n8:  1 W   0     1   0  100   1    167 /etc/init\n8:  1 W   0     5   0  101   1    164 /etc/update\n8:  1 W   0     6   0  102   1    151 - -\n8:  1 W   0     7   0  103   1    151 - 0\n8:  1 W   0     8   0  104   1    151 - 0\n8:  1 W   0     9   0  105   1    151 - 0\n8:  1 W   6    10   0  106   1    167 -\n8:  1 R   6    12   0  107   1        ps -la\n") [000615 012622 000000 000000 000000 177700 177674 004720] [012630 000615]
[pid 12] write(1, "TTY F S UID   PID PRI ADDR  SZ  WCHAN COMMAND\n8:  1 W   0     1   0  100   1    167 /etc/init\n8:  1 W   0     5   0  101   1    164 /etc/update\n8:  1 W   0     6   0  102   1    151 - -\n8:  1 W   0     7   0  103   1    151 - 0\n8:  1 W   0     8   0  104   1    151 - 0\n8:  1 W   0     9   0  105   1    151 - 0\n8:  1 W   6    10   0  106   1    167 -\n8:  1 R   6    12   0  107   1        ps -la\n") = 397
004720 012661  mov 000615 012622 000000 000000 000000 177700 177674   NZVC1 0000
# 004720 mov (sp)+, 4(r1) (nextPC=004724)
[pid 12] TRAP
[pid 12] trap 005130 exit(5522) [012622 012622 000000 000000 000000 177700 177700 005130] []
[pid 10] trap DONE 010734 wait() [000014 111000 023762 021646 023772 177642 177640 010734] []
[pid 10] wait() = 12, 111000
010734 103003  bcc 000014 111000 023762 021646 023772 177642 177640   NZVC1 0000
# 010734 bcc 10744 (nextPC=010736)
[pid 10] TRAP
[pid 10] trap 021526 times [007230 111000 021646 000000 000014 177536 177536 010714] [177604]
[pid 10] trap DONE 021526 times [007230 111000 021646 000000 000014 177536 177536 010714] [177604]
[pid 10] times
010714 012605  mov 007230 111000 021646 000000 000014 177536 177536   NZVC1 1000
# 010714 mov (sp)+, r5 (nextPC=010716)
[pid 10] TRAP
[pid 10] trap 010656 time() [007230 111000 021646 000000 000014 177536 177536 010656] []
[pid 10] trap DONE 010656 time() [005221 061505 021646 000000 000014 177536 177536 010656] []
[pid 10] time() = 2705, 25413
010656 010246  mov 005221 061505 021646 000000 000014 177536 177536   NZVC1 1000
# 010656 mov r2, -(sp) (nextPC=010660)
011410 014103  mov 000000 177530 177602 000000 000014 177532 177522   NZVC1 0000
# 011410 mov -(r1), r3 (nextPC=011412)
007424 105713 tstb 177637 177524 021651 021650 000011 177626 177542   NZVC1 0100
# 007424 tstb (r3) (nextPC=007426)
[pid 10] TRAP
[pid 10] trap 021512 seek(-1, 0, 2) [177777 177524 021651 021650 000016 177532 177532 010216] [000000 000002]
[pid 10] trap DONE 021512 seek(-1, 0, 2) [177777 177524 021651 021650 000016 177532 177532 010216] [000000 000002]
[pid 10] seek(-1, 0, 2): EBADF
010216 103002  bcc 000011 177524 021651 021650 000016 177532 177532   NZVC1 0001
# 010216 bcc 10224 (nextPC=010220)
[pid 10] TRAP
[pid 10] trap 021532 write(-1, "ps\x00\x00\x00\x00\x00\x00\x00\x00\x00\x00\x00\x00\x00\x06\x91\nEc\x00\x00\x00\x00\x00\x00\x00\x00\x00\x00\x00\x00") [177777 177524 021651 021650 000016 177532 177532 011010] [177544 000040]
[pid 10] trap DONE 021532 write(-1, "ps\x00\x00\x00\x00\x00\x00\x00\x00\x00\x00\x00\x00\x00\x06\x91\nEc\x00\x00\x00\x00\x00\x00\x00\x00\x00\x00\x00\x00") [177777 177524 021651 021650 000016 177532 177532 011010] [177544 000040]
[pid 10] write(-1, "ps\x00\x00\x00\x00\x00\x00\x00\x00\x00\x00\x00\x00\x00\x06\x91\nEc\x00\x00\x00\x00\x00\x00\x00\x00\x00\x00\x00\x00"): EBADF
011010 103002  bcc 000011 177524 021651 021650 000016 177532 177532   NZVC1 0001
# 011010 bcc 11016 (nextPC=011012)
006450 112400 movb 006442 177740 177772 020544 020561 177746 177736   NZVC1 0000
# 006450 movb (r4)+, r0 (nextPC=006452)
[pid 10] TRAP
[pid 10] trap 021532 write(2, "%") [000002 177740 177772 020544 020562 177712 177712 011010] [177736 000001]
[pid 10] trap DONE 021532 write(2, "%") [000001 177740 177772 020544 020562 177712 177712 011010] [177736 000001]
[pid 10] write(2, "%") = 1
011010 103002  bcc 000001 177740 177772 020544 020562 177712 177712   NZVC1 0000
# 011010 bcc 11016 (nextPC=011012)
[pid 10] TRAP
[pid 10] trap 021532 write(2, " ") [000002 177724 177772 020544 020563 177712 177712 011010] [177736 000001]
[pid 10] trap DONE 021532 write(2, " ") [000001 177724 177772 020544 020563 177712 177712 011010] [177736 000001]
[pid 10] write(2, " ") = 1
011010 103002  bcc 000001 177724 177772 020544 020563 177712 177712   NZVC1 0000
# 011010 bcc 11016 (nextPC=011012)
[pid 10] TRAP
[pid 10] trap 021504 read(0, 177722, 1) [000000 177740 177772 020544 177777 177710 177710 010154] [177722 000001]
signal: interrupt
